
parser：     文件格式 elf32-i386


Disassembly of section .init:

0804877c <_init>:
 804877c:	53                   	push   %ebx
 804877d:	83 ec 08             	sub    $0x8,%esp
 8048780:	e8 8b 02 00 00       	call   8048a10 <__x86.get_pc_thunk.bx>
 8048785:	81 c3 7b f8 00 00    	add    $0xf87b,%ebx
 804878b:	8b 83 fc ff ff ff    	mov    -0x4(%ebx),%eax
 8048791:	85 c0                	test   %eax,%eax
 8048793:	74 05                	je     804879a <_init+0x1e>
 8048795:	e8 36 02 00 00       	call   80489d0 <__assert_fail@plt+0x10>
 804879a:	83 c4 08             	add    $0x8,%esp
 804879d:	5b                   	pop    %ebx
 804879e:	c3                   	ret    

Disassembly of section .plt:

080487a0 <strcmp@plt-0x10>:
 80487a0:	ff 35 04 80 05 08    	pushl  0x8058004
 80487a6:	ff 25 08 80 05 08    	jmp    *0x8058008
 80487ac:	00 00                	add    %al,(%eax)
	...

080487b0 <strcmp@plt>:
 80487b0:	ff 25 0c 80 05 08    	jmp    *0x805800c
 80487b6:	68 00 00 00 00       	push   $0x0
 80487bb:	e9 e0 ff ff ff       	jmp    80487a0 <_init+0x24>

080487c0 <printf@plt>:
 80487c0:	ff 25 10 80 05 08    	jmp    *0x8058010
 80487c6:	68 08 00 00 00       	push   $0x8
 80487cb:	e9 d0 ff ff ff       	jmp    80487a0 <_init+0x24>

080487d0 <free@plt>:
 80487d0:	ff 25 14 80 05 08    	jmp    *0x8058014
 80487d6:	68 10 00 00 00       	push   $0x10
 80487db:	e9 c0 ff ff ff       	jmp    80487a0 <_init+0x24>

080487e0 <memcpy@plt>:
 80487e0:	ff 25 18 80 05 08    	jmp    *0x8058018
 80487e6:	68 18 00 00 00       	push   $0x18
 80487eb:	e9 b0 ff ff ff       	jmp    80487a0 <_init+0x24>

080487f0 <ferror@plt>:
 80487f0:	ff 25 1c 80 05 08    	jmp    *0x805801c
 80487f6:	68 20 00 00 00       	push   $0x20
 80487fb:	e9 a0 ff ff ff       	jmp    80487a0 <_init+0x24>

08048800 <fclose@plt>:
 8048800:	ff 25 20 80 05 08    	jmp    *0x8058020
 8048806:	68 28 00 00 00       	push   $0x28
 804880b:	e9 90 ff ff ff       	jmp    80487a0 <_init+0x24>

08048810 <__stack_chk_fail@plt>:
 8048810:	ff 25 24 80 05 08    	jmp    *0x8058024
 8048816:	68 30 00 00 00       	push   $0x30
 804881b:	e9 80 ff ff ff       	jmp    80487a0 <_init+0x24>

08048820 <_IO_getc@plt>:
 8048820:	ff 25 28 80 05 08    	jmp    *0x8058028
 8048826:	68 38 00 00 00       	push   $0x38
 804882b:	e9 70 ff ff ff       	jmp    80487a0 <_init+0x24>

08048830 <perror@plt>:
 8048830:	ff 25 2c 80 05 08    	jmp    *0x805802c
 8048836:	68 40 00 00 00       	push   $0x40
 804883b:	e9 60 ff ff ff       	jmp    80487a0 <_init+0x24>

08048840 <fwrite@plt>:
 8048840:	ff 25 30 80 05 08    	jmp    *0x8058030
 8048846:	68 48 00 00 00       	push   $0x48
 804884b:	e9 50 ff ff ff       	jmp    80487a0 <_init+0x24>

08048850 <fread@plt>:
 8048850:	ff 25 34 80 05 08    	jmp    *0x8058034
 8048856:	68 50 00 00 00       	push   $0x50
 804885b:	e9 40 ff ff ff       	jmp    80487a0 <_init+0x24>

08048860 <strcpy@plt>:
 8048860:	ff 25 38 80 05 08    	jmp    *0x8058038
 8048866:	68 58 00 00 00       	push   $0x58
 804886b:	e9 30 ff ff ff       	jmp    80487a0 <_init+0x24>

08048870 <realloc@plt>:
 8048870:	ff 25 3c 80 05 08    	jmp    *0x805803c
 8048876:	68 60 00 00 00       	push   $0x60
 804887b:	e9 20 ff ff ff       	jmp    80487a0 <_init+0x24>

08048880 <malloc@plt>:
 8048880:	ff 25 40 80 05 08    	jmp    *0x8058040
 8048886:	68 68 00 00 00       	push   $0x68
 804888b:	e9 10 ff ff ff       	jmp    80487a0 <_init+0x24>

08048890 <puts@plt>:
 8048890:	ff 25 44 80 05 08    	jmp    *0x8058044
 8048896:	68 70 00 00 00       	push   $0x70
 804889b:	e9 00 ff ff ff       	jmp    80487a0 <_init+0x24>

080488a0 <exit@plt>:
 80488a0:	ff 25 48 80 05 08    	jmp    *0x8058048
 80488a6:	68 78 00 00 00       	push   $0x78
 80488ab:	e9 f0 fe ff ff       	jmp    80487a0 <_init+0x24>

080488b0 <strlen@plt>:
 80488b0:	ff 25 4c 80 05 08    	jmp    *0x805804c
 80488b6:	68 80 00 00 00       	push   $0x80
 80488bb:	e9 e0 fe ff ff       	jmp    80487a0 <_init+0x24>

080488c0 <vprintf@plt>:
 80488c0:	ff 25 50 80 05 08    	jmp    *0x8058050
 80488c6:	68 88 00 00 00       	push   $0x88
 80488cb:	e9 d0 fe ff ff       	jmp    80487a0 <_init+0x24>

080488d0 <__libc_start_main@plt>:
 80488d0:	ff 25 54 80 05 08    	jmp    *0x8058054
 80488d6:	68 90 00 00 00       	push   $0x90
 80488db:	e9 c0 fe ff ff       	jmp    80487a0 <_init+0x24>

080488e0 <fprintf@plt>:
 80488e0:	ff 25 58 80 05 08    	jmp    *0x8058058
 80488e6:	68 98 00 00 00       	push   $0x98
 80488eb:	e9 b0 fe ff ff       	jmp    80487a0 <_init+0x24>

080488f0 <fopen@plt>:
 80488f0:	ff 25 5c 80 05 08    	jmp    *0x805805c
 80488f6:	68 a0 00 00 00       	push   $0xa0
 80488fb:	e9 a0 fe ff ff       	jmp    80487a0 <_init+0x24>

08048900 <memset@plt>:
 8048900:	ff 25 60 80 05 08    	jmp    *0x8058060
 8048906:	68 a8 00 00 00       	push   $0xa8
 804890b:	e9 90 fe ff ff       	jmp    80487a0 <_init+0x24>

08048910 <putchar@plt>:
 8048910:	ff 25 64 80 05 08    	jmp    *0x8058064
 8048916:	68 b0 00 00 00       	push   $0xb0
 804891b:	e9 80 fe ff ff       	jmp    80487a0 <_init+0x24>

08048920 <__errno_location@plt>:
 8048920:	ff 25 68 80 05 08    	jmp    *0x8058068
 8048926:	68 b8 00 00 00       	push   $0xb8
 804892b:	e9 70 fe ff ff       	jmp    80487a0 <_init+0x24>

08048930 <strncpy@plt>:
 8048930:	ff 25 6c 80 05 08    	jmp    *0x805806c
 8048936:	68 c0 00 00 00       	push   $0xc0
 804893b:	e9 60 fe ff ff       	jmp    80487a0 <_init+0x24>

08048940 <fileno@plt>:
 8048940:	ff 25 70 80 05 08    	jmp    *0x8058070
 8048946:	68 c8 00 00 00       	push   $0xc8
 804894b:	e9 50 fe ff ff       	jmp    80487a0 <_init+0x24>

08048950 <fputc@plt>:
 8048950:	ff 25 74 80 05 08    	jmp    *0x8058074
 8048956:	68 d0 00 00 00       	push   $0xd0
 804895b:	e9 40 fe ff ff       	jmp    80487a0 <_init+0x24>

08048960 <clearerr@plt>:
 8048960:	ff 25 78 80 05 08    	jmp    *0x8058078
 8048966:	68 d8 00 00 00       	push   $0xd8
 804896b:	e9 30 fe ff ff       	jmp    80487a0 <_init+0x24>

08048970 <atoi@plt>:
 8048970:	ff 25 7c 80 05 08    	jmp    *0x805807c
 8048976:	68 e0 00 00 00       	push   $0xe0
 804897b:	e9 20 fe ff ff       	jmp    80487a0 <_init+0x24>

08048980 <atof@plt>:
 8048980:	ff 25 80 80 05 08    	jmp    *0x8058080
 8048986:	68 e8 00 00 00       	push   $0xe8
 804898b:	e9 10 fe ff ff       	jmp    80487a0 <_init+0x24>

08048990 <isatty@plt>:
 8048990:	ff 25 84 80 05 08    	jmp    *0x8058084
 8048996:	68 f0 00 00 00       	push   $0xf0
 804899b:	e9 00 fe ff ff       	jmp    80487a0 <_init+0x24>

080489a0 <strtol@plt>:
 80489a0:	ff 25 88 80 05 08    	jmp    *0x8058088
 80489a6:	68 f8 00 00 00       	push   $0xf8
 80489ab:	e9 f0 fd ff ff       	jmp    80487a0 <_init+0x24>

080489b0 <fputs@plt>:
 80489b0:	ff 25 8c 80 05 08    	jmp    *0x805808c
 80489b6:	68 00 01 00 00       	push   $0x100
 80489bb:	e9 e0 fd ff ff       	jmp    80487a0 <_init+0x24>

080489c0 <__assert_fail@plt>:
 80489c0:	ff 25 90 80 05 08    	jmp    *0x8058090
 80489c6:	68 08 01 00 00       	push   $0x108
 80489cb:	e9 d0 fd ff ff       	jmp    80487a0 <_init+0x24>

Disassembly of section .plt.got:

080489d0 <.plt.got>:
 80489d0:	ff 25 fc 7f 05 08    	jmp    *0x8057ffc
 80489d6:	66 90                	xchg   %ax,%ax

Disassembly of section .text:

080489e0 <_start>:
 80489e0:	31 ed                	xor    %ebp,%ebp
 80489e2:	5e                   	pop    %esi
 80489e3:	89 e1                	mov    %esp,%ecx
 80489e5:	83 e4 f0             	and    $0xfffffff0,%esp
 80489e8:	50                   	push   %eax
 80489e9:	54                   	push   %esp
 80489ea:	52                   	push   %edx
 80489eb:	68 40 35 05 08       	push   $0x8053540
 80489f0:	68 e0 34 05 08       	push   $0x80534e0
 80489f5:	51                   	push   %ecx
 80489f6:	56                   	push   %esi
 80489f7:	68 3e a4 04 08       	push   $0x804a43e
 80489fc:	e8 cf fe ff ff       	call   80488d0 <__libc_start_main@plt>
 8048a01:	f4                   	hlt    
 8048a02:	66 90                	xchg   %ax,%ax
 8048a04:	66 90                	xchg   %ax,%ax
 8048a06:	66 90                	xchg   %ax,%ax
 8048a08:	66 90                	xchg   %ax,%ax
 8048a0a:	66 90                	xchg   %ax,%ax
 8048a0c:	66 90                	xchg   %ax,%ax
 8048a0e:	66 90                	xchg   %ax,%ax

08048a10 <__x86.get_pc_thunk.bx>:
 8048a10:	8b 1c 24             	mov    (%esp),%ebx
 8048a13:	c3                   	ret    
 8048a14:	66 90                	xchg   %ax,%ax
 8048a16:	66 90                	xchg   %ax,%ax
 8048a18:	66 90                	xchg   %ax,%ax
 8048a1a:	66 90                	xchg   %ax,%ax
 8048a1c:	66 90                	xchg   %ax,%ax
 8048a1e:	66 90                	xchg   %ax,%ax

08048a20 <deregister_tm_clones>:
 8048a20:	b8 c7 80 05 08       	mov    $0x80580c7,%eax
 8048a25:	2d c4 80 05 08       	sub    $0x80580c4,%eax
 8048a2a:	83 f8 06             	cmp    $0x6,%eax
 8048a2d:	76 1a                	jbe    8048a49 <deregister_tm_clones+0x29>
 8048a2f:	b8 00 00 00 00       	mov    $0x0,%eax
 8048a34:	85 c0                	test   %eax,%eax
 8048a36:	74 11                	je     8048a49 <deregister_tm_clones+0x29>
 8048a38:	55                   	push   %ebp
 8048a39:	89 e5                	mov    %esp,%ebp
 8048a3b:	83 ec 14             	sub    $0x14,%esp
 8048a3e:	68 c4 80 05 08       	push   $0x80580c4
 8048a43:	ff d0                	call   *%eax
 8048a45:	83 c4 10             	add    $0x10,%esp
 8048a48:	c9                   	leave  
 8048a49:	f3 c3                	repz ret 
 8048a4b:	90                   	nop
 8048a4c:	8d 74 26 00          	lea    0x0(%esi,%eiz,1),%esi

08048a50 <register_tm_clones>:
 8048a50:	b8 c4 80 05 08       	mov    $0x80580c4,%eax
 8048a55:	2d c4 80 05 08       	sub    $0x80580c4,%eax
 8048a5a:	c1 f8 02             	sar    $0x2,%eax
 8048a5d:	89 c2                	mov    %eax,%edx
 8048a5f:	c1 ea 1f             	shr    $0x1f,%edx
 8048a62:	01 d0                	add    %edx,%eax
 8048a64:	d1 f8                	sar    %eax
 8048a66:	74 1b                	je     8048a83 <register_tm_clones+0x33>
 8048a68:	ba 00 00 00 00       	mov    $0x0,%edx
 8048a6d:	85 d2                	test   %edx,%edx
 8048a6f:	74 12                	je     8048a83 <register_tm_clones+0x33>
 8048a71:	55                   	push   %ebp
 8048a72:	89 e5                	mov    %esp,%ebp
 8048a74:	83 ec 10             	sub    $0x10,%esp
 8048a77:	50                   	push   %eax
 8048a78:	68 c4 80 05 08       	push   $0x80580c4
 8048a7d:	ff d2                	call   *%edx
 8048a7f:	83 c4 10             	add    $0x10,%esp
 8048a82:	c9                   	leave  
 8048a83:	f3 c3                	repz ret 
 8048a85:	8d 74 26 00          	lea    0x0(%esi,%eiz,1),%esi
 8048a89:	8d bc 27 00 00 00 00 	lea    0x0(%edi,%eiz,1),%edi

08048a90 <__do_global_dtors_aux>:
 8048a90:	80 3d 08 81 05 08 00 	cmpb   $0x0,0x8058108
 8048a97:	75 13                	jne    8048aac <__do_global_dtors_aux+0x1c>
 8048a99:	55                   	push   %ebp
 8048a9a:	89 e5                	mov    %esp,%ebp
 8048a9c:	83 ec 08             	sub    $0x8,%esp
 8048a9f:	e8 7c ff ff ff       	call   8048a20 <deregister_tm_clones>
 8048aa4:	c6 05 08 81 05 08 01 	movb   $0x1,0x8058108
 8048aab:	c9                   	leave  
 8048aac:	f3 c3                	repz ret 
 8048aae:	66 90                	xchg   %ax,%ax

08048ab0 <frame_dummy>:
 8048ab0:	b8 10 7f 05 08       	mov    $0x8057f10,%eax
 8048ab5:	8b 10                	mov    (%eax),%edx
 8048ab7:	85 d2                	test   %edx,%edx
 8048ab9:	75 05                	jne    8048ac0 <frame_dummy+0x10>
 8048abb:	eb 93                	jmp    8048a50 <register_tm_clones>
 8048abd:	8d 76 00             	lea    0x0(%esi),%esi
 8048ac0:	ba 00 00 00 00       	mov    $0x0,%edx
 8048ac5:	85 d2                	test   %edx,%edx
 8048ac7:	74 f2                	je     8048abb <frame_dummy+0xb>
 8048ac9:	55                   	push   %ebp
 8048aca:	89 e5                	mov    %esp,%ebp
 8048acc:	83 ec 14             	sub    $0x14,%esp
 8048acf:	50                   	push   %eax
 8048ad0:	ff d2                	call   *%edx
 8048ad2:	83 c4 10             	add    $0x10,%esp
 8048ad5:	c9                   	leave  
 8048ad6:	e9 75 ff ff ff       	jmp    8048a50 <register_tm_clones>

08048adb <newNode>:
 8048adb:	55                   	push   %ebp
 8048adc:	89 e5                	mov    %esp,%ebp
 8048ade:	83 ec 18             	sub    $0x18,%esp
 8048ae1:	83 ec 0c             	sub    $0xc,%esp
 8048ae4:	6a 34                	push   $0x34
 8048ae6:	e8 95 fd ff ff       	call   8048880 <malloc@plt>
 8048aeb:	83 c4 10             	add    $0x10,%esp
 8048aee:	89 45 f4             	mov    %eax,-0xc(%ebp)
 8048af1:	83 ec 04             	sub    $0x4,%esp
 8048af4:	6a 34                	push   $0x34
 8048af6:	6a 00                	push   $0x0
 8048af8:	ff 75 f4             	pushl  -0xc(%ebp)
 8048afb:	e8 00 fe ff ff       	call   8048900 <memset@plt>
 8048b00:	83 c4 10             	add    $0x10,%esp
 8048b03:	8b 45 f4             	mov    -0xc(%ebp),%eax
 8048b06:	c9                   	leave  
 8048b07:	c3                   	ret    

08048b08 <createNode>:
 8048b08:	55                   	push   %ebp
 8048b09:	89 e5                	mov    %esp,%ebp
 8048b0b:	53                   	push   %ebx
 8048b0c:	83 ec 14             	sub    $0x14,%esp
 8048b0f:	e8 c7 ff ff ff       	call   8048adb <newNode>
 8048b14:	89 45 f4             	mov    %eax,-0xc(%ebp)
 8048b17:	8b 45 f4             	mov    -0xc(%ebp),%eax
 8048b1a:	8b 55 0c             	mov    0xc(%ebp),%edx
 8048b1d:	89 10                	mov    %edx,(%eax)
 8048b1f:	83 ec 0c             	sub    $0xc,%esp
 8048b22:	ff 75 08             	pushl  0x8(%ebp)
 8048b25:	e8 86 fd ff ff       	call   80488b0 <strlen@plt>
 8048b2a:	83 c4 10             	add    $0x10,%esp
 8048b2d:	83 c0 01             	add    $0x1,%eax
 8048b30:	83 ec 0c             	sub    $0xc,%esp
 8048b33:	50                   	push   %eax
 8048b34:	e8 47 fd ff ff       	call   8048880 <malloc@plt>
 8048b39:	83 c4 10             	add    $0x10,%esp
 8048b3c:	89 c2                	mov    %eax,%edx
 8048b3e:	8b 45 f4             	mov    -0xc(%ebp),%eax
 8048b41:	89 50 0c             	mov    %edx,0xc(%eax)
 8048b44:	83 ec 0c             	sub    $0xc,%esp
 8048b47:	ff 75 08             	pushl  0x8(%ebp)
 8048b4a:	e8 61 fd ff ff       	call   80488b0 <strlen@plt>
 8048b4f:	83 c4 10             	add    $0x10,%esp
 8048b52:	89 c2                	mov    %eax,%edx
 8048b54:	8b 45 f4             	mov    -0xc(%ebp),%eax
 8048b57:	8b 40 0c             	mov    0xc(%eax),%eax
 8048b5a:	83 ec 04             	sub    $0x4,%esp
 8048b5d:	52                   	push   %edx
 8048b5e:	ff 75 08             	pushl  0x8(%ebp)
 8048b61:	50                   	push   %eax
 8048b62:	e8 c9 fd ff ff       	call   8048930 <strncpy@plt>
 8048b67:	83 c4 10             	add    $0x10,%esp
 8048b6a:	8b 45 f4             	mov    -0xc(%ebp),%eax
 8048b6d:	8b 58 0c             	mov    0xc(%eax),%ebx
 8048b70:	83 ec 0c             	sub    $0xc,%esp
 8048b73:	ff 75 08             	pushl  0x8(%ebp)
 8048b76:	e8 35 fd ff ff       	call   80488b0 <strlen@plt>
 8048b7b:	83 c4 10             	add    $0x10,%esp
 8048b7e:	01 d8                	add    %ebx,%eax
 8048b80:	c6 00 00             	movb   $0x0,(%eax)
 8048b83:	8b 45 f4             	mov    -0xc(%ebp),%eax
 8048b86:	8b 5d fc             	mov    -0x4(%ebp),%ebx
 8048b89:	c9                   	leave  
 8048b8a:	c3                   	ret    

08048b8b <addChild>:
 8048b8b:	55                   	push   %ebp
 8048b8c:	89 e5                	mov    %esp,%ebp
 8048b8e:	83 7d 08 00          	cmpl   $0x0,0x8(%ebp)
 8048b92:	74 1e                	je     8048bb2 <addChild+0x27>
 8048b94:	8b 45 08             	mov    0x8(%ebp),%eax
 8048b97:	8b 40 10             	mov    0x10(%eax),%eax
 8048b9a:	8d 48 01             	lea    0x1(%eax),%ecx
 8048b9d:	8b 55 08             	mov    0x8(%ebp),%edx
 8048ba0:	89 4a 10             	mov    %ecx,0x10(%edx)
 8048ba3:	8b 55 08             	mov    0x8(%ebp),%edx
 8048ba6:	8d 48 04             	lea    0x4(%eax),%ecx
 8048ba9:	8b 45 0c             	mov    0xc(%ebp),%eax
 8048bac:	89 44 8a 04          	mov    %eax,0x4(%edx,%ecx,4)
 8048bb0:	eb 01                	jmp    8048bb3 <addChild+0x28>
 8048bb2:	90                   	nop
 8048bb3:	5d                   	pop    %ebp
 8048bb4:	c3                   	ret    

08048bb5 <printNode>:
 8048bb5:	55                   	push   %ebp
 8048bb6:	89 e5                	mov    %esp,%ebp
 8048bb8:	83 ec 18             	sub    $0x18,%esp
 8048bbb:	c7 45 f4 00 00 00 00 	movl   $0x0,-0xc(%ebp)
 8048bc2:	eb 14                	jmp    8048bd8 <printNode+0x23>
 8048bc4:	83 ec 0c             	sub    $0xc,%esp
 8048bc7:	68 68 35 05 08       	push   $0x8053568
 8048bcc:	e8 ef fb ff ff       	call   80487c0 <printf@plt>
 8048bd1:	83 c4 10             	add    $0x10,%esp
 8048bd4:	83 45 f4 01          	addl   $0x1,-0xc(%ebp)
 8048bd8:	8b 45 f4             	mov    -0xc(%ebp),%eax
 8048bdb:	3b 45 0c             	cmp    0xc(%ebp),%eax
 8048bde:	7c e4                	jl     8048bc4 <printNode+0xf>
 8048be0:	8b 45 08             	mov    0x8(%ebp),%eax
 8048be3:	8b 40 04             	mov    0x4(%eax),%eax
 8048be6:	83 f8 1e             	cmp    $0x1e,%eax
 8048be9:	76 22                	jbe    8048c0d <printNode+0x58>
 8048beb:	8b 45 08             	mov    0x8(%ebp),%eax
 8048bee:	8b 10                	mov    (%eax),%edx
 8048bf0:	8b 45 08             	mov    0x8(%ebp),%eax
 8048bf3:	8b 40 0c             	mov    0xc(%eax),%eax
 8048bf6:	83 ec 04             	sub    $0x4,%esp
 8048bf9:	52                   	push   %edx
 8048bfa:	50                   	push   %eax
 8048bfb:	68 6b 35 05 08       	push   $0x805356b
 8048c00:	e8 bb fb ff ff       	call   80487c0 <printf@plt>
 8048c05:	83 c4 10             	add    $0x10,%esp
 8048c08:	e9 cd 00 00 00       	jmp    8048cda <printNode+0x125>
 8048c0d:	8b 45 08             	mov    0x8(%ebp),%eax
 8048c10:	8b 40 04             	mov    0x4(%eax),%eax
 8048c13:	83 f8 04             	cmp    $0x4,%eax
 8048c16:	76 17                	jbe    8048c2f <printNode+0x7a>
 8048c18:	8b 45 08             	mov    0x8(%ebp),%eax
 8048c1b:	8b 40 0c             	mov    0xc(%eax),%eax
 8048c1e:	83 ec 0c             	sub    $0xc,%esp
 8048c21:	50                   	push   %eax
 8048c22:	e8 69 fc ff ff       	call   8048890 <puts@plt>
 8048c27:	83 c4 10             	add    $0x10,%esp
 8048c2a:	e9 ab 00 00 00       	jmp    8048cda <printNode+0x125>
 8048c2f:	8b 45 08             	mov    0x8(%ebp),%eax
 8048c32:	8b 40 04             	mov    0x4(%eax),%eax
 8048c35:	83 f8 02             	cmp    $0x2,%eax
 8048c38:	74 3e                	je     8048c78 <printNode+0xc3>
 8048c3a:	83 f8 02             	cmp    $0x2,%eax
 8048c3d:	77 0a                	ja     8048c49 <printNode+0x94>
 8048c3f:	83 f8 01             	cmp    $0x1,%eax
 8048c42:	74 14                	je     8048c58 <printNode+0xa3>
 8048c44:	e9 91 00 00 00       	jmp    8048cda <printNode+0x125>
 8048c49:	83 f8 03             	cmp    $0x3,%eax
 8048c4c:	74 4d                	je     8048c9b <printNode+0xe6>
 8048c4e:	83 f8 04             	cmp    $0x4,%eax
 8048c51:	74 68                	je     8048cbb <printNode+0x106>
 8048c53:	e9 82 00 00 00       	jmp    8048cda <printNode+0x125>
 8048c58:	8b 45 08             	mov    0x8(%ebp),%eax
 8048c5b:	8b 50 08             	mov    0x8(%eax),%edx
 8048c5e:	8b 45 08             	mov    0x8(%ebp),%eax
 8048c61:	8b 40 0c             	mov    0xc(%eax),%eax
 8048c64:	83 ec 04             	sub    $0x4,%esp
 8048c67:	52                   	push   %edx
 8048c68:	50                   	push   %eax
 8048c69:	68 74 35 05 08       	push   $0x8053574
 8048c6e:	e8 4d fb ff ff       	call   80487c0 <printf@plt>
 8048c73:	83 c4 10             	add    $0x10,%esp
 8048c76:	eb 62                	jmp    8048cda <printNode+0x125>
 8048c78:	8b 45 08             	mov    0x8(%ebp),%eax
 8048c7b:	d9 40 08             	flds   0x8(%eax)
 8048c7e:	8b 45 08             	mov    0x8(%ebp),%eax
 8048c81:	8b 40 0c             	mov    0xc(%eax),%eax
 8048c84:	8d 64 24 f8          	lea    -0x8(%esp),%esp
 8048c88:	dd 1c 24             	fstpl  (%esp)
 8048c8b:	50                   	push   %eax
 8048c8c:	68 7c 35 05 08       	push   $0x805357c
 8048c91:	e8 2a fb ff ff       	call   80487c0 <printf@plt>
 8048c96:	83 c4 10             	add    $0x10,%esp
 8048c99:	eb 3f                	jmp    8048cda <printNode+0x125>
 8048c9b:	8b 45 08             	mov    0x8(%ebp),%eax
 8048c9e:	8b 50 08             	mov    0x8(%eax),%edx
 8048ca1:	8b 45 08             	mov    0x8(%ebp),%eax
 8048ca4:	8b 40 0c             	mov    0xc(%eax),%eax
 8048ca7:	83 ec 04             	sub    $0x4,%esp
 8048caa:	52                   	push   %edx
 8048cab:	50                   	push   %eax
 8048cac:	68 84 35 05 08       	push   $0x8053584
 8048cb1:	e8 0a fb ff ff       	call   80487c0 <printf@plt>
 8048cb6:	83 c4 10             	add    $0x10,%esp
 8048cb9:	eb 1f                	jmp    8048cda <printNode+0x125>
 8048cbb:	8b 45 08             	mov    0x8(%ebp),%eax
 8048cbe:	8b 50 08             	mov    0x8(%eax),%edx
 8048cc1:	8b 45 08             	mov    0x8(%ebp),%eax
 8048cc4:	8b 40 0c             	mov    0xc(%eax),%eax
 8048cc7:	83 ec 04             	sub    $0x4,%esp
 8048cca:	52                   	push   %edx
 8048ccb:	50                   	push   %eax
 8048ccc:	68 84 35 05 08       	push   $0x8053584
 8048cd1:	e8 ea fa ff ff       	call   80487c0 <printf@plt>
 8048cd6:	83 c4 10             	add    $0x10,%esp
 8048cd9:	90                   	nop
 8048cda:	90                   	nop
 8048cdb:	c9                   	leave  
 8048cdc:	c3                   	ret    

08048cdd <preOrder>:
 8048cdd:	55                   	push   %ebp
 8048cde:	89 e5                	mov    %esp,%ebp
 8048ce0:	83 ec 18             	sub    $0x18,%esp
 8048ce3:	83 7d 08 00          	cmpl   $0x0,0x8(%ebp)
 8048ce7:	74 49                	je     8048d32 <preOrder+0x55>
 8048ce9:	83 ec 08             	sub    $0x8,%esp
 8048cec:	ff 75 0c             	pushl  0xc(%ebp)
 8048cef:	ff 75 08             	pushl  0x8(%ebp)
 8048cf2:	e8 be fe ff ff       	call   8048bb5 <printNode>
 8048cf7:	83 c4 10             	add    $0x10,%esp
 8048cfa:	c7 45 f4 00 00 00 00 	movl   $0x0,-0xc(%ebp)
 8048d01:	eb 24                	jmp    8048d27 <preOrder+0x4a>
 8048d03:	8b 45 0c             	mov    0xc(%ebp),%eax
 8048d06:	8d 50 01             	lea    0x1(%eax),%edx
 8048d09:	8b 45 08             	mov    0x8(%ebp),%eax
 8048d0c:	8b 4d f4             	mov    -0xc(%ebp),%ecx
 8048d0f:	83 c1 04             	add    $0x4,%ecx
 8048d12:	8b 44 88 04          	mov    0x4(%eax,%ecx,4),%eax
 8048d16:	83 ec 08             	sub    $0x8,%esp
 8048d19:	52                   	push   %edx
 8048d1a:	50                   	push   %eax
 8048d1b:	e8 bd ff ff ff       	call   8048cdd <preOrder>
 8048d20:	83 c4 10             	add    $0x10,%esp
 8048d23:	83 45 f4 01          	addl   $0x1,-0xc(%ebp)
 8048d27:	8b 45 08             	mov    0x8(%ebp),%eax
 8048d2a:	8b 40 10             	mov    0x10(%eax),%eax
 8048d2d:	3b 45 f4             	cmp    -0xc(%ebp),%eax
 8048d30:	7f d1                	jg     8048d03 <preOrder+0x26>
 8048d32:	90                   	nop
 8048d33:	c9                   	leave  
 8048d34:	c3                   	ret    

08048d35 <printTree>:
 8048d35:	55                   	push   %ebp
 8048d36:	89 e5                	mov    %esp,%ebp
 8048d38:	83 ec 08             	sub    $0x8,%esp
 8048d3b:	83 ec 08             	sub    $0x8,%esp
 8048d3e:	6a 00                	push   $0x0
 8048d40:	ff 75 08             	pushl  0x8(%ebp)
 8048d43:	e8 95 ff ff ff       	call   8048cdd <preOrder>
 8048d48:	83 c4 10             	add    $0x10,%esp
 8048d4b:	90                   	nop
 8048d4c:	c9                   	leave  
 8048d4d:	c3                   	ret    

08048d4e <deleteTree>:
 8048d4e:	55                   	push   %ebp
 8048d4f:	89 e5                	mov    %esp,%ebp
 8048d51:	83 ec 18             	sub    $0x18,%esp
 8048d54:	83 7d 08 00          	cmpl   $0x0,0x8(%ebp)
 8048d58:	74 3f                	je     8048d99 <deleteTree+0x4b>
 8048d5a:	c7 45 f4 00 00 00 00 	movl   $0x0,-0xc(%ebp)
 8048d61:	eb 1d                	jmp    8048d80 <deleteTree+0x32>
 8048d63:	8b 45 08             	mov    0x8(%ebp),%eax
 8048d66:	8b 55 f4             	mov    -0xc(%ebp),%edx
 8048d69:	83 c2 04             	add    $0x4,%edx
 8048d6c:	8b 44 90 04          	mov    0x4(%eax,%edx,4),%eax
 8048d70:	83 ec 0c             	sub    $0xc,%esp
 8048d73:	50                   	push   %eax
 8048d74:	e8 d5 ff ff ff       	call   8048d4e <deleteTree>
 8048d79:	83 c4 10             	add    $0x10,%esp
 8048d7c:	83 45 f4 01          	addl   $0x1,-0xc(%ebp)
 8048d80:	8b 45 08             	mov    0x8(%ebp),%eax
 8048d83:	8b 40 10             	mov    0x10(%eax),%eax
 8048d86:	3b 45 f4             	cmp    -0xc(%ebp),%eax
 8048d89:	7f d8                	jg     8048d63 <deleteTree+0x15>
 8048d8b:	83 ec 0c             	sub    $0xc,%esp
 8048d8e:	ff 75 08             	pushl  0x8(%ebp)
 8048d91:	e8 3a fa ff ff       	call   80487d0 <free@plt>
 8048d96:	83 c4 10             	add    $0x10,%esp
 8048d99:	90                   	nop
 8048d9a:	c9                   	leave  
 8048d9b:	c3                   	ret    

08048d9c <sematicCheck>:
 8048d9c:	55                   	push   %ebp
 8048d9d:	89 e5                	mov    %esp,%ebp
 8048d9f:	83 ec 08             	sub    $0x8,%esp
 8048da2:	83 ec 0c             	sub    $0xc,%esp
 8048da5:	ff 75 08             	pushl  0x8(%ebp)
 8048da8:	e8 0b 00 00 00       	call   8048db8 <Program>
 8048dad:	83 c4 10             	add    $0x10,%esp
 8048db0:	e8 fe 15 00 00       	call   804a3b3 <checkFunc>
 8048db5:	90                   	nop
 8048db6:	c9                   	leave  
 8048db7:	c3                   	ret    

08048db8 <Program>:
 8048db8:	55                   	push   %ebp
 8048db9:	89 e5                	mov    %esp,%ebp
 8048dbb:	83 ec 08             	sub    $0x8,%esp
 8048dbe:	83 7d 08 00          	cmpl   $0x0,0x8(%ebp)
 8048dc2:	74 14                	je     8048dd8 <Program+0x20>
 8048dc4:	8b 45 08             	mov    0x8(%ebp),%eax
 8048dc7:	8b 40 14             	mov    0x14(%eax),%eax
 8048dca:	83 ec 0c             	sub    $0xc,%esp
 8048dcd:	50                   	push   %eax
 8048dce:	e8 08 00 00 00       	call   8048ddb <ExtDefList>
 8048dd3:	83 c4 10             	add    $0x10,%esp
 8048dd6:	eb 01                	jmp    8048dd9 <Program+0x21>
 8048dd8:	90                   	nop
 8048dd9:	c9                   	leave  
 8048dda:	c3                   	ret    

08048ddb <ExtDefList>:
 8048ddb:	55                   	push   %ebp
 8048ddc:	89 e5                	mov    %esp,%ebp
 8048dde:	83 ec 18             	sub    $0x18,%esp
 8048de1:	83 7d 08 00          	cmpl   $0x0,0x8(%ebp)
 8048de5:	74 31                	je     8048e18 <ExtDefList+0x3d>
 8048de7:	8b 45 08             	mov    0x8(%ebp),%eax
 8048dea:	8b 40 14             	mov    0x14(%eax),%eax
 8048ded:	89 45 f4             	mov    %eax,-0xc(%ebp)
 8048df0:	83 7d f4 00          	cmpl   $0x0,-0xc(%ebp)
 8048df4:	74 23                	je     8048e19 <ExtDefList+0x3e>
 8048df6:	83 ec 0c             	sub    $0xc,%esp
 8048df9:	ff 75 f4             	pushl  -0xc(%ebp)
 8048dfc:	e8 1a 00 00 00       	call   8048e1b <ExtDef>
 8048e01:	83 c4 10             	add    $0x10,%esp
 8048e04:	8b 45 08             	mov    0x8(%ebp),%eax
 8048e07:	8b 40 18             	mov    0x18(%eax),%eax
 8048e0a:	83 ec 0c             	sub    $0xc,%esp
 8048e0d:	50                   	push   %eax
 8048e0e:	e8 c8 ff ff ff       	call   8048ddb <ExtDefList>
 8048e13:	83 c4 10             	add    $0x10,%esp
 8048e16:	eb 01                	jmp    8048e19 <ExtDefList+0x3e>
 8048e18:	90                   	nop
 8048e19:	c9                   	leave  
 8048e1a:	c3                   	ret    

08048e1b <ExtDef>:
 8048e1b:	55                   	push   %ebp
 8048e1c:	89 e5                	mov    %esp,%ebp
 8048e1e:	83 ec 28             	sub    $0x28,%esp
 8048e21:	83 7d 08 00          	cmpl   $0x0,0x8(%ebp)
 8048e25:	0f 84 1a 02 00 00    	je     8049045 <ExtDef+0x22a>
 8048e2b:	8b 45 08             	mov    0x8(%ebp),%eax
 8048e2e:	8b 40 10             	mov    0x10(%eax),%eax
 8048e31:	83 f8 01             	cmp    $0x1,%eax
 8048e34:	0f 8e 0e 02 00 00    	jle    8049048 <ExtDef+0x22d>
 8048e3a:	8b 45 08             	mov    0x8(%ebp),%eax
 8048e3d:	8b 40 14             	mov    0x14(%eax),%eax
 8048e40:	89 45 dc             	mov    %eax,-0x24(%ebp)
 8048e43:	8b 45 08             	mov    0x8(%ebp),%eax
 8048e46:	8b 40 18             	mov    0x18(%eax),%eax
 8048e49:	89 45 e0             	mov    %eax,-0x20(%ebp)
 8048e4c:	83 ec 0c             	sub    $0xc,%esp
 8048e4f:	ff 75 dc             	pushl  -0x24(%ebp)
 8048e52:	e8 7c 02 00 00       	call   80490d3 <Specifier>
 8048e57:	83 c4 10             	add    $0x10,%esp
 8048e5a:	89 45 e4             	mov    %eax,-0x1c(%ebp)
 8048e5d:	8b 45 e0             	mov    -0x20(%ebp),%eax
 8048e60:	8b 40 04             	mov    0x4(%eax),%eax
 8048e63:	83 f8 28             	cmp    $0x28,%eax
 8048e66:	0f 85 bb 01 00 00    	jne    8049027 <ExtDef+0x20c>
 8048e6c:	8b 45 e0             	mov    -0x20(%ebp),%eax
 8048e6f:	89 45 e8             	mov    %eax,-0x18(%ebp)
 8048e72:	8b 45 08             	mov    0x8(%ebp),%eax
 8048e75:	8b 40 1c             	mov    0x1c(%eax),%eax
 8048e78:	89 45 ec             	mov    %eax,-0x14(%ebp)
 8048e7b:	c7 45 d8 00 00 00 00 	movl   $0x0,-0x28(%ebp)
 8048e82:	8b 45 08             	mov    0x8(%ebp),%eax
 8048e85:	8b 40 1c             	mov    0x1c(%eax),%eax
 8048e88:	8b 40 04             	mov    0x4(%eax),%eax
 8048e8b:	83 f8 2b             	cmp    $0x2b,%eax
 8048e8e:	75 18                	jne    8048ea8 <ExtDef+0x8d>
 8048e90:	83 ec 04             	sub    $0x4,%esp
 8048e93:	6a 01                	push   $0x1
 8048e95:	ff 75 e4             	pushl  -0x1c(%ebp)
 8048e98:	ff 75 e8             	pushl  -0x18(%ebp)
 8048e9b:	e8 73 05 00 00       	call   8049413 <FunDec>
 8048ea0:	83 c4 10             	add    $0x10,%esp
 8048ea3:	89 45 d8             	mov    %eax,-0x28(%ebp)
 8048ea6:	eb 16                	jmp    8048ebe <ExtDef+0xa3>
 8048ea8:	83 ec 04             	sub    $0x4,%esp
 8048eab:	6a 00                	push   $0x0
 8048ead:	ff 75 e4             	pushl  -0x1c(%ebp)
 8048eb0:	ff 75 e8             	pushl  -0x18(%ebp)
 8048eb3:	e8 5b 05 00 00       	call   8049413 <FunDec>
 8048eb8:	83 c4 10             	add    $0x10,%esp
 8048ebb:	89 45 d8             	mov    %eax,-0x28(%ebp)
 8048ebe:	8b 45 08             	mov    0x8(%ebp),%eax
 8048ec1:	8b 10                	mov    (%eax),%edx
 8048ec3:	8b 45 d8             	mov    -0x28(%ebp),%eax
 8048ec6:	89 50 08             	mov    %edx,0x8(%eax)
 8048ec9:	8b 45 d8             	mov    -0x28(%ebp),%eax
 8048ecc:	8b 40 04             	mov    0x4(%eax),%eax
 8048ecf:	83 ec 0c             	sub    $0xc,%esp
 8048ed2:	50                   	push   %eax
 8048ed3:	e8 ee 9c 00 00       	call   8052bc6 <searchTable>
 8048ed8:	83 c4 10             	add    $0x10,%esp
 8048edb:	89 45 f0             	mov    %eax,-0x10(%ebp)
 8048ede:	83 7d f0 00          	cmpl   $0x0,-0x10(%ebp)
 8048ee2:	0f 84 c7 00 00 00    	je     8048faf <ExtDef+0x194>
 8048ee8:	8b 45 f0             	mov    -0x10(%ebp),%eax
 8048eeb:	8b 00                	mov    (%eax),%eax
 8048eed:	83 f8 01             	cmp    $0x1,%eax
 8048ef0:	0f 85 fa 00 00 00    	jne    8048ff0 <ExtDef+0x1d5>
 8048ef6:	8b 45 f0             	mov    -0x10(%ebp),%eax
 8048ef9:	8b 40 0c             	mov    0xc(%eax),%eax
 8048efc:	8b 40 08             	mov    0x8(%eax),%eax
 8048eff:	83 f8 01             	cmp    $0x1,%eax
 8048f02:	75 3d                	jne    8048f41 <ExtDef+0x126>
 8048f04:	8b 45 d8             	mov    -0x28(%ebp),%eax
 8048f07:	8b 40 0c             	mov    0xc(%eax),%eax
 8048f0a:	8b 40 08             	mov    0x8(%eax),%eax
 8048f0d:	83 f8 01             	cmp    $0x1,%eax
 8048f10:	75 2f                	jne    8048f41 <ExtDef+0x126>
 8048f12:	a1 20 81 05 08       	mov    0x8058120,%eax
 8048f17:	83 c0 01             	add    $0x1,%eax
 8048f1a:	a3 20 81 05 08       	mov    %eax,0x8058120
 8048f1f:	8b 45 d8             	mov    -0x28(%ebp),%eax
 8048f22:	8b 50 04             	mov    0x4(%eax),%edx
 8048f25:	8b 45 e8             	mov    -0x18(%ebp),%eax
 8048f28:	8b 00                	mov    (%eax),%eax
 8048f2a:	83 ec 04             	sub    $0x4,%esp
 8048f2d:	52                   	push   %edx
 8048f2e:	50                   	push   %eax
 8048f2f:	68 8c 35 05 08       	push   $0x805358c
 8048f34:	e8 87 f8 ff ff       	call   80487c0 <printf@plt>
 8048f39:	83 c4 10             	add    $0x10,%esp
 8048f3c:	e9 af 00 00 00       	jmp    8048ff0 <ExtDef+0x1d5>
 8048f41:	83 ec 08             	sub    $0x8,%esp
 8048f44:	ff 75 d8             	pushl  -0x28(%ebp)
 8048f47:	ff 75 f0             	pushl  -0x10(%ebp)
 8048f4a:	e8 57 a1 00 00       	call   80530a6 <compareFunction>
 8048f4f:	83 c4 10             	add    $0x10,%esp
 8048f52:	85 c0                	test   %eax,%eax
 8048f54:	75 2f                	jne    8048f85 <ExtDef+0x16a>
 8048f56:	a1 20 81 05 08       	mov    0x8058120,%eax
 8048f5b:	83 c0 01             	add    $0x1,%eax
 8048f5e:	a3 20 81 05 08       	mov    %eax,0x8058120
 8048f63:	8b 45 d8             	mov    -0x28(%ebp),%eax
 8048f66:	8b 50 04             	mov    0x4(%eax),%edx
 8048f69:	8b 45 e8             	mov    -0x18(%ebp),%eax
 8048f6c:	8b 00                	mov    (%eax),%eax
 8048f6e:	83 ec 04             	sub    $0x4,%esp
 8048f71:	52                   	push   %edx
 8048f72:	50                   	push   %eax
 8048f73:	68 c0 35 05 08       	push   $0x80535c0
 8048f78:	e8 43 f8 ff ff       	call   80487c0 <printf@plt>
 8048f7d:	83 c4 10             	add    $0x10,%esp
 8048f80:	e9 c4 00 00 00       	jmp    8049049 <ExtDef+0x22e>
 8048f85:	8b 45 f0             	mov    -0x10(%ebp),%eax
 8048f88:	8b 40 0c             	mov    0xc(%eax),%eax
 8048f8b:	8b 40 08             	mov    0x8(%eax),%eax
 8048f8e:	85 c0                	test   %eax,%eax
 8048f90:	75 5e                	jne    8048ff0 <ExtDef+0x1d5>
 8048f92:	8b 45 d8             	mov    -0x28(%ebp),%eax
 8048f95:	8b 40 0c             	mov    0xc(%eax),%eax
 8048f98:	8b 40 08             	mov    0x8(%eax),%eax
 8048f9b:	83 f8 01             	cmp    $0x1,%eax
 8048f9e:	75 50                	jne    8048ff0 <ExtDef+0x1d5>
 8048fa0:	8b 45 f0             	mov    -0x10(%ebp),%eax
 8048fa3:	8b 40 0c             	mov    0xc(%eax),%eax
 8048fa6:	c7 40 08 01 00 00 00 	movl   $0x1,0x8(%eax)
 8048fad:	eb 41                	jmp    8048ff0 <ExtDef+0x1d5>
 8048faf:	83 ec 0c             	sub    $0xc,%esp
 8048fb2:	ff 75 d8             	pushl  -0x28(%ebp)
 8048fb5:	e8 84 9c 00 00       	call   8052c3e <insertTable>
 8048fba:	83 c4 10             	add    $0x10,%esp
 8048fbd:	89 45 f4             	mov    %eax,-0xc(%ebp)
 8048fc0:	83 7d f4 01          	cmpl   $0x1,-0xc(%ebp)
 8048fc4:	75 2a                	jne    8048ff0 <ExtDef+0x1d5>
 8048fc6:	a1 20 81 05 08       	mov    0x8058120,%eax
 8048fcb:	83 c0 01             	add    $0x1,%eax
 8048fce:	a3 20 81 05 08       	mov    %eax,0x8058120
 8048fd3:	8b 45 d8             	mov    -0x28(%ebp),%eax
 8048fd6:	8b 50 04             	mov    0x4(%eax),%edx
 8048fd9:	8b 45 e8             	mov    -0x18(%ebp),%eax
 8048fdc:	8b 00                	mov    (%eax),%eax
 8048fde:	83 ec 04             	sub    $0x4,%esp
 8048fe1:	52                   	push   %edx
 8048fe2:	50                   	push   %eax
 8048fe3:	68 8c 35 05 08       	push   $0x805358c
 8048fe8:	e8 d3 f7 ff ff       	call   80487c0 <printf@plt>
 8048fed:	83 c4 10             	add    $0x10,%esp
 8048ff0:	8b 45 08             	mov    0x8(%ebp),%eax
 8048ff3:	8b 40 1c             	mov    0x1c(%eax),%eax
 8048ff6:	8b 40 04             	mov    0x4(%eax),%eax
 8048ff9:	83 f8 2b             	cmp    $0x2b,%eax
 8048ffc:	75 4b                	jne    8049049 <ExtDef+0x22e>
 8048ffe:	8b 45 d8             	mov    -0x28(%ebp),%eax
 8049001:	8b 40 0c             	mov    0xc(%eax),%eax
 8049004:	a3 54 81 05 08       	mov    %eax,0x8058154
 8049009:	8b 45 08             	mov    0x8(%ebp),%eax
 804900c:	8b 40 1c             	mov    0x1c(%eax),%eax
 804900f:	83 ec 0c             	sub    $0xc,%esp
 8049012:	50                   	push   %eax
 8049013:	e8 c3 05 00 00       	call   80495db <CompSt>
 8049018:	83 c4 10             	add    $0x10,%esp
 804901b:	c7 05 54 81 05 08 00 	movl   $0x0,0x8058154
 8049022:	00 00 00 
 8049025:	eb 22                	jmp    8049049 <ExtDef+0x22e>
 8049027:	8b 45 e0             	mov    -0x20(%ebp),%eax
 804902a:	8b 40 04             	mov    0x4(%eax),%eax
 804902d:	83 f8 22             	cmp    $0x22,%eax
 8049030:	75 17                	jne    8049049 <ExtDef+0x22e>
 8049032:	83 ec 08             	sub    $0x8,%esp
 8049035:	ff 75 e0             	pushl  -0x20(%ebp)
 8049038:	ff 75 e4             	pushl  -0x1c(%ebp)
 804903b:	e8 0b 00 00 00       	call   804904b <ExtDecList>
 8049040:	83 c4 10             	add    $0x10,%esp
 8049043:	eb 04                	jmp    8049049 <ExtDef+0x22e>
 8049045:	90                   	nop
 8049046:	eb 01                	jmp    8049049 <ExtDef+0x22e>
 8049048:	90                   	nop
 8049049:	c9                   	leave  
 804904a:	c3                   	ret    

0804904b <ExtDecList>:
 804904b:	55                   	push   %ebp
 804904c:	89 e5                	mov    %esp,%ebp
 804904e:	83 ec 18             	sub    $0x18,%esp
 8049051:	8b 45 0c             	mov    0xc(%ebp),%eax
 8049054:	8b 40 14             	mov    0x14(%eax),%eax
 8049057:	89 45 ec             	mov    %eax,-0x14(%ebp)
 804905a:	83 ec 08             	sub    $0x8,%esp
 804905d:	ff 75 ec             	pushl  -0x14(%ebp)
 8049060:	ff 75 08             	pushl  0x8(%ebp)
 8049063:	e8 f3 02 00 00       	call   804935b <VarDec>
 8049068:	83 c4 10             	add    $0x10,%esp
 804906b:	89 45 f0             	mov    %eax,-0x10(%ebp)
 804906e:	83 ec 0c             	sub    $0xc,%esp
 8049071:	ff 75 f0             	pushl  -0x10(%ebp)
 8049074:	e8 c5 9b 00 00       	call   8052c3e <insertTable>
 8049079:	83 c4 10             	add    $0x10,%esp
 804907c:	89 45 f4             	mov    %eax,-0xc(%ebp)
 804907f:	83 7d f4 01          	cmpl   $0x1,-0xc(%ebp)
 8049083:	75 2b                	jne    80490b0 <ExtDecList+0x65>
 8049085:	a1 20 81 05 08       	mov    0x8058120,%eax
 804908a:	83 c0 01             	add    $0x1,%eax
 804908d:	a3 20 81 05 08       	mov    %eax,0x8058120
 8049092:	8b 45 f0             	mov    -0x10(%ebp),%eax
 8049095:	8b 50 04             	mov    0x4(%eax),%edx
 8049098:	8b 45 f0             	mov    -0x10(%ebp),%eax
 804909b:	8b 40 08             	mov    0x8(%eax),%eax
 804909e:	83 ec 04             	sub    $0x4,%esp
 80490a1:	52                   	push   %edx
 80490a2:	50                   	push   %eax
 80490a3:	68 08 36 05 08       	push   $0x8053608
 80490a8:	e8 13 f7 ff ff       	call   80487c0 <printf@plt>
 80490ad:	83 c4 10             	add    $0x10,%esp
 80490b0:	8b 45 0c             	mov    0xc(%ebp),%eax
 80490b3:	8b 40 10             	mov    0x10(%eax),%eax
 80490b6:	83 f8 01             	cmp    $0x1,%eax
 80490b9:	7e 15                	jle    80490d0 <ExtDecList+0x85>
 80490bb:	8b 45 0c             	mov    0xc(%ebp),%eax
 80490be:	8b 40 1c             	mov    0x1c(%eax),%eax
 80490c1:	83 ec 08             	sub    $0x8,%esp
 80490c4:	50                   	push   %eax
 80490c5:	ff 75 08             	pushl  0x8(%ebp)
 80490c8:	e8 7e ff ff ff       	call   804904b <ExtDecList>
 80490cd:	83 c4 10             	add    $0x10,%esp
 80490d0:	90                   	nop
 80490d1:	c9                   	leave  
 80490d2:	c3                   	ret    

080490d3 <Specifier>:
 80490d3:	55                   	push   %ebp
 80490d4:	89 e5                	mov    %esp,%ebp
 80490d6:	83 ec 18             	sub    $0x18,%esp
 80490d9:	8b 45 08             	mov    0x8(%ebp),%eax
 80490dc:	8b 40 14             	mov    0x14(%eax),%eax
 80490df:	89 45 f4             	mov    %eax,-0xc(%ebp)
 80490e2:	c7 45 f0 00 00 00 00 	movl   $0x0,-0x10(%ebp)
 80490e9:	8b 45 f4             	mov    -0xc(%ebp),%eax
 80490ec:	8b 40 04             	mov    0x4(%eax),%eax
 80490ef:	83 f8 04             	cmp    $0x4,%eax
 80490f2:	75 7d                	jne    8049171 <Specifier+0x9e>
 80490f4:	83 ec 0c             	sub    $0xc,%esp
 80490f7:	6a 0c                	push   $0xc
 80490f9:	e8 82 f7 ff ff       	call   8048880 <malloc@plt>
 80490fe:	83 c4 10             	add    $0x10,%esp
 8049101:	89 45 f0             	mov    %eax,-0x10(%ebp)
 8049104:	8b 45 f0             	mov    -0x10(%ebp),%eax
 8049107:	c7 00 00 00 00 00    	movl   $0x0,(%eax)
 804910d:	8b 45 f4             	mov    -0xc(%ebp),%eax
 8049110:	8b 40 08             	mov    0x8(%eax),%eax
 8049113:	83 ec 08             	sub    $0x8,%esp
 8049116:	68 3b 36 05 08       	push   $0x805363b
 804911b:	50                   	push   %eax
 804911c:	e8 8f f6 ff ff       	call   80487b0 <strcmp@plt>
 8049121:	83 c4 10             	add    $0x10,%esp
 8049124:	85 c0                	test   %eax,%eax
 8049126:	75 0c                	jne    8049134 <Specifier+0x61>
 8049128:	8b 45 f0             	mov    -0x10(%ebp),%eax
 804912b:	c7 40 04 00 00 00 00 	movl   $0x0,0x4(%eax)
 8049132:	eb 78                	jmp    80491ac <Specifier+0xd9>
 8049134:	8b 45 f4             	mov    -0xc(%ebp),%eax
 8049137:	8b 40 08             	mov    0x8(%eax),%eax
 804913a:	83 ec 08             	sub    $0x8,%esp
 804913d:	68 3f 36 05 08       	push   $0x805363f
 8049142:	50                   	push   %eax
 8049143:	e8 68 f6 ff ff       	call   80487b0 <strcmp@plt>
 8049148:	83 c4 10             	add    $0x10,%esp
 804914b:	85 c0                	test   %eax,%eax
 804914d:	75 0c                	jne    804915b <Specifier+0x88>
 804914f:	8b 45 f0             	mov    -0x10(%ebp),%eax
 8049152:	c7 40 04 01 00 00 00 	movl   $0x1,0x4(%eax)
 8049159:	eb 51                	jmp    80491ac <Specifier+0xd9>
 804915b:	68 10 3b 05 08       	push   $0x8053b10
 8049160:	6a 7c                	push   $0x7c
 8049162:	68 45 36 05 08       	push   $0x8053645
 8049167:	68 4f 36 05 08       	push   $0x805364f
 804916c:	e8 4f f8 ff ff       	call   80489c0 <__assert_fail@plt>
 8049171:	8b 45 f4             	mov    -0xc(%ebp),%eax
 8049174:	8b 40 04             	mov    0x4(%eax),%eax
 8049177:	83 f8 24             	cmp    $0x24,%eax
 804917a:	75 17                	jne    8049193 <Specifier+0xc0>
 804917c:	8b 45 08             	mov    0x8(%ebp),%eax
 804917f:	8b 40 14             	mov    0x14(%eax),%eax
 8049182:	83 ec 0c             	sub    $0xc,%esp
 8049185:	50                   	push   %eax
 8049186:	e8 26 00 00 00       	call   80491b1 <StructSpecifier>
 804918b:	83 c4 10             	add    $0x10,%esp
 804918e:	89 45 f0             	mov    %eax,-0x10(%ebp)
 8049191:	eb 19                	jmp    80491ac <Specifier+0xd9>
 8049193:	68 10 3b 05 08       	push   $0x8053b10
 8049198:	68 84 00 00 00       	push   $0x84
 804919d:	68 45 36 05 08       	push   $0x8053645
 80491a2:	68 4f 36 05 08       	push   $0x805364f
 80491a7:	e8 14 f8 ff ff       	call   80489c0 <__assert_fail@plt>
 80491ac:	8b 45 f0             	mov    -0x10(%ebp),%eax
 80491af:	c9                   	leave  
 80491b0:	c3                   	ret    

080491b1 <StructSpecifier>:
 80491b1:	55                   	push   %ebp
 80491b2:	89 e5                	mov    %esp,%ebp
 80491b4:	83 ec 28             	sub    $0x28,%esp
 80491b7:	83 ec 0c             	sub    $0xc,%esp
 80491ba:	6a 0c                	push   $0xc
 80491bc:	e8 bf f6 ff ff       	call   8048880 <malloc@plt>
 80491c1:	83 c4 10             	add    $0x10,%esp
 80491c4:	89 45 dc             	mov    %eax,-0x24(%ebp)
 80491c7:	8b 45 dc             	mov    -0x24(%ebp),%eax
 80491ca:	c7 00 00 00 00 00    	movl   $0x0,(%eax)
 80491d0:	8b 45 dc             	mov    -0x24(%ebp),%eax
 80491d3:	c7 40 08 00 00 00 00 	movl   $0x0,0x8(%eax)
 80491da:	8b 45 dc             	mov    -0x24(%ebp),%eax
 80491dd:	c7 40 04 00 00 00 00 	movl   $0x0,0x4(%eax)
 80491e4:	8b 45 08             	mov    0x8(%ebp),%eax
 80491e7:	8b 40 18             	mov    0x18(%eax),%eax
 80491ea:	8b 40 04             	mov    0x4(%eax),%eax
 80491ed:	83 f8 26             	cmp    $0x26,%eax
 80491f0:	75 76                	jne    8049268 <StructSpecifier+0xb7>
 80491f2:	8b 45 08             	mov    0x8(%ebp),%eax
 80491f5:	8b 40 18             	mov    0x18(%eax),%eax
 80491f8:	8b 40 14             	mov    0x14(%eax),%eax
 80491fb:	8b 40 08             	mov    0x8(%eax),%eax
 80491fe:	83 ec 0c             	sub    $0xc,%esp
 8049201:	50                   	push   %eax
 8049202:	e8 bf 99 00 00       	call   8052bc6 <searchTable>
 8049207:	83 c4 10             	add    $0x10,%esp
 804920a:	89 45 e0             	mov    %eax,-0x20(%ebp)
 804920d:	83 7d e0 00          	cmpl   $0x0,-0x20(%ebp)
 8049211:	74 0a                	je     804921d <StructSpecifier+0x6c>
 8049213:	8b 45 e0             	mov    -0x20(%ebp),%eax
 8049216:	8b 00                	mov    (%eax),%eax
 8049218:	83 f8 02             	cmp    $0x2,%eax
 804921b:	74 40                	je     804925d <StructSpecifier+0xac>
 804921d:	a1 20 81 05 08       	mov    0x8058120,%eax
 8049222:	83 c0 01             	add    $0x1,%eax
 8049225:	a3 20 81 05 08       	mov    %eax,0x8058120
 804922a:	8b 45 08             	mov    0x8(%ebp),%eax
 804922d:	8b 40 18             	mov    0x18(%eax),%eax
 8049230:	8b 40 14             	mov    0x14(%eax),%eax
 8049233:	8b 50 08             	mov    0x8(%eax),%edx
 8049236:	8b 45 08             	mov    0x8(%ebp),%eax
 8049239:	8b 40 18             	mov    0x18(%eax),%eax
 804923c:	8b 40 14             	mov    0x14(%eax),%eax
 804923f:	8b 00                	mov    (%eax),%eax
 8049241:	83 ec 04             	sub    $0x4,%esp
 8049244:	52                   	push   %edx
 8049245:	50                   	push   %eax
 8049246:	68 54 36 05 08       	push   $0x8053654
 804924b:	e8 70 f5 ff ff       	call   80487c0 <printf@plt>
 8049250:	83 c4 10             	add    $0x10,%esp
 8049253:	b8 00 00 00 00       	mov    $0x0,%eax
 8049258:	e9 fc 00 00 00       	jmp    8049359 <StructSpecifier+0x1a8>
 804925d:	8b 45 e0             	mov    -0x20(%ebp),%eax
 8049260:	8b 40 0c             	mov    0xc(%eax),%eax
 8049263:	e9 f1 00 00 00       	jmp    8049359 <StructSpecifier+0x1a8>
 8049268:	8b 45 08             	mov    0x8(%ebp),%eax
 804926b:	8b 40 18             	mov    0x18(%eax),%eax
 804926e:	89 45 e4             	mov    %eax,-0x1c(%ebp)
 8049271:	83 7d e4 00          	cmpl   $0x0,-0x1c(%ebp)
 8049275:	74 4c                	je     80492c3 <StructSpecifier+0x112>
 8049277:	8b 45 e4             	mov    -0x1c(%ebp),%eax
 804927a:	8b 40 14             	mov    0x14(%eax),%eax
 804927d:	8b 40 08             	mov    0x8(%eax),%eax
 8049280:	83 ec 0c             	sub    $0xc,%esp
 8049283:	50                   	push   %eax
 8049284:	e8 27 f6 ff ff       	call   80488b0 <strlen@plt>
 8049289:	83 c4 10             	add    $0x10,%esp
 804928c:	89 45 e8             	mov    %eax,-0x18(%ebp)
 804928f:	8b 45 e8             	mov    -0x18(%ebp),%eax
 8049292:	83 c0 01             	add    $0x1,%eax
 8049295:	83 ec 0c             	sub    $0xc,%esp
 8049298:	50                   	push   %eax
 8049299:	e8 e2 f5 ff ff       	call   8048880 <malloc@plt>
 804929e:	83 c4 10             	add    $0x10,%esp
 80492a1:	89 c2                	mov    %eax,%edx
 80492a3:	8b 45 dc             	mov    -0x24(%ebp),%eax
 80492a6:	89 10                	mov    %edx,(%eax)
 80492a8:	8b 45 e4             	mov    -0x1c(%ebp),%eax
 80492ab:	8b 40 14             	mov    0x14(%eax),%eax
 80492ae:	8b 50 08             	mov    0x8(%eax),%edx
 80492b1:	8b 45 dc             	mov    -0x24(%ebp),%eax
 80492b4:	8b 00                	mov    (%eax),%eax
 80492b6:	83 ec 08             	sub    $0x8,%esp
 80492b9:	52                   	push   %edx
 80492ba:	50                   	push   %eax
 80492bb:	e8 a0 f5 ff ff       	call   8048860 <strcpy@plt>
 80492c0:	83 c4 10             	add    $0x10,%esp
 80492c3:	8b 45 08             	mov    0x8(%ebp),%eax
 80492c6:	8b 40 20             	mov    0x20(%eax),%eax
 80492c9:	83 ec 04             	sub    $0x4,%esp
 80492cc:	ff 75 dc             	pushl  -0x24(%ebp)
 80492cf:	6a 00                	push   $0x0
 80492d1:	50                   	push   %eax
 80492d2:	e8 cf 05 00 00       	call   80498a6 <DefList>
 80492d7:	83 c4 10             	add    $0x10,%esp
 80492da:	83 ec 0c             	sub    $0xc,%esp
 80492dd:	6a 0c                	push   $0xc
 80492df:	e8 9c f5 ff ff       	call   8048880 <malloc@plt>
 80492e4:	83 c4 10             	add    $0x10,%esp
 80492e7:	89 45 ec             	mov    %eax,-0x14(%ebp)
 80492ea:	8b 45 ec             	mov    -0x14(%ebp),%eax
 80492ed:	c7 00 02 00 00 00    	movl   $0x2,(%eax)
 80492f3:	8b 45 ec             	mov    -0x14(%ebp),%eax
 80492f6:	8b 55 dc             	mov    -0x24(%ebp),%edx
 80492f9:	89 50 04             	mov    %edx,0x4(%eax)
 80492fc:	8b 45 dc             	mov    -0x24(%ebp),%eax
 80492ff:	8b 00                	mov    (%eax),%eax
 8049301:	83 ec 04             	sub    $0x4,%esp
 8049304:	ff 75 ec             	pushl  -0x14(%ebp)
 8049307:	50                   	push   %eax
 8049308:	6a 02                	push   $0x2
 804930a:	e8 dd 96 00 00       	call   80529ec <newTypeSymbol>
 804930f:	83 c4 10             	add    $0x10,%esp
 8049312:	89 45 f0             	mov    %eax,-0x10(%ebp)
 8049315:	83 ec 0c             	sub    $0xc,%esp
 8049318:	ff 75 f0             	pushl  -0x10(%ebp)
 804931b:	e8 1e 99 00 00       	call   8052c3e <insertTable>
 8049320:	83 c4 10             	add    $0x10,%esp
 8049323:	89 45 f4             	mov    %eax,-0xc(%ebp)
 8049326:	83 7d f4 01          	cmpl   $0x1,-0xc(%ebp)
 804932a:	75 2a                	jne    8049356 <StructSpecifier+0x1a5>
 804932c:	a1 20 81 05 08       	mov    0x8058120,%eax
 8049331:	83 c0 01             	add    $0x1,%eax
 8049334:	a3 20 81 05 08       	mov    %eax,0x8058120
 8049339:	8b 45 f0             	mov    -0x10(%ebp),%eax
 804933c:	8b 50 04             	mov    0x4(%eax),%edx
 804933f:	8b 45 08             	mov    0x8(%ebp),%eax
 8049342:	8b 00                	mov    (%eax),%eax
 8049344:	83 ec 04             	sub    $0x4,%esp
 8049347:	52                   	push   %edx
 8049348:	50                   	push   %eax
 8049349:	68 8c 36 05 08       	push   $0x805368c
 804934e:	e8 6d f4 ff ff       	call   80487c0 <printf@plt>
 8049353:	83 c4 10             	add    $0x10,%esp
 8049356:	8b 45 ec             	mov    -0x14(%ebp),%eax
 8049359:	c9                   	leave  
 804935a:	c3                   	ret    

0804935b <VarDec>:
 804935b:	55                   	push   %ebp
 804935c:	89 e5                	mov    %esp,%ebp
 804935e:	83 ec 18             	sub    $0x18,%esp
 8049361:	8b 45 0c             	mov    0xc(%ebp),%eax
 8049364:	8b 40 14             	mov    0x14(%eax),%eax
 8049367:	89 45 f0             	mov    %eax,-0x10(%ebp)
 804936a:	c7 45 ec 00 00 00 00 	movl   $0x0,-0x14(%ebp)
 8049371:	8b 45 f0             	mov    -0x10(%ebp),%eax
 8049374:	8b 40 04             	mov    0x4(%eax),%eax
 8049377:	83 f8 03             	cmp    $0x3,%eax
 804937a:	75 27                	jne    80493a3 <VarDec+0x48>
 804937c:	8b 45 f0             	mov    -0x10(%ebp),%eax
 804937f:	8b 40 08             	mov    0x8(%eax),%eax
 8049382:	83 ec 04             	sub    $0x4,%esp
 8049385:	ff 75 08             	pushl  0x8(%ebp)
 8049388:	50                   	push   %eax
 8049389:	6a 00                	push   $0x0
 804938b:	e8 5c 96 00 00       	call   80529ec <newTypeSymbol>
 8049390:	83 c4 10             	add    $0x10,%esp
 8049393:	89 45 ec             	mov    %eax,-0x14(%ebp)
 8049396:	8b 45 0c             	mov    0xc(%ebp),%eax
 8049399:	8b 10                	mov    (%eax),%edx
 804939b:	8b 45 ec             	mov    -0x14(%ebp),%eax
 804939e:	89 50 08             	mov    %edx,0x8(%eax)
 80493a1:	eb 6b                	jmp    804940e <VarDec+0xb3>
 80493a3:	8b 45 f0             	mov    -0x10(%ebp),%eax
 80493a6:	8b 40 04             	mov    0x4(%eax),%eax
 80493a9:	83 f8 27             	cmp    $0x27,%eax
 80493ac:	75 47                	jne    80493f5 <VarDec+0x9a>
 80493ae:	83 ec 0c             	sub    $0xc,%esp
 80493b1:	6a 0c                	push   $0xc
 80493b3:	e8 c8 f4 ff ff       	call   8048880 <malloc@plt>
 80493b8:	83 c4 10             	add    $0x10,%esp
 80493bb:	89 45 f4             	mov    %eax,-0xc(%ebp)
 80493be:	8b 45 f4             	mov    -0xc(%ebp),%eax
 80493c1:	c7 00 01 00 00 00    	movl   $0x1,(%eax)
 80493c7:	8b 45 f4             	mov    -0xc(%ebp),%eax
 80493ca:	8b 55 08             	mov    0x8(%ebp),%edx
 80493cd:	89 50 04             	mov    %edx,0x4(%eax)
 80493d0:	8b 45 0c             	mov    0xc(%ebp),%eax
 80493d3:	8b 40 1c             	mov    0x1c(%eax),%eax
 80493d6:	8b 50 08             	mov    0x8(%eax),%edx
 80493d9:	8b 45 f4             	mov    -0xc(%ebp),%eax
 80493dc:	89 50 08             	mov    %edx,0x8(%eax)
 80493df:	83 ec 08             	sub    $0x8,%esp
 80493e2:	ff 75 f0             	pushl  -0x10(%ebp)
 80493e5:	ff 75 f4             	pushl  -0xc(%ebp)
 80493e8:	e8 6e ff ff ff       	call   804935b <VarDec>
 80493ed:	83 c4 10             	add    $0x10,%esp
 80493f0:	89 45 ec             	mov    %eax,-0x14(%ebp)
 80493f3:	eb 19                	jmp    804940e <VarDec+0xb3>
 80493f5:	68 1c 3b 05 08       	push   $0x8053b1c
 80493fa:	68 d8 00 00 00       	push   $0xd8
 80493ff:	68 45 36 05 08       	push   $0x8053645
 8049404:	68 4f 36 05 08       	push   $0x805364f
 8049409:	e8 b2 f5 ff ff       	call   80489c0 <__assert_fail@plt>
 804940e:	8b 45 ec             	mov    -0x14(%ebp),%eax
 8049411:	c9                   	leave  
 8049412:	c3                   	ret    

08049413 <FunDec>:
 8049413:	55                   	push   %ebp
 8049414:	89 e5                	mov    %esp,%ebp
 8049416:	83 ec 18             	sub    $0x18,%esp
 8049419:	83 ec 0c             	sub    $0xc,%esp
 804941c:	6a 0c                	push   $0xc
 804941e:	e8 5d f4 ff ff       	call   8048880 <malloc@plt>
 8049423:	83 c4 10             	add    $0x10,%esp
 8049426:	89 45 f0             	mov    %eax,-0x10(%ebp)
 8049429:	8b 45 f0             	mov    -0x10(%ebp),%eax
 804942c:	8b 55 0c             	mov    0xc(%ebp),%edx
 804942f:	89 10                	mov    %edx,(%eax)
 8049431:	8b 45 f0             	mov    -0x10(%ebp),%eax
 8049434:	c7 40 04 00 00 00 00 	movl   $0x0,0x4(%eax)
 804943b:	83 7d 10 01          	cmpl   $0x1,0x10(%ebp)
 804943f:	75 0c                	jne    804944d <FunDec+0x3a>
 8049441:	8b 45 f0             	mov    -0x10(%ebp),%eax
 8049444:	c7 40 08 01 00 00 00 	movl   $0x1,0x8(%eax)
 804944b:	eb 0a                	jmp    8049457 <FunDec+0x44>
 804944d:	8b 45 f0             	mov    -0x10(%ebp),%eax
 8049450:	c7 40 08 00 00 00 00 	movl   $0x0,0x8(%eax)
 8049457:	8b 45 08             	mov    0x8(%ebp),%eax
 804945a:	8b 40 1c             	mov    0x1c(%eax),%eax
 804945d:	8b 40 04             	mov    0x4(%eax),%eax
 8049460:	83 f8 29             	cmp    $0x29,%eax
 8049463:	75 1d                	jne    8049482 <FunDec+0x6f>
 8049465:	8b 45 08             	mov    0x8(%ebp),%eax
 8049468:	8b 40 1c             	mov    0x1c(%eax),%eax
 804946b:	83 ec 08             	sub    $0x8,%esp
 804946e:	ff 75 10             	pushl  0x10(%ebp)
 8049471:	50                   	push   %eax
 8049472:	e8 2d 00 00 00       	call   80494a4 <VarList>
 8049477:	83 c4 10             	add    $0x10,%esp
 804947a:	89 c2                	mov    %eax,%edx
 804947c:	8b 45 f0             	mov    -0x10(%ebp),%eax
 804947f:	89 50 04             	mov    %edx,0x4(%eax)
 8049482:	8b 45 08             	mov    0x8(%ebp),%eax
 8049485:	8b 40 14             	mov    0x14(%eax),%eax
 8049488:	8b 40 08             	mov    0x8(%eax),%eax
 804948b:	83 ec 04             	sub    $0x4,%esp
 804948e:	ff 75 f0             	pushl  -0x10(%ebp)
 8049491:	50                   	push   %eax
 8049492:	6a 01                	push   $0x1
 8049494:	e8 d7 95 00 00       	call   8052a70 <newFuncSymbol>
 8049499:	83 c4 10             	add    $0x10,%esp
 804949c:	89 45 f4             	mov    %eax,-0xc(%ebp)
 804949f:	8b 45 f4             	mov    -0xc(%ebp),%eax
 80494a2:	c9                   	leave  
 80494a3:	c3                   	ret    

080494a4 <VarList>:
 80494a4:	55                   	push   %ebp
 80494a5:	89 e5                	mov    %esp,%ebp
 80494a7:	83 ec 18             	sub    $0x18,%esp
 80494aa:	8b 45 08             	mov    0x8(%ebp),%eax
 80494ad:	8b 40 14             	mov    0x14(%eax),%eax
 80494b0:	83 ec 08             	sub    $0x8,%esp
 80494b3:	ff 75 0c             	pushl  0xc(%ebp)
 80494b6:	50                   	push   %eax
 80494b7:	e8 33 00 00 00       	call   80494ef <ParamDec>
 80494bc:	83 c4 10             	add    $0x10,%esp
 80494bf:	89 45 f4             	mov    %eax,-0xc(%ebp)
 80494c2:	8b 45 08             	mov    0x8(%ebp),%eax
 80494c5:	8b 40 10             	mov    0x10(%eax),%eax
 80494c8:	83 f8 01             	cmp    $0x1,%eax
 80494cb:	7e 1d                	jle    80494ea <VarList+0x46>
 80494cd:	8b 45 08             	mov    0x8(%ebp),%eax
 80494d0:	8b 40 1c             	mov    0x1c(%eax),%eax
 80494d3:	83 ec 08             	sub    $0x8,%esp
 80494d6:	ff 75 0c             	pushl  0xc(%ebp)
 80494d9:	50                   	push   %eax
 80494da:	e8 c5 ff ff ff       	call   80494a4 <VarList>
 80494df:	83 c4 10             	add    $0x10,%esp
 80494e2:	89 c2                	mov    %eax,%edx
 80494e4:	8b 45 f4             	mov    -0xc(%ebp),%eax
 80494e7:	89 50 08             	mov    %edx,0x8(%eax)
 80494ea:	8b 45 f4             	mov    -0xc(%ebp),%eax
 80494ed:	c9                   	leave  
 80494ee:	c3                   	ret    

080494ef <ParamDec>:
 80494ef:	55                   	push   %ebp
 80494f0:	89 e5                	mov    %esp,%ebp
 80494f2:	83 ec 28             	sub    $0x28,%esp
 80494f5:	8b 45 08             	mov    0x8(%ebp),%eax
 80494f8:	8b 40 14             	mov    0x14(%eax),%eax
 80494fb:	83 ec 0c             	sub    $0xc,%esp
 80494fe:	50                   	push   %eax
 80494ff:	e8 cf fb ff ff       	call   80490d3 <Specifier>
 8049504:	83 c4 10             	add    $0x10,%esp
 8049507:	89 45 e4             	mov    %eax,-0x1c(%ebp)
 804950a:	8b 45 08             	mov    0x8(%ebp),%eax
 804950d:	8b 40 18             	mov    0x18(%eax),%eax
 8049510:	83 ec 08             	sub    $0x8,%esp
 8049513:	50                   	push   %eax
 8049514:	ff 75 e4             	pushl  -0x1c(%ebp)
 8049517:	e8 3f fe ff ff       	call   804935b <VarDec>
 804951c:	83 c4 10             	add    $0x10,%esp
 804951f:	89 45 e8             	mov    %eax,-0x18(%ebp)
 8049522:	83 7d 0c 01          	cmpl   $0x1,0xc(%ebp)
 8049526:	75 42                	jne    804956a <ParamDec+0x7b>
 8049528:	83 ec 0c             	sub    $0xc,%esp
 804952b:	ff 75 e8             	pushl  -0x18(%ebp)
 804952e:	e8 0b 97 00 00       	call   8052c3e <insertTable>
 8049533:	83 c4 10             	add    $0x10,%esp
 8049536:	89 45 ec             	mov    %eax,-0x14(%ebp)
 8049539:	83 7d ec 01          	cmpl   $0x1,-0x14(%ebp)
 804953d:	75 2b                	jne    804956a <ParamDec+0x7b>
 804953f:	a1 20 81 05 08       	mov    0x8058120,%eax
 8049544:	83 c0 01             	add    $0x1,%eax
 8049547:	a3 20 81 05 08       	mov    %eax,0x8058120
 804954c:	8b 45 e8             	mov    -0x18(%ebp),%eax
 804954f:	8b 50 04             	mov    0x4(%eax),%edx
 8049552:	8b 45 e8             	mov    -0x18(%ebp),%eax
 8049555:	8b 40 08             	mov    0x8(%eax),%eax
 8049558:	83 ec 04             	sub    $0x4,%esp
 804955b:	52                   	push   %edx
 804955c:	50                   	push   %eax
 804955d:	68 08 36 05 08       	push   $0x8053608
 8049562:	e8 59 f2 ff ff       	call   80487c0 <printf@plt>
 8049567:	83 c4 10             	add    $0x10,%esp
 804956a:	83 ec 0c             	sub    $0xc,%esp
 804956d:	6a 0c                	push   $0xc
 804956f:	e8 0c f3 ff ff       	call   8048880 <malloc@plt>
 8049574:	83 c4 10             	add    $0x10,%esp
 8049577:	89 45 f0             	mov    %eax,-0x10(%ebp)
 804957a:	8b 45 e8             	mov    -0x18(%ebp),%eax
 804957d:	8b 40 04             	mov    0x4(%eax),%eax
 8049580:	83 ec 0c             	sub    $0xc,%esp
 8049583:	50                   	push   %eax
 8049584:	e8 27 f3 ff ff       	call   80488b0 <strlen@plt>
 8049589:	83 c4 10             	add    $0x10,%esp
 804958c:	89 45 f4             	mov    %eax,-0xc(%ebp)
 804958f:	8b 45 f4             	mov    -0xc(%ebp),%eax
 8049592:	83 c0 01             	add    $0x1,%eax
 8049595:	83 ec 0c             	sub    $0xc,%esp
 8049598:	50                   	push   %eax
 8049599:	e8 e2 f2 ff ff       	call   8048880 <malloc@plt>
 804959e:	83 c4 10             	add    $0x10,%esp
 80495a1:	89 c2                	mov    %eax,%edx
 80495a3:	8b 45 f0             	mov    -0x10(%ebp),%eax
 80495a6:	89 10                	mov    %edx,(%eax)
 80495a8:	8b 45 e8             	mov    -0x18(%ebp),%eax
 80495ab:	8b 50 04             	mov    0x4(%eax),%edx
 80495ae:	8b 45 f0             	mov    -0x10(%ebp),%eax
 80495b1:	8b 00                	mov    (%eax),%eax
 80495b3:	83 ec 08             	sub    $0x8,%esp
 80495b6:	52                   	push   %edx
 80495b7:	50                   	push   %eax
 80495b8:	e8 a3 f2 ff ff       	call   8048860 <strcpy@plt>
 80495bd:	83 c4 10             	add    $0x10,%esp
 80495c0:	8b 45 e8             	mov    -0x18(%ebp),%eax
 80495c3:	8b 50 0c             	mov    0xc(%eax),%edx
 80495c6:	8b 45 f0             	mov    -0x10(%ebp),%eax
 80495c9:	89 50 04             	mov    %edx,0x4(%eax)
 80495cc:	8b 45 f0             	mov    -0x10(%ebp),%eax
 80495cf:	c7 40 08 00 00 00 00 	movl   $0x0,0x8(%eax)
 80495d6:	8b 45 f0             	mov    -0x10(%ebp),%eax
 80495d9:	c9                   	leave  
 80495da:	c3                   	ret    

080495db <CompSt>:
 80495db:	55                   	push   %ebp
 80495dc:	89 e5                	mov    %esp,%ebp
 80495de:	83 ec 18             	sub    $0x18,%esp
 80495e1:	83 ec 0c             	sub    $0xc,%esp
 80495e4:	6a 0c                	push   $0xc
 80495e6:	e8 95 f2 ff ff       	call   8048880 <malloc@plt>
 80495eb:	83 c4 10             	add    $0x10,%esp
 80495ee:	89 45 f4             	mov    %eax,-0xc(%ebp)
 80495f1:	8b 45 f4             	mov    -0xc(%ebp),%eax
 80495f4:	c7 40 08 00 00 00 00 	movl   $0x0,0x8(%eax)
 80495fb:	8b 45 f4             	mov    -0xc(%ebp),%eax
 80495fe:	c7 40 04 00 00 00 00 	movl   $0x0,0x4(%eax)
 8049605:	8b 45 f4             	mov    -0xc(%ebp),%eax
 8049608:	c7 00 00 00 00 00    	movl   $0x0,(%eax)
 804960e:	8b 45 08             	mov    0x8(%ebp),%eax
 8049611:	8b 40 18             	mov    0x18(%eax),%eax
 8049614:	83 ec 04             	sub    $0x4,%esp
 8049617:	ff 75 f4             	pushl  -0xc(%ebp)
 804961a:	6a 01                	push   $0x1
 804961c:	50                   	push   %eax
 804961d:	e8 84 02 00 00       	call   80498a6 <DefList>
 8049622:	83 c4 10             	add    $0x10,%esp
 8049625:	8b 45 08             	mov    0x8(%ebp),%eax
 8049628:	8b 40 1c             	mov    0x1c(%eax),%eax
 804962b:	83 ec 0c             	sub    $0xc,%esp
 804962e:	50                   	push   %eax
 804962f:	e8 06 00 00 00       	call   804963a <StmtList>
 8049634:	83 c4 10             	add    $0x10,%esp
 8049637:	90                   	nop
 8049638:	c9                   	leave  
 8049639:	c3                   	ret    

0804963a <StmtList>:
 804963a:	55                   	push   %ebp
 804963b:	89 e5                	mov    %esp,%ebp
 804963d:	83 ec 08             	sub    $0x8,%esp
 8049640:	83 7d 08 00          	cmpl   $0x0,0x8(%ebp)
 8049644:	74 31                	je     8049677 <StmtList+0x3d>
 8049646:	8b 45 08             	mov    0x8(%ebp),%eax
 8049649:	8b 40 10             	mov    0x10(%eax),%eax
 804964c:	83 f8 02             	cmp    $0x2,%eax
 804964f:	75 27                	jne    8049678 <StmtList+0x3e>
 8049651:	8b 45 08             	mov    0x8(%ebp),%eax
 8049654:	8b 40 14             	mov    0x14(%eax),%eax
 8049657:	83 ec 0c             	sub    $0xc,%esp
 804965a:	50                   	push   %eax
 804965b:	e8 1a 00 00 00       	call   804967a <Stmt>
 8049660:	83 c4 10             	add    $0x10,%esp
 8049663:	8b 45 08             	mov    0x8(%ebp),%eax
 8049666:	8b 40 18             	mov    0x18(%eax),%eax
 8049669:	83 ec 0c             	sub    $0xc,%esp
 804966c:	50                   	push   %eax
 804966d:	e8 c8 ff ff ff       	call   804963a <StmtList>
 8049672:	83 c4 10             	add    $0x10,%esp
 8049675:	eb 01                	jmp    8049678 <StmtList+0x3e>
 8049677:	90                   	nop
 8049678:	c9                   	leave  
 8049679:	c3                   	ret    

0804967a <Stmt>:
 804967a:	55                   	push   %ebp
 804967b:	89 e5                	mov    %esp,%ebp
 804967d:	83 ec 18             	sub    $0x18,%esp
 8049680:	8b 45 08             	mov    0x8(%ebp),%eax
 8049683:	8b 40 14             	mov    0x14(%eax),%eax
 8049686:	89 45 f0             	mov    %eax,-0x10(%ebp)
 8049689:	c7 45 f4 00 00 00 00 	movl   $0x0,-0xc(%ebp)
 8049690:	8b 45 f0             	mov    -0x10(%ebp),%eax
 8049693:	8b 40 04             	mov    0x4(%eax),%eax
 8049696:	83 e8 1b             	sub    $0x1b,%eax
 8049699:	83 f8 17             	cmp    $0x17,%eax
 804969c:	0f 87 e4 01 00 00    	ja     8049886 <Stmt+0x20c>
 80496a2:	8b 04 85 18 37 05 08 	mov    0x8053718(,%eax,4),%eax
 80496a9:	ff e0                	jmp    *%eax
 80496ab:	83 ec 0c             	sub    $0xc,%esp
 80496ae:	ff 75 f0             	pushl  -0x10(%ebp)
 80496b1:	e8 7d 04 00 00       	call   8049b33 <Exp>
 80496b6:	83 c4 10             	add    $0x10,%esp
 80496b9:	e9 e5 01 00 00       	jmp    80498a3 <Stmt+0x229>
 80496be:	83 ec 0c             	sub    $0xc,%esp
 80496c1:	ff 75 f0             	pushl  -0x10(%ebp)
 80496c4:	e8 12 ff ff ff       	call   80495db <CompSt>
 80496c9:	83 c4 10             	add    $0x10,%esp
 80496cc:	e9 d2 01 00 00       	jmp    80498a3 <Stmt+0x229>
 80496d1:	a1 54 81 05 08       	mov    0x8058154,%eax
 80496d6:	85 c0                	test   %eax,%eax
 80496d8:	75 40                	jne    804971a <Stmt+0xa0>
 80496da:	a1 20 81 05 08       	mov    0x8058120,%eax
 80496df:	83 c0 01             	add    $0x1,%eax
 80496e2:	a3 20 81 05 08       	mov    %eax,0x8058120
 80496e7:	8b 45 08             	mov    0x8(%ebp),%eax
 80496ea:	8b 00                	mov    (%eax),%eax
 80496ec:	68 bd 36 05 08       	push   $0x80536bd
 80496f1:	50                   	push   %eax
 80496f2:	6a 08                	push   $0x8
 80496f4:	68 d9 36 05 08       	push   $0x80536d9
 80496f9:	e8 c2 f0 ff ff       	call   80487c0 <printf@plt>
 80496fe:	83 c4 10             	add    $0x10,%esp
 8049701:	68 24 3b 05 08       	push   $0x8053b24
 8049706:	68 44 01 00 00       	push   $0x144
 804970b:	68 45 36 05 08       	push   $0x8053645
 8049710:	68 4f 36 05 08       	push   $0x805364f
 8049715:	e8 a6 f2 ff ff       	call   80489c0 <__assert_fail@plt>
 804971a:	8b 45 08             	mov    0x8(%ebp),%eax
 804971d:	8b 40 18             	mov    0x18(%eax),%eax
 8049720:	83 ec 0c             	sub    $0xc,%esp
 8049723:	50                   	push   %eax
 8049724:	e8 0a 04 00 00       	call   8049b33 <Exp>
 8049729:	83 c4 10             	add    $0x10,%esp
 804972c:	89 45 f4             	mov    %eax,-0xc(%ebp)
 804972f:	a1 54 81 05 08       	mov    0x8058154,%eax
 8049734:	8b 00                	mov    (%eax),%eax
 8049736:	83 ec 08             	sub    $0x8,%esp
 8049739:	ff 75 f4             	pushl  -0xc(%ebp)
 804973c:	50                   	push   %eax
 804973d:	e8 f1 97 00 00       	call   8052f33 <compareType>
 8049742:	83 c4 10             	add    $0x10,%esp
 8049745:	85 c0                	test   %eax,%eax
 8049747:	0f 85 52 01 00 00    	jne    804989f <Stmt+0x225>
 804974d:	a1 20 81 05 08       	mov    0x8058120,%eax
 8049752:	83 c0 01             	add    $0x1,%eax
 8049755:	a3 20 81 05 08       	mov    %eax,0x8058120
 804975a:	8b 45 08             	mov    0x8(%ebp),%eax
 804975d:	8b 00                	mov    (%eax),%eax
 804975f:	68 bd 36 05 08       	push   $0x80536bd
 8049764:	50                   	push   %eax
 8049765:	6a 08                	push   $0x8
 8049767:	68 d9 36 05 08       	push   $0x80536d9
 804976c:	e8 4f f0 ff ff       	call   80487c0 <printf@plt>
 8049771:	83 c4 10             	add    $0x10,%esp
 8049774:	e9 26 01 00 00       	jmp    804989f <Stmt+0x225>
 8049779:	8b 45 08             	mov    0x8(%ebp),%eax
 804977c:	8b 40 1c             	mov    0x1c(%eax),%eax
 804977f:	83 ec 0c             	sub    $0xc,%esp
 8049782:	50                   	push   %eax
 8049783:	e8 ab 03 00 00       	call   8049b33 <Exp>
 8049788:	83 c4 10             	add    $0x10,%esp
 804978b:	89 45 f4             	mov    %eax,-0xc(%ebp)
 804978e:	83 7d f4 00          	cmpl   $0x0,-0xc(%ebp)
 8049792:	74 3d                	je     80497d1 <Stmt+0x157>
 8049794:	8b 45 f4             	mov    -0xc(%ebp),%eax
 8049797:	8b 00                	mov    (%eax),%eax
 8049799:	85 c0                	test   %eax,%eax
 804979b:	75 0a                	jne    80497a7 <Stmt+0x12d>
 804979d:	8b 45 f4             	mov    -0xc(%ebp),%eax
 80497a0:	8b 40 04             	mov    0x4(%eax),%eax
 80497a3:	85 c0                	test   %eax,%eax
 80497a5:	74 2a                	je     80497d1 <Stmt+0x157>
 80497a7:	a1 20 81 05 08       	mov    0x8058120,%eax
 80497ac:	83 c0 01             	add    $0x1,%eax
 80497af:	a3 20 81 05 08       	mov    %eax,0x8058120
 80497b4:	8b 45 08             	mov    0x8(%ebp),%eax
 80497b7:	8b 40 1c             	mov    0x1c(%eax),%eax
 80497ba:	8b 00                	mov    (%eax),%eax
 80497bc:	68 f8 36 05 08       	push   $0x80536f8
 80497c1:	50                   	push   %eax
 80497c2:	6a 07                	push   $0x7
 80497c4:	68 d9 36 05 08       	push   $0x80536d9
 80497c9:	e8 f2 ef ff ff       	call   80487c0 <printf@plt>
 80497ce:	83 c4 10             	add    $0x10,%esp
 80497d1:	8b 45 08             	mov    0x8(%ebp),%eax
 80497d4:	8b 40 24             	mov    0x24(%eax),%eax
 80497d7:	83 ec 0c             	sub    $0xc,%esp
 80497da:	50                   	push   %eax
 80497db:	e8 9a fe ff ff       	call   804967a <Stmt>
 80497e0:	83 c4 10             	add    $0x10,%esp
 80497e3:	8b 45 08             	mov    0x8(%ebp),%eax
 80497e6:	8b 40 2c             	mov    0x2c(%eax),%eax
 80497e9:	85 c0                	test   %eax,%eax
 80497eb:	0f 84 b1 00 00 00    	je     80498a2 <Stmt+0x228>
 80497f1:	8b 45 08             	mov    0x8(%ebp),%eax
 80497f4:	8b 40 2c             	mov    0x2c(%eax),%eax
 80497f7:	8b 40 04             	mov    0x4(%eax),%eax
 80497fa:	83 f8 2d             	cmp    $0x2d,%eax
 80497fd:	0f 85 9f 00 00 00    	jne    80498a2 <Stmt+0x228>
 8049803:	8b 45 08             	mov    0x8(%ebp),%eax
 8049806:	8b 40 2c             	mov    0x2c(%eax),%eax
 8049809:	83 ec 0c             	sub    $0xc,%esp
 804980c:	50                   	push   %eax
 804980d:	e8 68 fe ff ff       	call   804967a <Stmt>
 8049812:	83 c4 10             	add    $0x10,%esp
 8049815:	e9 88 00 00 00       	jmp    80498a2 <Stmt+0x228>
 804981a:	8b 45 08             	mov    0x8(%ebp),%eax
 804981d:	8b 40 1c             	mov    0x1c(%eax),%eax
 8049820:	83 ec 0c             	sub    $0xc,%esp
 8049823:	50                   	push   %eax
 8049824:	e8 0a 03 00 00       	call   8049b33 <Exp>
 8049829:	83 c4 10             	add    $0x10,%esp
 804982c:	89 45 f4             	mov    %eax,-0xc(%ebp)
 804982f:	83 7d f4 00          	cmpl   $0x0,-0xc(%ebp)
 8049833:	74 3d                	je     8049872 <Stmt+0x1f8>
 8049835:	8b 45 f4             	mov    -0xc(%ebp),%eax
 8049838:	8b 00                	mov    (%eax),%eax
 804983a:	85 c0                	test   %eax,%eax
 804983c:	75 0a                	jne    8049848 <Stmt+0x1ce>
 804983e:	8b 45 f4             	mov    -0xc(%ebp),%eax
 8049841:	8b 40 04             	mov    0x4(%eax),%eax
 8049844:	85 c0                	test   %eax,%eax
 8049846:	74 2a                	je     8049872 <Stmt+0x1f8>
 8049848:	a1 20 81 05 08       	mov    0x8058120,%eax
 804984d:	83 c0 01             	add    $0x1,%eax
 8049850:	a3 20 81 05 08       	mov    %eax,0x8058120
 8049855:	8b 45 08             	mov    0x8(%ebp),%eax
 8049858:	8b 40 1c             	mov    0x1c(%eax),%eax
 804985b:	8b 00                	mov    (%eax),%eax
 804985d:	68 f8 36 05 08       	push   $0x80536f8
 8049862:	50                   	push   %eax
 8049863:	6a 07                	push   $0x7
 8049865:	68 d9 36 05 08       	push   $0x80536d9
 804986a:	e8 51 ef ff ff       	call   80487c0 <printf@plt>
 804986f:	83 c4 10             	add    $0x10,%esp
 8049872:	8b 45 08             	mov    0x8(%ebp),%eax
 8049875:	8b 40 24             	mov    0x24(%eax),%eax
 8049878:	83 ec 0c             	sub    $0xc,%esp
 804987b:	50                   	push   %eax
 804987c:	e8 f9 fd ff ff       	call   804967a <Stmt>
 8049881:	83 c4 10             	add    $0x10,%esp
 8049884:	eb 1d                	jmp    80498a3 <Stmt+0x229>
 8049886:	68 24 3b 05 08       	push   $0x8053b24
 804988b:	68 5f 01 00 00       	push   $0x15f
 8049890:	68 45 36 05 08       	push   $0x8053645
 8049895:	68 4f 36 05 08       	push   $0x805364f
 804989a:	e8 21 f1 ff ff       	call   80489c0 <__assert_fail@plt>
 804989f:	90                   	nop
 80498a0:	eb 01                	jmp    80498a3 <Stmt+0x229>
 80498a2:	90                   	nop
 80498a3:	90                   	nop
 80498a4:	c9                   	leave  
 80498a5:	c3                   	ret    

080498a6 <DefList>:
 80498a6:	55                   	push   %ebp
 80498a7:	89 e5                	mov    %esp,%ebp
 80498a9:	83 ec 18             	sub    $0x18,%esp
 80498ac:	83 7d 08 00          	cmpl   $0x0,0x8(%ebp)
 80498b0:	75 07                	jne    80498b9 <DefList+0x13>
 80498b2:	b8 00 00 00 00       	mov    $0x0,%eax
 80498b7:	eb 59                	jmp    8049912 <DefList+0x6c>
 80498b9:	8b 45 08             	mov    0x8(%ebp),%eax
 80498bc:	8b 40 14             	mov    0x14(%eax),%eax
 80498bf:	83 ec 04             	sub    $0x4,%esp
 80498c2:	ff 75 10             	pushl  0x10(%ebp)
 80498c5:	ff 75 0c             	pushl  0xc(%ebp)
 80498c8:	50                   	push   %eax
 80498c9:	e8 46 00 00 00       	call   8049914 <Def>
 80498ce:	83 c4 10             	add    $0x10,%esp
 80498d1:	8b 45 08             	mov    0x8(%ebp),%eax
 80498d4:	8b 40 10             	mov    0x10(%eax),%eax
 80498d7:	83 f8 02             	cmp    $0x2,%eax
 80498da:	75 33                	jne    804990f <DefList+0x69>
 80498dc:	8b 45 10             	mov    0x10(%ebp),%eax
 80498df:	89 45 f4             	mov    %eax,-0xc(%ebp)
 80498e2:	eb 09                	jmp    80498ed <DefList+0x47>
 80498e4:	8b 45 f4             	mov    -0xc(%ebp),%eax
 80498e7:	8b 40 08             	mov    0x8(%eax),%eax
 80498ea:	89 45 f4             	mov    %eax,-0xc(%ebp)
 80498ed:	8b 45 f4             	mov    -0xc(%ebp),%eax
 80498f0:	8b 40 08             	mov    0x8(%eax),%eax
 80498f3:	85 c0                	test   %eax,%eax
 80498f5:	75 ed                	jne    80498e4 <DefList+0x3e>
 80498f7:	8b 45 08             	mov    0x8(%ebp),%eax
 80498fa:	8b 40 18             	mov    0x18(%eax),%eax
 80498fd:	83 ec 04             	sub    $0x4,%esp
 8049900:	ff 75 10             	pushl  0x10(%ebp)
 8049903:	ff 75 0c             	pushl  0xc(%ebp)
 8049906:	50                   	push   %eax
 8049907:	e8 9a ff ff ff       	call   80498a6 <DefList>
 804990c:	83 c4 10             	add    $0x10,%esp
 804990f:	8b 45 10             	mov    0x10(%ebp),%eax
 8049912:	c9                   	leave  
 8049913:	c3                   	ret    

08049914 <Def>:
 8049914:	55                   	push   %ebp
 8049915:	89 e5                	mov    %esp,%ebp
 8049917:	83 ec 18             	sub    $0x18,%esp
 804991a:	8b 45 08             	mov    0x8(%ebp),%eax
 804991d:	8b 40 14             	mov    0x14(%eax),%eax
 8049920:	83 ec 0c             	sub    $0xc,%esp
 8049923:	50                   	push   %eax
 8049924:	e8 aa f7 ff ff       	call   80490d3 <Specifier>
 8049929:	83 c4 10             	add    $0x10,%esp
 804992c:	89 45 f4             	mov    %eax,-0xc(%ebp)
 804992f:	8b 45 08             	mov    0x8(%ebp),%eax
 8049932:	8b 40 18             	mov    0x18(%eax),%eax
 8049935:	ff 75 10             	pushl  0x10(%ebp)
 8049938:	ff 75 0c             	pushl  0xc(%ebp)
 804993b:	ff 75 f4             	pushl  -0xc(%ebp)
 804993e:	50                   	push   %eax
 804993f:	e8 05 00 00 00       	call   8049949 <DecList>
 8049944:	83 c4 10             	add    $0x10,%esp
 8049947:	c9                   	leave  
 8049948:	c3                   	ret    

08049949 <DecList>:
 8049949:	55                   	push   %ebp
 804994a:	89 e5                	mov    %esp,%ebp
 804994c:	83 ec 18             	sub    $0x18,%esp
 804994f:	8b 45 08             	mov    0x8(%ebp),%eax
 8049952:	8b 40 14             	mov    0x14(%eax),%eax
 8049955:	ff 75 14             	pushl  0x14(%ebp)
 8049958:	ff 75 10             	pushl  0x10(%ebp)
 804995b:	ff 75 0c             	pushl  0xc(%ebp)
 804995e:	50                   	push   %eax
 804995f:	e8 2e 00 00 00       	call   8049992 <Dec>
 8049964:	83 c4 10             	add    $0x10,%esp
 8049967:	89 45 f4             	mov    %eax,-0xc(%ebp)
 804996a:	8b 45 08             	mov    0x8(%ebp),%eax
 804996d:	8b 40 10             	mov    0x10(%eax),%eax
 8049970:	83 f8 03             	cmp    $0x3,%eax
 8049973:	75 18                	jne    804998d <DecList+0x44>
 8049975:	8b 45 08             	mov    0x8(%ebp),%eax
 8049978:	8b 40 1c             	mov    0x1c(%eax),%eax
 804997b:	ff 75 14             	pushl  0x14(%ebp)
 804997e:	ff 75 10             	pushl  0x10(%ebp)
 8049981:	ff 75 0c             	pushl  0xc(%ebp)
 8049984:	50                   	push   %eax
 8049985:	e8 bf ff ff ff       	call   8049949 <DecList>
 804998a:	83 c4 10             	add    $0x10,%esp
 804998d:	8b 45 14             	mov    0x14(%ebp),%eax
 8049990:	c9                   	leave  
 8049991:	c3                   	ret    

08049992 <Dec>:
 8049992:	55                   	push   %ebp
 8049993:	89 e5                	mov    %esp,%ebp
 8049995:	83 ec 28             	sub    $0x28,%esp
 8049998:	8b 45 08             	mov    0x8(%ebp),%eax
 804999b:	8b 40 14             	mov    0x14(%eax),%eax
 804999e:	89 45 e4             	mov    %eax,-0x1c(%ebp)
 80499a1:	83 ec 08             	sub    $0x8,%esp
 80499a4:	ff 75 e4             	pushl  -0x1c(%ebp)
 80499a7:	ff 75 0c             	pushl  0xc(%ebp)
 80499aa:	e8 ac f9 ff ff       	call   804935b <VarDec>
 80499af:	83 c4 10             	add    $0x10,%esp
 80499b2:	89 45 e8             	mov    %eax,-0x18(%ebp)
 80499b5:	83 7d 10 01          	cmpl   $0x1,0x10(%ebp)
 80499b9:	75 42                	jne    80499fd <Dec+0x6b>
 80499bb:	83 ec 0c             	sub    $0xc,%esp
 80499be:	ff 75 e8             	pushl  -0x18(%ebp)
 80499c1:	e8 78 92 00 00       	call   8052c3e <insertTable>
 80499c6:	83 c4 10             	add    $0x10,%esp
 80499c9:	89 45 ec             	mov    %eax,-0x14(%ebp)
 80499cc:	83 7d ec 01          	cmpl   $0x1,-0x14(%ebp)
 80499d0:	75 2b                	jne    80499fd <Dec+0x6b>
 80499d2:	a1 20 81 05 08       	mov    0x8058120,%eax
 80499d7:	83 c0 01             	add    $0x1,%eax
 80499da:	a3 20 81 05 08       	mov    %eax,0x8058120
 80499df:	8b 45 e8             	mov    -0x18(%ebp),%eax
 80499e2:	8b 50 04             	mov    0x4(%eax),%edx
 80499e5:	8b 45 e8             	mov    -0x18(%ebp),%eax
 80499e8:	8b 40 08             	mov    0x8(%eax),%eax
 80499eb:	83 ec 04             	sub    $0x4,%esp
 80499ee:	52                   	push   %edx
 80499ef:	50                   	push   %eax
 80499f0:	68 08 36 05 08       	push   $0x8053608
 80499f5:	e8 c6 ed ff ff       	call   80487c0 <printf@plt>
 80499fa:	83 c4 10             	add    $0x10,%esp
 80499fd:	83 ec 0c             	sub    $0xc,%esp
 8049a00:	6a 0c                	push   $0xc
 8049a02:	e8 79 ee ff ff       	call   8048880 <malloc@plt>
 8049a07:	83 c4 10             	add    $0x10,%esp
 8049a0a:	89 45 f0             	mov    %eax,-0x10(%ebp)
 8049a0d:	8b 45 e8             	mov    -0x18(%ebp),%eax
 8049a10:	8b 50 04             	mov    0x4(%eax),%edx
 8049a13:	8b 45 f0             	mov    -0x10(%ebp),%eax
 8049a16:	89 10                	mov    %edx,(%eax)
 8049a18:	8b 45 e8             	mov    -0x18(%ebp),%eax
 8049a1b:	8b 50 0c             	mov    0xc(%eax),%edx
 8049a1e:	8b 45 f0             	mov    -0x10(%ebp),%eax
 8049a21:	89 50 04             	mov    %edx,0x4(%eax)
 8049a24:	8b 45 f0             	mov    -0x10(%ebp),%eax
 8049a27:	c7 40 08 00 00 00 00 	movl   $0x0,0x8(%eax)
 8049a2e:	8b 45 14             	mov    0x14(%ebp),%eax
 8049a31:	89 45 e0             	mov    %eax,-0x20(%ebp)
 8049a34:	83 7d 10 00          	cmpl   $0x0,0x10(%ebp)
 8049a38:	75 6b                	jne    8049aa5 <Dec+0x113>
 8049a3a:	83 7d e0 00          	cmpl   $0x0,-0x20(%ebp)
 8049a3e:	74 65                	je     8049aa5 <Dec+0x113>
 8049a40:	eb 50                	jmp    8049a92 <Dec+0x100>
 8049a42:	8b 45 e8             	mov    -0x18(%ebp),%eax
 8049a45:	8b 50 04             	mov    0x4(%eax),%edx
 8049a48:	8b 45 e0             	mov    -0x20(%ebp),%eax
 8049a4b:	8b 00                	mov    (%eax),%eax
 8049a4d:	83 ec 08             	sub    $0x8,%esp
 8049a50:	52                   	push   %edx
 8049a51:	50                   	push   %eax
 8049a52:	e8 59 ed ff ff       	call   80487b0 <strcmp@plt>
 8049a57:	83 c4 10             	add    $0x10,%esp
 8049a5a:	85 c0                	test   %eax,%eax
 8049a5c:	75 2b                	jne    8049a89 <Dec+0xf7>
 8049a5e:	a1 20 81 05 08       	mov    0x8058120,%eax
 8049a63:	83 c0 01             	add    $0x1,%eax
 8049a66:	a3 20 81 05 08       	mov    %eax,0x8058120
 8049a6b:	8b 45 e8             	mov    -0x18(%ebp),%eax
 8049a6e:	8b 50 04             	mov    0x4(%eax),%edx
 8049a71:	8b 45 e8             	mov    -0x18(%ebp),%eax
 8049a74:	8b 40 08             	mov    0x8(%eax),%eax
 8049a77:	83 ec 04             	sub    $0x4,%esp
 8049a7a:	52                   	push   %edx
 8049a7b:	50                   	push   %eax
 8049a7c:	68 78 37 05 08       	push   $0x8053778
 8049a81:	e8 3a ed ff ff       	call   80487c0 <printf@plt>
 8049a86:	83 c4 10             	add    $0x10,%esp
 8049a89:	8b 45 e0             	mov    -0x20(%ebp),%eax
 8049a8c:	8b 40 08             	mov    0x8(%eax),%eax
 8049a8f:	89 45 e0             	mov    %eax,-0x20(%ebp)
 8049a92:	8b 45 e0             	mov    -0x20(%ebp),%eax
 8049a95:	8b 40 08             	mov    0x8(%eax),%eax
 8049a98:	85 c0                	test   %eax,%eax
 8049a9a:	75 a6                	jne    8049a42 <Dec+0xb0>
 8049a9c:	8b 45 e0             	mov    -0x20(%ebp),%eax
 8049a9f:	8b 55 f0             	mov    -0x10(%ebp),%edx
 8049aa2:	89 50 08             	mov    %edx,0x8(%eax)
 8049aa5:	8b 45 08             	mov    0x8(%ebp),%eax
 8049aa8:	8b 40 10             	mov    0x10(%eax),%eax
 8049aab:	83 f8 03             	cmp    $0x3,%eax
 8049aae:	75 7e                	jne    8049b2e <Dec+0x19c>
 8049ab0:	8b 45 08             	mov    0x8(%ebp),%eax
 8049ab3:	8b 40 1c             	mov    0x1c(%eax),%eax
 8049ab6:	83 ec 0c             	sub    $0xc,%esp
 8049ab9:	50                   	push   %eax
 8049aba:	e8 74 00 00 00       	call   8049b33 <Exp>
 8049abf:	83 c4 10             	add    $0x10,%esp
 8049ac2:	89 45 f4             	mov    %eax,-0xc(%ebp)
 8049ac5:	83 ec 08             	sub    $0x8,%esp
 8049ac8:	ff 75 f4             	pushl  -0xc(%ebp)
 8049acb:	ff 75 0c             	pushl  0xc(%ebp)
 8049ace:	e8 60 94 00 00       	call   8052f33 <compareType>
 8049ad3:	83 c4 10             	add    $0x10,%esp
 8049ad6:	85 c0                	test   %eax,%eax
 8049ad8:	75 27                	jne    8049b01 <Dec+0x16f>
 8049ada:	a1 20 81 05 08       	mov    0x8058120,%eax
 8049adf:	83 c0 01             	add    $0x1,%eax
 8049ae2:	a3 20 81 05 08       	mov    %eax,0x8058120
 8049ae7:	8b 45 08             	mov    0x8(%ebp),%eax
 8049aea:	8b 00                	mov    (%eax),%eax
 8049aec:	68 ac 37 05 08       	push   $0x80537ac
 8049af1:	50                   	push   %eax
 8049af2:	6a 05                	push   $0x5
 8049af4:	68 d9 36 05 08       	push   $0x80536d9
 8049af9:	e8 c2 ec ff ff       	call   80487c0 <printf@plt>
 8049afe:	83 c4 10             	add    $0x10,%esp
 8049b01:	83 7d 10 00          	cmpl   $0x0,0x10(%ebp)
 8049b05:	75 27                	jne    8049b2e <Dec+0x19c>
 8049b07:	a1 20 81 05 08       	mov    0x8058120,%eax
 8049b0c:	83 c0 01             	add    $0x1,%eax
 8049b0f:	a3 20 81 05 08       	mov    %eax,0x8058120
 8049b14:	8b 45 08             	mov    0x8(%ebp),%eax
 8049b17:	8b 00                	mov    (%eax),%eax
 8049b19:	68 cc 37 05 08       	push   $0x80537cc
 8049b1e:	50                   	push   %eax
 8049b1f:	6a 0f                	push   $0xf
 8049b21:	68 d9 36 05 08       	push   $0x80536d9
 8049b26:	e8 95 ec ff ff       	call   80487c0 <printf@plt>
 8049b2b:	83 c4 10             	add    $0x10,%esp
 8049b2e:	8b 45 14             	mov    0x14(%ebp),%eax
 8049b31:	c9                   	leave  
 8049b32:	c3                   	ret    

08049b33 <Exp>:
 8049b33:	55                   	push   %ebp
 8049b34:	89 e5                	mov    %esp,%ebp
 8049b36:	83 ec 38             	sub    $0x38,%esp
 8049b39:	83 7d 08 00          	cmpl   $0x0,0x8(%ebp)
 8049b3d:	75 0a                	jne    8049b49 <Exp+0x16>
 8049b3f:	b8 00 00 00 00       	mov    $0x0,%eax
 8049b44:	e9 44 06 00 00       	jmp    804a18d <Exp+0x65a>
 8049b49:	83 ec 0c             	sub    $0xc,%esp
 8049b4c:	ff 75 08             	pushl  0x8(%ebp)
 8049b4f:	e8 e1 f1 ff ff       	call   8048d35 <printTree>
 8049b54:	83 c4 10             	add    $0x10,%esp
 8049b57:	8b 45 08             	mov    0x8(%ebp),%eax
 8049b5a:	8b 40 14             	mov    0x14(%eax),%eax
 8049b5d:	89 45 dc             	mov    %eax,-0x24(%ebp)
 8049b60:	8b 45 08             	mov    0x8(%ebp),%eax
 8049b63:	8b 40 18             	mov    0x18(%eax),%eax
 8049b66:	89 45 e0             	mov    %eax,-0x20(%ebp)
 8049b69:	8b 45 08             	mov    0x8(%ebp),%eax
 8049b6c:	8b 40 1c             	mov    0x1c(%eax),%eax
 8049b6f:	89 45 e4             	mov    %eax,-0x1c(%ebp)
 8049b72:	c7 45 d4 00 00 00 00 	movl   $0x0,-0x2c(%ebp)
 8049b79:	c7 45 e8 00 00 00 00 	movl   $0x0,-0x18(%ebp)
 8049b80:	8b 45 dc             	mov    -0x24(%ebp),%eax
 8049b83:	8b 40 04             	mov    0x4(%eax),%eax
 8049b86:	83 f8 32             	cmp    $0x32,%eax
 8049b89:	0f 87 d0 05 00 00    	ja     804a15f <Exp+0x62c>
 8049b8f:	8b 04 85 10 3a 05 08 	mov    0x8053a10(,%eax,4),%eax
 8049b96:	ff e0                	jmp    *%eax
 8049b98:	83 ec 0c             	sub    $0xc,%esp
 8049b9b:	ff 75 dc             	pushl  -0x24(%ebp)
 8049b9e:	e8 90 ff ff ff       	call   8049b33 <Exp>
 8049ba3:	83 c4 10             	add    $0x10,%esp
 8049ba6:	89 45 d4             	mov    %eax,-0x2c(%ebp)
 8049ba9:	8b 45 e0             	mov    -0x20(%ebp),%eax
 8049bac:	8b 40 04             	mov    0x4(%eax),%eax
 8049baf:	83 f8 0a             	cmp    $0xa,%eax
 8049bb2:	0f 85 bc 00 00 00    	jne    8049c74 <Exp+0x141>
 8049bb8:	83 7d d4 00          	cmpl   $0x0,-0x2c(%ebp)
 8049bbc:	74 45                	je     8049c03 <Exp+0xd0>
 8049bbe:	83 ec 0c             	sub    $0xc,%esp
 8049bc1:	ff 75 dc             	pushl  -0x24(%ebp)
 8049bc4:	e8 c6 05 00 00       	call   804a18f <isLeftVar>
 8049bc9:	83 c4 10             	add    $0x10,%esp
 8049bcc:	85 c0                	test   %eax,%eax
 8049bce:	75 33                	jne    8049c03 <Exp+0xd0>
 8049bd0:	a1 20 81 05 08       	mov    0x8058120,%eax
 8049bd5:	83 c0 01             	add    $0x1,%eax
 8049bd8:	a3 20 81 05 08       	mov    %eax,0x8058120
 8049bdd:	8b 45 08             	mov    0x8(%ebp),%eax
 8049be0:	8b 00                	mov    (%eax),%eax
 8049be2:	68 f8 37 05 08       	push   $0x80537f8
 8049be7:	50                   	push   %eax
 8049be8:	6a 06                	push   $0x6
 8049bea:	68 d9 36 05 08       	push   $0x80536d9
 8049bef:	e8 cc eb ff ff       	call   80487c0 <printf@plt>
 8049bf4:	83 c4 10             	add    $0x10,%esp
 8049bf7:	c7 45 d4 00 00 00 00 	movl   $0x0,-0x2c(%ebp)
 8049bfe:	e9 12 03 00 00       	jmp    8049f15 <Exp+0x3e2>
 8049c03:	83 ec 0c             	sub    $0xc,%esp
 8049c06:	ff 75 e4             	pushl  -0x1c(%ebp)
 8049c09:	e8 25 ff ff ff       	call   8049b33 <Exp>
 8049c0e:	83 c4 10             	add    $0x10,%esp
 8049c11:	89 45 e8             	mov    %eax,-0x18(%ebp)
 8049c14:	83 7d d4 00          	cmpl   $0x0,-0x2c(%ebp)
 8049c18:	0f 84 68 05 00 00    	je     804a186 <Exp+0x653>
 8049c1e:	83 7d e8 00          	cmpl   $0x0,-0x18(%ebp)
 8049c22:	0f 84 5e 05 00 00    	je     804a186 <Exp+0x653>
 8049c28:	83 ec 08             	sub    $0x8,%esp
 8049c2b:	ff 75 e8             	pushl  -0x18(%ebp)
 8049c2e:	ff 75 d4             	pushl  -0x2c(%ebp)
 8049c31:	e8 fd 92 00 00       	call   8052f33 <compareType>
 8049c36:	83 c4 10             	add    $0x10,%esp
 8049c39:	85 c0                	test   %eax,%eax
 8049c3b:	0f 85 45 05 00 00    	jne    804a186 <Exp+0x653>
 8049c41:	a1 20 81 05 08       	mov    0x8058120,%eax
 8049c46:	83 c0 01             	add    $0x1,%eax
 8049c49:	a3 20 81 05 08       	mov    %eax,0x8058120
 8049c4e:	8b 45 08             	mov    0x8(%ebp),%eax
 8049c51:	8b 00                	mov    (%eax),%eax
 8049c53:	68 ac 37 05 08       	push   $0x80537ac
 8049c58:	50                   	push   %eax
 8049c59:	6a 05                	push   $0x5
 8049c5b:	68 d9 36 05 08       	push   $0x80536d9
 8049c60:	e8 5b eb ff ff       	call   80487c0 <printf@plt>
 8049c65:	83 c4 10             	add    $0x10,%esp
 8049c68:	c7 45 d4 00 00 00 00 	movl   $0x0,-0x2c(%ebp)
 8049c6f:	e9 12 05 00 00       	jmp    804a186 <Exp+0x653>
 8049c74:	8b 45 e0             	mov    -0x20(%ebp),%eax
 8049c77:	8b 40 04             	mov    0x4(%eax),%eax
 8049c7a:	83 f8 10             	cmp    $0x10,%eax
 8049c7d:	74 0b                	je     8049c8a <Exp+0x157>
 8049c7f:	8b 45 e0             	mov    -0x20(%ebp),%eax
 8049c82:	8b 40 04             	mov    0x4(%eax),%eax
 8049c85:	83 f8 11             	cmp    $0x11,%eax
 8049c88:	75 6a                	jne    8049cf4 <Exp+0x1c1>
 8049c8a:	83 ec 0c             	sub    $0xc,%esp
 8049c8d:	ff 75 e4             	pushl  -0x1c(%ebp)
 8049c90:	e8 9e fe ff ff       	call   8049b33 <Exp>
 8049c95:	83 c4 10             	add    $0x10,%esp
 8049c98:	89 45 e8             	mov    %eax,-0x18(%ebp)
 8049c9b:	83 7d d4 00          	cmpl   $0x0,-0x2c(%ebp)
 8049c9f:	74 09                	je     8049caa <Exp+0x177>
 8049ca1:	8b 45 d4             	mov    -0x2c(%ebp),%eax
 8049ca4:	8b 00                	mov    (%eax),%eax
 8049ca6:	85 c0                	test   %eax,%eax
 8049ca8:	75 17                	jne    8049cc1 <Exp+0x18e>
 8049caa:	83 7d e8 00          	cmpl   $0x0,-0x18(%ebp)
 8049cae:	0f 84 5a 02 00 00    	je     8049f0e <Exp+0x3db>
 8049cb4:	8b 45 e8             	mov    -0x18(%ebp),%eax
 8049cb7:	8b 00                	mov    (%eax),%eax
 8049cb9:	85 c0                	test   %eax,%eax
 8049cbb:	0f 84 4d 02 00 00    	je     8049f0e <Exp+0x3db>
 8049cc1:	a1 20 81 05 08       	mov    0x8058120,%eax
 8049cc6:	83 c0 01             	add    $0x1,%eax
 8049cc9:	a3 20 81 05 08       	mov    %eax,0x8058120
 8049cce:	8b 45 08             	mov    0x8(%ebp),%eax
 8049cd1:	8b 00                	mov    (%eax),%eax
 8049cd3:	68 30 38 05 08       	push   $0x8053830
 8049cd8:	50                   	push   %eax
 8049cd9:	6a 07                	push   $0x7
 8049cdb:	68 d9 36 05 08       	push   $0x80536d9
 8049ce0:	e8 db ea ff ff       	call   80487c0 <printf@plt>
 8049ce5:	83 c4 10             	add    $0x10,%esp
 8049ce8:	c7 45 d4 00 00 00 00 	movl   $0x0,-0x2c(%ebp)
 8049cef:	e9 1a 02 00 00       	jmp    8049f0e <Exp+0x3db>
 8049cf4:	8b 45 e0             	mov    -0x20(%ebp),%eax
 8049cf7:	8b 40 04             	mov    0x4(%eax),%eax
 8049cfa:	83 f8 0c             	cmp    $0xc,%eax
 8049cfd:	74 2c                	je     8049d2b <Exp+0x1f8>
 8049cff:	8b 45 e0             	mov    -0x20(%ebp),%eax
 8049d02:	8b 40 04             	mov    0x4(%eax),%eax
 8049d05:	83 f8 0d             	cmp    $0xd,%eax
 8049d08:	74 21                	je     8049d2b <Exp+0x1f8>
 8049d0a:	8b 45 e0             	mov    -0x20(%ebp),%eax
 8049d0d:	8b 40 04             	mov    0x4(%eax),%eax
 8049d10:	83 f8 0e             	cmp    $0xe,%eax
 8049d13:	74 16                	je     8049d2b <Exp+0x1f8>
 8049d15:	8b 45 e0             	mov    -0x20(%ebp),%eax
 8049d18:	8b 40 04             	mov    0x4(%eax),%eax
 8049d1b:	83 f8 0f             	cmp    $0xf,%eax
 8049d1e:	74 0b                	je     8049d2b <Exp+0x1f8>
 8049d20:	8b 45 e0             	mov    -0x20(%ebp),%eax
 8049d23:	8b 40 04             	mov    0x4(%eax),%eax
 8049d26:	83 f8 0b             	cmp    $0xb,%eax
 8049d29:	75 70                	jne    8049d9b <Exp+0x268>
 8049d2b:	83 ec 0c             	sub    $0xc,%esp
 8049d2e:	ff 75 e4             	pushl  -0x1c(%ebp)
 8049d31:	e8 fd fd ff ff       	call   8049b33 <Exp>
 8049d36:	83 c4 10             	add    $0x10,%esp
 8049d39:	89 45 e8             	mov    %eax,-0x18(%ebp)
 8049d3c:	83 7d d4 00          	cmpl   $0x0,-0x2c(%ebp)
 8049d40:	0f 84 ce 01 00 00    	je     8049f14 <Exp+0x3e1>
 8049d46:	8b 45 d4             	mov    -0x2c(%ebp),%eax
 8049d49:	8b 00                	mov    (%eax),%eax
 8049d4b:	85 c0                	test   %eax,%eax
 8049d4d:	75 19                	jne    8049d68 <Exp+0x235>
 8049d4f:	83 ec 08             	sub    $0x8,%esp
 8049d52:	ff 75 e8             	pushl  -0x18(%ebp)
 8049d55:	ff 75 d4             	pushl  -0x2c(%ebp)
 8049d58:	e8 d6 91 00 00       	call   8052f33 <compareType>
 8049d5d:	83 c4 10             	add    $0x10,%esp
 8049d60:	85 c0                	test   %eax,%eax
 8049d62:	0f 85 ac 01 00 00    	jne    8049f14 <Exp+0x3e1>
 8049d68:	a1 20 81 05 08       	mov    0x8058120,%eax
 8049d6d:	83 c0 01             	add    $0x1,%eax
 8049d70:	a3 20 81 05 08       	mov    %eax,0x8058120
 8049d75:	8b 45 08             	mov    0x8(%ebp),%eax
 8049d78:	8b 00                	mov    (%eax),%eax
 8049d7a:	68 30 38 05 08       	push   $0x8053830
 8049d7f:	50                   	push   %eax
 8049d80:	6a 07                	push   $0x7
 8049d82:	68 d9 36 05 08       	push   $0x80536d9
 8049d87:	e8 34 ea ff ff       	call   80487c0 <printf@plt>
 8049d8c:	83 c4 10             	add    $0x10,%esp
 8049d8f:	c7 45 d4 00 00 00 00 	movl   $0x0,-0x2c(%ebp)
 8049d96:	e9 79 01 00 00       	jmp    8049f14 <Exp+0x3e1>
 8049d9b:	8b 45 e0             	mov    -0x20(%ebp),%eax
 8049d9e:	8b 40 04             	mov    0x4(%eax),%eax
 8049da1:	83 f8 16             	cmp    $0x16,%eax
 8049da4:	0f 85 a0 00 00 00    	jne    8049e4a <Exp+0x317>
 8049daa:	83 ec 0c             	sub    $0xc,%esp
 8049dad:	ff 75 e4             	pushl  -0x1c(%ebp)
 8049db0:	e8 7e fd ff ff       	call   8049b33 <Exp>
 8049db5:	83 c4 10             	add    $0x10,%esp
 8049db8:	89 45 e8             	mov    %eax,-0x18(%ebp)
 8049dbb:	8b 45 d4             	mov    -0x2c(%ebp),%eax
 8049dbe:	8b 00                	mov    (%eax),%eax
 8049dc0:	83 f8 01             	cmp    $0x1,%eax
 8049dc3:	74 2f                	je     8049df4 <Exp+0x2c1>
 8049dc5:	a1 20 81 05 08       	mov    0x8058120,%eax
 8049dca:	83 c0 01             	add    $0x1,%eax
 8049dcd:	a3 20 81 05 08       	mov    %eax,0x8058120
 8049dd2:	8b 45 dc             	mov    -0x24(%ebp),%eax
 8049dd5:	8b 00                	mov    (%eax),%eax
 8049dd7:	83 ec 08             	sub    $0x8,%esp
 8049dda:	50                   	push   %eax
 8049ddb:	68 50 38 05 08       	push   $0x8053850
 8049de0:	e8 db e9 ff ff       	call   80487c0 <printf@plt>
 8049de5:	83 c4 10             	add    $0x10,%esp
 8049de8:	c7 45 d4 00 00 00 00 	movl   $0x0,-0x2c(%ebp)
 8049def:	e9 92 03 00 00       	jmp    804a186 <Exp+0x653>
 8049df4:	83 7d e8 00          	cmpl   $0x0,-0x18(%ebp)
 8049df8:	74 42                	je     8049e3c <Exp+0x309>
 8049dfa:	8b 45 e8             	mov    -0x18(%ebp),%eax
 8049dfd:	8b 00                	mov    (%eax),%eax
 8049dff:	85 c0                	test   %eax,%eax
 8049e01:	75 0a                	jne    8049e0d <Exp+0x2da>
 8049e03:	8b 45 e8             	mov    -0x18(%ebp),%eax
 8049e06:	8b 40 04             	mov    0x4(%eax),%eax
 8049e09:	85 c0                	test   %eax,%eax
 8049e0b:	74 2f                	je     8049e3c <Exp+0x309>
 8049e0d:	a1 20 81 05 08       	mov    0x8058120,%eax
 8049e12:	83 c0 01             	add    $0x1,%eax
 8049e15:	a3 20 81 05 08       	mov    %eax,0x8058120
 8049e1a:	8b 45 e4             	mov    -0x1c(%ebp),%eax
 8049e1d:	8b 00                	mov    (%eax),%eax
 8049e1f:	83 ec 08             	sub    $0x8,%esp
 8049e22:	50                   	push   %eax
 8049e23:	68 88 38 05 08       	push   $0x8053888
 8049e28:	e8 93 e9 ff ff       	call   80487c0 <printf@plt>
 8049e2d:	83 c4 10             	add    $0x10,%esp
 8049e30:	c7 45 d4 00 00 00 00 	movl   $0x0,-0x2c(%ebp)
 8049e37:	e9 d9 00 00 00       	jmp    8049f15 <Exp+0x3e2>
 8049e3c:	8b 45 d4             	mov    -0x2c(%ebp),%eax
 8049e3f:	8b 40 04             	mov    0x4(%eax),%eax
 8049e42:	89 45 d4             	mov    %eax,-0x2c(%ebp)
 8049e45:	e9 3c 03 00 00       	jmp    804a186 <Exp+0x653>
 8049e4a:	8b 45 e0             	mov    -0x20(%ebp),%eax
 8049e4d:	8b 40 04             	mov    0x4(%eax),%eax
 8049e50:	83 f8 12             	cmp    $0x12,%eax
 8049e53:	0f 85 9c 00 00 00    	jne    8049ef5 <Exp+0x3c2>
 8049e59:	83 7d d4 00          	cmpl   $0x0,-0x2c(%ebp)
 8049e5d:	74 32                	je     8049e91 <Exp+0x35e>
 8049e5f:	8b 45 d4             	mov    -0x2c(%ebp),%eax
 8049e62:	8b 00                	mov    (%eax),%eax
 8049e64:	83 f8 02             	cmp    $0x2,%eax
 8049e67:	74 28                	je     8049e91 <Exp+0x35e>
 8049e69:	a1 20 81 05 08       	mov    0x8058120,%eax
 8049e6e:	83 c0 01             	add    $0x1,%eax
 8049e71:	a3 20 81 05 08       	mov    %eax,0x8058120
 8049e76:	8b 45 e0             	mov    -0x20(%ebp),%eax
 8049e79:	8b 00                	mov    (%eax),%eax
 8049e7b:	83 ec 08             	sub    $0x8,%esp
 8049e7e:	50                   	push   %eax
 8049e7f:	68 c4 38 05 08       	push   $0x80538c4
 8049e84:	e8 37 e9 ff ff       	call   80487c0 <printf@plt>
 8049e89:	83 c4 10             	add    $0x10,%esp
 8049e8c:	e9 84 00 00 00       	jmp    8049f15 <Exp+0x3e2>
 8049e91:	8b 45 e4             	mov    -0x1c(%ebp),%eax
 8049e94:	8b 40 08             	mov    0x8(%eax),%eax
 8049e97:	89 45 ec             	mov    %eax,-0x14(%ebp)
 8049e9a:	8b 45 d4             	mov    -0x2c(%ebp),%eax
 //8049e9d:	8b 40 04             	mov    0x4(%eax),%eax
 8049ea0:	83 ec 08             	sub    $0x8,%esp
 8049ea3:	ff 75 ec             	pushl  -0x14(%ebp)
 8049ea6:	50                   	push   %eax
 8049ea7:	e8 49 90 00 00       	call   8052ef5 <structureField>
 8049eac:	83 c4 10             	add    $0x10,%esp
 8049eaf:	89 45 e8             	mov    %eax,-0x18(%ebp)
 8049eb2:	83 7d e8 00          	cmpl   $0x0,-0x18(%ebp)
 8049eb6:	75 32                	jne    8049eea <Exp+0x3b7>
 8049eb8:	a1 20 81 05 08       	mov    0x8058120,%eax
 8049ebd:	83 c0 01             	add    $0x1,%eax
 8049ec0:	a3 20 81 05 08       	mov    %eax,0x8058120
 8049ec5:	8b 45 e4             	mov    -0x1c(%ebp),%eax
 8049ec8:	8b 00                	mov    (%eax),%eax
 8049eca:	83 ec 04             	sub    $0x4,%esp
 8049ecd:	ff 75 ec             	pushl  -0x14(%ebp)
 8049ed0:	50                   	push   %eax
 8049ed1:	68 f4 38 05 08       	push   $0x80538f4
 8049ed6:	e8 e5 e8 ff ff       	call   80487c0 <printf@plt>
 8049edb:	83 c4 10             	add    $0x10,%esp
 8049ede:	c7 45 d4 00 00 00 00 	movl   $0x0,-0x2c(%ebp)
 8049ee5:	e9 9c 02 00 00       	jmp    804a186 <Exp+0x653>
 8049eea:	8b 45 e8             	mov    -0x18(%ebp),%eax
 8049eed:	89 45 d4             	mov    %eax,-0x2c(%ebp)
 8049ef0:	e9 91 02 00 00       	jmp    804a186 <Exp+0x653>
 8049ef5:	68 2c 3b 05 08       	push   $0x8053b2c
 8049efa:	68 22 02 00 00       	push   $0x222
 8049eff:	68 45 36 05 08       	push   $0x8053645
 8049f04:	68 4f 36 05 08       	push   $0x805364f
 8049f09:	e8 b2 ea ff ff       	call   80489c0 <__assert_fail@plt>
 8049f0e:	90                   	nop
 8049f0f:	e9 72 02 00 00       	jmp    804a186 <Exp+0x653>
 8049f14:	90                   	nop
 8049f15:	e9 6c 02 00 00       	jmp    804a186 <Exp+0x653>
 8049f1a:	83 7d e0 00          	cmpl   $0x0,-0x20(%ebp)
 8049f1e:	75 79                	jne    8049f99 <Exp+0x466>
 8049f20:	8b 45 dc             	mov    -0x24(%ebp),%eax
 8049f23:	8b 40 08             	mov    0x8(%eax),%eax
 8049f26:	83 ec 0c             	sub    $0xc,%esp
 8049f29:	50                   	push   %eax
 8049f2a:	e8 97 8c 00 00       	call   8052bc6 <searchTable>
 8049f2f:	83 c4 10             	add    $0x10,%esp
 8049f32:	89 45 f0             	mov    %eax,-0x10(%ebp)
 8049f35:	83 7d f0 00          	cmpl   $0x0,-0x10(%ebp)
 8049f39:	75 36                	jne    8049f71 <Exp+0x43e>
 8049f3b:	a1 20 81 05 08       	mov    0x8058120,%eax
 8049f40:	83 c0 01             	add    $0x1,%eax
 8049f43:	a3 20 81 05 08       	mov    %eax,0x8058120
 8049f48:	8b 45 dc             	mov    -0x24(%ebp),%eax
 8049f4b:	8b 50 08             	mov    0x8(%eax),%edx
 8049f4e:	8b 45 08             	mov    0x8(%ebp),%eax
 8049f51:	8b 00                	mov    (%eax),%eax
 8049f53:	83 ec 04             	sub    $0x4,%esp
 8049f56:	52                   	push   %edx
 8049f57:	50                   	push   %eax
 8049f58:	68 28 39 05 08       	push   $0x8053928
 8049f5d:	e8 5e e8 ff ff       	call   80487c0 <printf@plt>
 8049f62:	83 c4 10             	add    $0x10,%esp
 8049f65:	c7 45 d4 00 00 00 00 	movl   $0x0,-0x2c(%ebp)
 8049f6c:	e9 18 02 00 00       	jmp    804a189 <Exp+0x656>
 8049f71:	8b 45 f0             	mov    -0x10(%ebp),%eax
 8049f74:	8b 00                	mov    (%eax),%eax
 8049f76:	83 f8 01             	cmp    $0x1,%eax
 8049f79:	75 10                	jne    8049f8b <Exp+0x458>
 8049f7b:	8b 45 f0             	mov    -0x10(%ebp),%eax
 8049f7e:	8b 40 0c             	mov    0xc(%eax),%eax
 8049f81:	8b 00                	mov    (%eax),%eax
 8049f83:	89 45 d4             	mov    %eax,-0x2c(%ebp)
 8049f86:	e9 fe 01 00 00       	jmp    804a189 <Exp+0x656>
 8049f8b:	8b 45 f0             	mov    -0x10(%ebp),%eax
 8049f8e:	8b 40 0c             	mov    0xc(%eax),%eax
 8049f91:	89 45 d4             	mov    %eax,-0x2c(%ebp)
 8049f94:	e9 f0 01 00 00       	jmp    804a189 <Exp+0x656>
 8049f99:	8b 45 e0             	mov    -0x20(%ebp),%eax
 8049f9c:	8b 40 04             	mov    0x4(%eax),%eax
 8049f9f:	83 f8 14             	cmp    $0x14,%eax
 8049fa2:	0f 85 e1 01 00 00    	jne    804a189 <Exp+0x656>
 8049fa8:	8b 45 dc             	mov    -0x24(%ebp),%eax
 8049fab:	8b 40 08             	mov    0x8(%eax),%eax
 8049fae:	83 ec 0c             	sub    $0xc,%esp
 8049fb1:	50                   	push   %eax
 8049fb2:	e8 0f 8c 00 00       	call   8052bc6 <searchTable>
 8049fb7:	83 c4 10             	add    $0x10,%esp
 8049fba:	89 45 f4             	mov    %eax,-0xc(%ebp)
 8049fbd:	83 7d f4 00          	cmpl   $0x0,-0xc(%ebp)
 8049fc1:	75 36                	jne    8049ff9 <Exp+0x4c6>
 8049fc3:	a1 20 81 05 08       	mov    0x8058120,%eax
 8049fc8:	83 c0 01             	add    $0x1,%eax
 8049fcb:	a3 20 81 05 08       	mov    %eax,0x8058120
 8049fd0:	8b 45 dc             	mov    -0x24(%ebp),%eax
 8049fd3:	8b 50 08             	mov    0x8(%eax),%edx
 8049fd6:	8b 45 08             	mov    0x8(%ebp),%eax
 8049fd9:	8b 00                	mov    (%eax),%eax
 8049fdb:	83 ec 04             	sub    $0x4,%esp
 8049fde:	52                   	push   %edx
 8049fdf:	50                   	push   %eax
 8049fe0:	68 5c 39 05 08       	push   $0x805395c
 8049fe5:	e8 d6 e7 ff ff       	call   80487c0 <printf@plt>
 8049fea:	83 c4 10             	add    $0x10,%esp
 8049fed:	c7 45 d4 00 00 00 00 	movl   $0x0,-0x2c(%ebp)
 8049ff4:	e9 90 01 00 00       	jmp    804a189 <Exp+0x656>
 8049ff9:	8b 45 f4             	mov    -0xc(%ebp),%eax
 8049ffc:	8b 00                	mov    (%eax),%eax
 8049ffe:	83 f8 01             	cmp    $0x1,%eax
 804a001:	74 36                	je     804a039 <Exp+0x506>
 804a003:	a1 20 81 05 08       	mov    0x8058120,%eax
 804a008:	83 c0 01             	add    $0x1,%eax
 804a00b:	a3 20 81 05 08       	mov    %eax,0x8058120
 804a010:	8b 45 f4             	mov    -0xc(%ebp),%eax
 804a013:	8b 50 04             	mov    0x4(%eax),%edx
 804a016:	8b 45 dc             	mov    -0x24(%ebp),%eax
 804a019:	8b 00                	mov    (%eax),%eax
 804a01b:	83 ec 04             	sub    $0x4,%esp
 804a01e:	52                   	push   %edx
 804a01f:	50                   	push   %eax
 804a020:	68 90 39 05 08       	push   $0x8053990
 804a025:	e8 96 e7 ff ff       	call   80487c0 <printf@plt>
 804a02a:	83 c4 10             	add    $0x10,%esp
 804a02d:	c7 45 d4 00 00 00 00 	movl   $0x0,-0x2c(%ebp)
 804a034:	e9 50 01 00 00       	jmp    804a189 <Exp+0x656>
 804a039:	c7 45 d8 00 00 00 00 	movl   $0x0,-0x28(%ebp)
 804a040:	8b 45 f4             	mov    -0xc(%ebp),%eax
 804a043:	8b 40 0c             	mov    0xc(%eax),%eax
 804a046:	8b 00                	mov    (%eax),%eax
 804a048:	89 45 d4             	mov    %eax,-0x2c(%ebp)
 804a04b:	8b 45 e4             	mov    -0x1c(%ebp),%eax
 804a04e:	8b 40 04             	mov    0x4(%eax),%eax
 804a051:	83 f8 33             	cmp    $0x33,%eax
 804a054:	75 15                	jne    804a06b <Exp+0x538>
 804a056:	8b 45 08             	mov    0x8(%ebp),%eax
 804a059:	8b 40 1c             	mov    0x1c(%eax),%eax
 804a05c:	83 ec 0c             	sub    $0xc,%esp
 804a05f:	50                   	push   %eax
 804a060:	e8 23 02 00 00       	call   804a288 <Args>
 804a065:	83 c4 10             	add    $0x10,%esp
 804a068:	89 45 d8             	mov    %eax,-0x28(%ebp)
 804a06b:	8b 45 f4             	mov    -0xc(%ebp),%eax
 804a06e:	8b 40 0c             	mov    0xc(%eax),%eax
 804a071:	8b 40 04             	mov    0x4(%eax),%eax
 804a074:	83 ec 08             	sub    $0x8,%esp
 804a077:	50                   	push   %eax
 804a078:	ff 75 d8             	pushl  -0x28(%ebp)
 804a07b:	e8 bf 8f 00 00       	call   805303f <compareArgs>
 804a080:	83 c4 10             	add    $0x10,%esp
 804a083:	85 c0                	test   %eax,%eax
 804a085:	0f 85 fe 00 00 00    	jne    804a189 <Exp+0x656>
 804a08b:	a1 20 81 05 08       	mov    0x8058120,%eax
 804a090:	83 c0 01             	add    $0x1,%eax
 804a093:	a3 20 81 05 08       	mov    %eax,0x8058120
 804a098:	8b 45 dc             	mov    -0x24(%ebp),%eax
 804a09b:	8b 00                	mov    (%eax),%eax
 804a09d:	83 ec 08             	sub    $0x8,%esp
 804a0a0:	50                   	push   %eax
 804a0a1:	68 c4 39 05 08       	push   $0x80539c4
 804a0a6:	e8 15 e7 ff ff       	call   80487c0 <printf@plt>
 804a0ab:	83 c4 10             	add    $0x10,%esp
 804a0ae:	83 ec 0c             	sub    $0xc,%esp
 804a0b1:	ff 75 f4             	pushl  -0xc(%ebp)
 804a0b4:	e8 f5 91 00 00       	call   80532ae <printFuncType>
 804a0b9:	83 c4 10             	add    $0x10,%esp
 804a0bc:	83 ec 0c             	sub    $0xc,%esp
 804a0bf:	68 e8 39 05 08       	push   $0x80539e8
 804a0c4:	e8 f7 e6 ff ff       	call   80487c0 <printf@plt>
 804a0c9:	83 c4 10             	add    $0x10,%esp
 804a0cc:	83 ec 0c             	sub    $0xc,%esp
 804a0cf:	ff 75 d8             	pushl  -0x28(%ebp)
 804a0d2:	e8 5b 90 00 00       	call   8053132 <printFieldList>
 804a0d7:	83 c4 10             	add    $0x10,%esp
 804a0da:	83 ec 0c             	sub    $0xc,%esp
 804a0dd:	68 0c 3a 05 08       	push   $0x8053a0c
 804a0e2:	e8 a9 e7 ff ff       	call   8048890 <puts@plt>
 804a0e7:	83 c4 10             	add    $0x10,%esp
 804a0ea:	e9 9a 00 00 00       	jmp    804a189 <Exp+0x656>
 804a0ef:	83 ec 0c             	sub    $0xc,%esp
 804a0f2:	6a 0c                	push   $0xc
 804a0f4:	e8 87 e7 ff ff       	call   8048880 <malloc@plt>
 804a0f9:	83 c4 10             	add    $0x10,%esp
 804a0fc:	89 45 d4             	mov    %eax,-0x2c(%ebp)
 804a0ff:	8b 45 d4             	mov    -0x2c(%ebp),%eax
 804a102:	c7 00 00 00 00 00    	movl   $0x0,(%eax)
 804a108:	8b 45 d4             	mov    -0x2c(%ebp),%eax
 804a10b:	c7 40 04 00 00 00 00 	movl   $0x0,0x4(%eax)
 804a112:	eb 76                	jmp    804a18a <Exp+0x657>
 804a114:	83 ec 0c             	sub    $0xc,%esp
 804a117:	6a 0c                	push   $0xc
 804a119:	e8 62 e7 ff ff       	call   8048880 <malloc@plt>
 804a11e:	83 c4 10             	add    $0x10,%esp
 804a121:	89 45 d4             	mov    %eax,-0x2c(%ebp)
 804a124:	8b 45 d4             	mov    -0x2c(%ebp),%eax
 804a127:	c7 00 00 00 00 00    	movl   $0x0,(%eax)
 804a12d:	8b 45 d4             	mov    -0x2c(%ebp),%eax
 804a130:	c7 40 04 01 00 00 00 	movl   $0x1,0x4(%eax)
 804a137:	eb 51                	jmp    804a18a <Exp+0x657>
 804a139:	83 ec 0c             	sub    $0xc,%esp
 804a13c:	ff 75 e0             	pushl  -0x20(%ebp)
 804a13f:	e8 ef f9 ff ff       	call   8049b33 <Exp>
 804a144:	83 c4 10             	add    $0x10,%esp
 804a147:	89 45 d4             	mov    %eax,-0x2c(%ebp)
 804a14a:	eb 3e                	jmp    804a18a <Exp+0x657>
 804a14c:	83 ec 0c             	sub    $0xc,%esp
 804a14f:	ff 75 e0             	pushl  -0x20(%ebp)
 804a152:	e8 dc f9 ff ff       	call   8049b33 <Exp>
 804a157:	83 c4 10             	add    $0x10,%esp
 804a15a:	89 45 d4             	mov    %eax,-0x2c(%ebp)
 804a15d:	eb 2b                	jmp    804a18a <Exp+0x657>
 804a15f:	83 ec 0c             	sub    $0xc,%esp
 804a162:	ff 75 08             	pushl  0x8(%ebp)
 804a165:	e8 cb eb ff ff       	call   8048d35 <printTree>
 804a16a:	83 c4 10             	add    $0x10,%esp
 804a16d:	68 2c 3b 05 08       	push   $0x8053b2c
 804a172:	68 71 02 00 00       	push   $0x271
 804a177:	68 45 36 05 08       	push   $0x8053645
 804a17c:	68 4f 36 05 08       	push   $0x805364f
 804a181:	e8 3a e8 ff ff       	call   80489c0 <__assert_fail@plt>
 804a186:	90                   	nop
 804a187:	eb 01                	jmp    804a18a <Exp+0x657>
 804a189:	90                   	nop
 804a18a:	8b 45 d4             	mov    -0x2c(%ebp),%eax
 804a18d:	c9                   	leave  
 804a18e:	c3                   	ret    

0804a18f <isLeftVar>:
 804a18f:	55                   	push   %ebp
 804a190:	89 e5                	mov    %esp,%ebp
 804a192:	83 ec 18             	sub    $0x18,%esp
 804a195:	83 7d 08 00          	cmpl   $0x0,0x8(%ebp)
 804a199:	75 0a                	jne    804a1a5 <isLeftVar+0x16>
 804a19b:	b8 01 00 00 00       	mov    $0x1,%eax
 804a1a0:	e9 e1 00 00 00       	jmp    804a286 <isLeftVar+0xf7>
 804a1a5:	8b 45 08             	mov    0x8(%ebp),%eax
 804a1a8:	8b 40 14             	mov    0x14(%eax),%eax
 804a1ab:	89 45 ec             	mov    %eax,-0x14(%ebp)
 804a1ae:	8b 45 08             	mov    0x8(%ebp),%eax
 804a1b1:	8b 40 04             	mov    0x4(%eax),%eax
 804a1b4:	83 f8 03             	cmp    $0x3,%eax
 804a1b7:	75 36                	jne    804a1ef <isLeftVar+0x60>
 804a1b9:	8b 45 08             	mov    0x8(%ebp),%eax
 804a1bc:	8b 40 08             	mov    0x8(%eax),%eax
 804a1bf:	83 ec 0c             	sub    $0xc,%esp
 804a1c2:	50                   	push   %eax
 804a1c3:	e8 fe 89 00 00       	call   8052bc6 <searchTable>
 804a1c8:	83 c4 10             	add    $0x10,%esp
 804a1cb:	89 45 f0             	mov    %eax,-0x10(%ebp)
 804a1ce:	83 7d f0 00          	cmpl   $0x0,-0x10(%ebp)
 804a1d2:	0f 84 a9 00 00 00    	je     804a281 <isLeftVar+0xf2>
 804a1d8:	8b 45 f0             	mov    -0x10(%ebp),%eax
 804a1db:	8b 00                	mov    (%eax),%eax
 804a1dd:	85 c0                	test   %eax,%eax
 804a1df:	0f 85 9c 00 00 00    	jne    804a281 <isLeftVar+0xf2>
 804a1e5:	b8 01 00 00 00       	mov    $0x1,%eax
 804a1ea:	e9 97 00 00 00       	jmp    804a286 <isLeftVar+0xf7>
 804a1ef:	8b 45 08             	mov    0x8(%ebp),%eax
 804a1f2:	8b 40 04             	mov    0x4(%eax),%eax
 804a1f5:	83 f8 32             	cmp    $0x32,%eax
 804a1f8:	75 3c                	jne    804a236 <isLeftVar+0xa7>
 804a1fa:	8b 45 08             	mov    0x8(%ebp),%eax
 804a1fd:	8b 40 14             	mov    0x14(%eax),%eax
 804a200:	8b 40 04             	mov    0x4(%eax),%eax
 804a203:	83 f8 03             	cmp    $0x3,%eax
 804a206:	75 2e                	jne    804a236 <isLeftVar+0xa7>
 804a208:	8b 45 08             	mov    0x8(%ebp),%eax
 804a20b:	8b 40 14             	mov    0x14(%eax),%eax
 804a20e:	8b 40 08             	mov    0x8(%eax),%eax
 804a211:	83 ec 0c             	sub    $0xc,%esp
 804a214:	50                   	push   %eax
 804a215:	e8 ac 89 00 00       	call   8052bc6 <searchTable>
 804a21a:	83 c4 10             	add    $0x10,%esp
 804a21d:	89 45 f4             	mov    %eax,-0xc(%ebp)
 804a220:	83 7d f4 00          	cmpl   $0x0,-0xc(%ebp)
 804a224:	74 5a                	je     804a280 <isLeftVar+0xf1>
 804a226:	8b 45 f4             	mov    -0xc(%ebp),%eax
 804a229:	8b 00                	mov    (%eax),%eax
 804a22b:	85 c0                	test   %eax,%eax
 804a22d:	75 51                	jne    804a280 <isLeftVar+0xf1>
 804a22f:	b8 01 00 00 00       	mov    $0x1,%eax
 804a234:	eb 50                	jmp    804a286 <isLeftVar+0xf7>
 804a236:	8b 45 08             	mov    0x8(%ebp),%eax
 804a239:	8b 40 04             	mov    0x4(%eax),%eax
 804a23c:	83 f8 32             	cmp    $0x32,%eax
 804a23f:	75 40                	jne    804a281 <isLeftVar+0xf2>
 804a241:	8b 45 08             	mov    0x8(%ebp),%eax
 804a244:	8b 40 14             	mov    0x14(%eax),%eax
 804a247:	8b 40 04             	mov    0x4(%eax),%eax
 804a24a:	83 f8 32             	cmp    $0x32,%eax
 804a24d:	75 32                	jne    804a281 <isLeftVar+0xf2>
 804a24f:	8b 45 08             	mov    0x8(%ebp),%eax
 804a252:	8b 40 18             	mov    0x18(%eax),%eax
 804a255:	8b 40 04             	mov    0x4(%eax),%eax
 804a258:	83 f8 16             	cmp    $0x16,%eax
 804a25b:	74 1c                	je     804a279 <isLeftVar+0xea>
 804a25d:	8b 45 08             	mov    0x8(%ebp),%eax
 804a260:	8b 40 18             	mov    0x18(%eax),%eax
 804a263:	8b 40 04             	mov    0x4(%eax),%eax
 804a266:	83 f8 12             	cmp    $0x12,%eax
 804a269:	74 0e                	je     804a279 <isLeftVar+0xea>
 804a26b:	8b 45 08             	mov    0x8(%ebp),%eax
 804a26e:	8b 40 18             	mov    0x18(%eax),%eax
 804a271:	8b 40 04             	mov    0x4(%eax),%eax
 804a274:	83 f8 03             	cmp    $0x3,%eax
 804a277:	75 08                	jne    804a281 <isLeftVar+0xf2>
 804a279:	b8 01 00 00 00       	mov    $0x1,%eax
 804a27e:	eb 06                	jmp    804a286 <isLeftVar+0xf7>
 804a280:	90                   	nop
 804a281:	b8 00 00 00 00       	mov    $0x0,%eax
 804a286:	c9                   	leave  
 804a287:	c3                   	ret    

0804a288 <Args>:
 804a288:	55                   	push   %ebp
 804a289:	89 e5                	mov    %esp,%ebp
 804a28b:	83 ec 18             	sub    $0x18,%esp
 804a28e:	83 ec 0c             	sub    $0xc,%esp
 804a291:	6a 0c                	push   $0xc
 804a293:	e8 e8 e5 ff ff       	call   8048880 <malloc@plt>
 804a298:	83 c4 10             	add    $0x10,%esp
 804a29b:	89 45 f4             	mov    %eax,-0xc(%ebp)
 804a29e:	8b 45 f4             	mov    -0xc(%ebp),%eax
 804a2a1:	c7 00 00 00 00 00    	movl   $0x0,(%eax)
 804a2a7:	8b 45 f4             	mov    -0xc(%ebp),%eax
 804a2aa:	c7 40 08 00 00 00 00 	movl   $0x0,0x8(%eax)
 804a2b1:	8b 45 08             	mov    0x8(%ebp),%eax
 804a2b4:	8b 40 10             	mov    0x10(%eax),%eax
 804a2b7:	83 f8 01             	cmp    $0x1,%eax
 804a2ba:	75 1c                	jne    804a2d8 <Args+0x50>
 804a2bc:	8b 45 08             	mov    0x8(%ebp),%eax
 804a2bf:	8b 40 14             	mov    0x14(%eax),%eax
 804a2c2:	83 ec 0c             	sub    $0xc,%esp
 804a2c5:	50                   	push   %eax
 804a2c6:	e8 68 f8 ff ff       	call   8049b33 <Exp>
 804a2cb:	83 c4 10             	add    $0x10,%esp
 804a2ce:	89 c2                	mov    %eax,%edx
 804a2d0:	8b 45 f4             	mov    -0xc(%ebp),%eax
 804a2d3:	89 50 04             	mov    %edx,0x4(%eax)
 804a2d6:	eb 5a                	jmp    804a332 <Args+0xaa>
 804a2d8:	8b 45 08             	mov    0x8(%ebp),%eax
 804a2db:	8b 40 10             	mov    0x10(%eax),%eax
 804a2de:	83 f8 03             	cmp    $0x3,%eax
 804a2e1:	75 36                	jne    804a319 <Args+0x91>
 804a2e3:	8b 45 08             	mov    0x8(%ebp),%eax
 804a2e6:	8b 40 14             	mov    0x14(%eax),%eax
 804a2e9:	83 ec 0c             	sub    $0xc,%esp
 804a2ec:	50                   	push   %eax
 804a2ed:	e8 41 f8 ff ff       	call   8049b33 <Exp>
 804a2f2:	83 c4 10             	add    $0x10,%esp
 804a2f5:	89 c2                	mov    %eax,%edx
 804a2f7:	8b 45 f4             	mov    -0xc(%ebp),%eax
 804a2fa:	89 50 04             	mov    %edx,0x4(%eax)
 804a2fd:	8b 45 08             	mov    0x8(%ebp),%eax
 804a300:	8b 40 1c             	mov    0x1c(%eax),%eax
 804a303:	83 ec 0c             	sub    $0xc,%esp
 804a306:	50                   	push   %eax
 804a307:	e8 7c ff ff ff       	call   804a288 <Args>
 804a30c:	83 c4 10             	add    $0x10,%esp
 804a30f:	89 c2                	mov    %eax,%edx
 804a311:	8b 45 f4             	mov    -0xc(%ebp),%eax
 804a314:	89 50 08             	mov    %edx,0x8(%eax)
 804a317:	eb 19                	jmp    804a332 <Args+0xaa>
 804a319:	68 30 3b 05 08       	push   $0x8053b30
 804a31e:	68 a1 02 00 00       	push   $0x2a1
 804a323:	68 45 36 05 08       	push   $0x8053645
 804a328:	68 4f 36 05 08       	push   $0x805364f
 804a32d:	e8 8e e6 ff ff       	call   80489c0 <__assert_fail@plt>
 804a332:	8b 45 f4             	mov    -0xc(%ebp),%eax
 804a335:	c9                   	leave  
 804a336:	c3                   	ret    

0804a337 <checkStructure>:
 804a337:	55                   	push   %ebp
 804a338:	89 e5                	mov    %esp,%ebp
 804a33a:	83 ec 18             	sub    $0x18,%esp
 804a33d:	eb 63                	jmp    804a3a2 <checkStructure+0x6b>
 804a33f:	8b 45 08             	mov    0x8(%ebp),%eax
 804a342:	8b 40 08             	mov    0x8(%eax),%eax
 804a345:	89 45 f4             	mov    %eax,-0xc(%ebp)
 804a348:	eb 49                	jmp    804a393 <checkStructure+0x5c>
 804a34a:	8b 45 f4             	mov    -0xc(%ebp),%eax
 804a34d:	8b 10                	mov    (%eax),%edx
 804a34f:	8b 45 08             	mov    0x8(%ebp),%eax
 804a352:	8b 00                	mov    (%eax),%eax
 804a354:	83 ec 08             	sub    $0x8,%esp
 804a357:	52                   	push   %edx
 804a358:	50                   	push   %eax
 804a359:	e8 52 e4 ff ff       	call   80487b0 <strcmp@plt>
 804a35e:	83 c4 10             	add    $0x10,%esp
 804a361:	85 c0                	test   %eax,%eax
 804a363:	75 25                	jne    804a38a <checkStructure+0x53>
 804a365:	a1 20 81 05 08       	mov    0x8058120,%eax
 804a36a:	83 c0 01             	add    $0x1,%eax
 804a36d:	a3 20 81 05 08       	mov    %eax,0x8058120
 804a372:	8b 45 f4             	mov    -0xc(%ebp),%eax
 804a375:	8b 00                	mov    (%eax),%eax
 804a377:	83 ec 04             	sub    $0x4,%esp
 804a37a:	50                   	push   %eax
 804a37b:	6a 01                	push   $0x1
 804a37d:	68 78 37 05 08       	push   $0x8053778
 804a382:	e8 39 e4 ff ff       	call   80487c0 <printf@plt>
 804a387:	83 c4 10             	add    $0x10,%esp
 804a38a:	8b 45 f4             	mov    -0xc(%ebp),%eax
 804a38d:	8b 40 08             	mov    0x8(%eax),%eax
 804a390:	89 45 f4             	mov    %eax,-0xc(%ebp)
 804a393:	83 7d f4 00          	cmpl   $0x0,-0xc(%ebp)
 804a397:	75 b1                	jne    804a34a <checkStructure+0x13>
 804a399:	8b 45 08             	mov    0x8(%ebp),%eax
 804a39c:	8b 40 08             	mov    0x8(%eax),%eax
 804a39f:	89 45 08             	mov    %eax,0x8(%ebp)
 804a3a2:	8b 45 08             	mov    0x8(%ebp),%eax
 804a3a5:	8b 40 08             	mov    0x8(%eax),%eax
 804a3a8:	85 c0                	test   %eax,%eax
 804a3aa:	75 93                	jne    804a33f <checkStructure+0x8>
 804a3ac:	b8 01 00 00 00       	mov    $0x1,%eax
 804a3b1:	c9                   	leave  
 804a3b2:	c3                   	ret    

0804a3b3 <checkFunc>:
 804a3b3:	55                   	push   %ebp
 804a3b4:	89 e5                	mov    %esp,%ebp
 804a3b6:	83 ec 18             	sub    $0x18,%esp
 804a3b9:	c7 45 f4 00 00 00 00 	movl   $0x0,-0xc(%ebp)
 804a3c0:	eb 70                	jmp    804a432 <checkFunc+0x7f>
 804a3c2:	8b 45 f4             	mov    -0xc(%ebp),%eax
 804a3c5:	8b 04 85 80 81 05 08 	mov    0x8058180(,%eax,4),%eax
 804a3cc:	85 c0                	test   %eax,%eax
 804a3ce:	74 5e                	je     804a42e <checkFunc+0x7b>
 804a3d0:	8b 45 f4             	mov    -0xc(%ebp),%eax
 804a3d3:	8b 04 85 80 81 05 08 	mov    0x8058180(,%eax,4),%eax
 804a3da:	8b 00                	mov    (%eax),%eax
 804a3dc:	83 f8 01             	cmp    $0x1,%eax
 804a3df:	75 4d                	jne    804a42e <checkFunc+0x7b>
 804a3e1:	8b 45 f4             	mov    -0xc(%ebp),%eax
 804a3e4:	8b 04 85 80 81 05 08 	mov    0x8058180(,%eax,4),%eax
 804a3eb:	8b 40 0c             	mov    0xc(%eax),%eax
 804a3ee:	8b 40 08             	mov    0x8(%eax),%eax
 804a3f1:	85 c0                	test   %eax,%eax
 804a3f3:	75 39                	jne    804a42e <checkFunc+0x7b>
 804a3f5:	a1 20 81 05 08       	mov    0x8058120,%eax
 804a3fa:	83 c0 01             	add    $0x1,%eax
 804a3fd:	a3 20 81 05 08       	mov    %eax,0x8058120
 804a402:	8b 45 f4             	mov    -0xc(%ebp),%eax
 804a405:	8b 04 85 80 81 05 08 	mov    0x8058180(,%eax,4),%eax
 804a40c:	8b 50 04             	mov    0x4(%eax),%edx
 804a40f:	8b 45 f4             	mov    -0xc(%ebp),%eax
 804a412:	8b 04 85 80 81 05 08 	mov    0x8058180(,%eax,4),%eax
 804a419:	8b 40 08             	mov    0x8(%eax),%eax
 804a41c:	83 ec 04             	sub    $0x4,%esp
 804a41f:	52                   	push   %edx
 804a420:	50                   	push   %eax
 804a421:	68 dc 3a 05 08       	push   $0x8053adc
 804a426:	e8 95 e3 ff ff       	call   80487c0 <printf@plt>
 804a42b:	83 c4 10             	add    $0x10,%esp
 804a42e:	83 45 f4 01          	addl   $0x1,-0xc(%ebp)
 804a432:	81 7d f4 fe 3f 00 00 	cmpl   $0x3ffe,-0xc(%ebp)
 804a439:	7e 87                	jle    804a3c2 <checkFunc+0xf>
 804a43b:	90                   	nop
 804a43c:	c9                   	leave  
 804a43d:	c3                   	ret    

0804a43e <main>:
 804a43e:	8d 4c 24 04          	lea    0x4(%esp),%ecx
 804a442:	83 e4 f0             	and    $0xfffffff0,%esp
 804a445:	ff 71 fc             	pushl  -0x4(%ecx)
 804a448:	55                   	push   %ebp
 804a449:	89 e5                	mov    %esp,%ebp
 804a44b:	57                   	push   %edi
 804a44c:	53                   	push   %ebx
 804a44d:	51                   	push   %ecx
 804a44e:	81 ec ac 00 00 00    	sub    $0xac,%esp
 804a454:	89 cb                	mov    %ecx,%ebx
 804a456:	8b 43 04             	mov    0x4(%ebx),%eax
 804a459:	89 85 54 ff ff ff    	mov    %eax,-0xac(%ebp)
 804a45f:	65 a1 14 00 00 00    	mov    %gs:0x14,%eax
 804a465:	89 45 e4             	mov    %eax,-0x1c(%ebp)
 804a468:	31 c0                	xor    %eax,%eax
 804a46a:	83 3b 01             	cmpl   $0x1,(%ebx)
 804a46d:	0f 8e 3b 02 00 00    	jle    804a6ae <main+0x270>
 804a473:	c7 85 58 ff ff ff 01 	movl   $0x1,-0xa8(%ebp)
 804a47a:	00 00 00 
 804a47d:	e9 1e 02 00 00       	jmp    804a6a0 <main+0x262>
 804a482:	8b 85 58 ff ff ff    	mov    -0xa8(%ebp),%eax
 804a488:	8d 14 85 00 00 00 00 	lea    0x0(,%eax,4),%edx
 804a48f:	8b 85 54 ff ff ff    	mov    -0xac(%ebp),%eax
 804a495:	01 d0                	add    %edx,%eax
 804a497:	8b 00                	mov    (%eax),%eax
 804a499:	83 ec 08             	sub    $0x8,%esp
 804a49c:	68 38 3b 05 08       	push   $0x8053b38
 804a4a1:	50                   	push   %eax
 804a4a2:	e8 49 e4 ff ff       	call   80488f0 <fopen@plt>
 804a4a7:	83 c4 10             	add    $0x10,%esp
 804a4aa:	89 85 5c ff ff ff    	mov    %eax,-0xa4(%ebp)
 804a4b0:	83 bd 5c ff ff ff 00 	cmpl   $0x0,-0xa4(%ebp)
 804a4b7:	75 21                	jne    804a4da <main+0x9c>
 804a4b9:	8b 85 54 ff ff ff    	mov    -0xac(%ebp),%eax
 804a4bf:	83 c0 04             	add    $0x4,%eax
 804a4c2:	8b 00                	mov    (%eax),%eax
 804a4c4:	83 ec 0c             	sub    $0xc,%esp
 804a4c7:	50                   	push   %eax
 804a4c8:	e8 63 e3 ff ff       	call   8048830 <perror@plt>
 804a4cd:	83 c4 10             	add    $0x10,%esp
 804a4d0:	b8 01 00 00 00       	mov    $0x1,%eax
 804a4d5:	e9 d9 01 00 00       	jmp    804a6b3 <main+0x275>
 804a4da:	8b 85 58 ff ff ff    	mov    -0xa8(%ebp),%eax
 804a4e0:	8d 14 85 00 00 00 00 	lea    0x0(,%eax,4),%edx
 804a4e7:	8b 85 54 ff ff ff    	mov    -0xac(%ebp),%eax
 804a4ed:	01 d0                	add    %edx,%eax
 804a4ef:	8b 00                	mov    (%eax),%eax
 804a4f1:	83 ec 08             	sub    $0x8,%esp
 804a4f4:	50                   	push   %eax
 804a4f5:	68 3a 3b 05 08       	push   $0x8053b3a
 804a4fa:	e8 c1 e2 ff ff       	call   80487c0 <printf@plt>
 804a4ff:	83 c4 10             	add    $0x10,%esp
 804a502:	83 ec 0c             	sub    $0xc,%esp
 804a505:	ff b5 5c ff ff ff    	pushl  -0xa4(%ebp)
 804a50b:	e8 45 7a 00 00       	call   8051f55 <yyrestart>
 804a510:	83 c4 10             	add    $0x10,%esp
 804a513:	e8 44 30 00 00       	call   804d55c <yyparse>
 804a518:	83 ec 0c             	sub    $0xc,%esp
 804a51b:	ff b5 5c ff ff ff    	pushl  -0xa4(%ebp)
 804a521:	e8 da e2 ff ff       	call   8048800 <fclose@plt>
 804a526:	83 c4 10             	add    $0x10,%esp
 804a529:	c7 05 bc 80 05 08 01 	movl   $0x1,0x80580bc
 804a530:	00 00 00 
 804a533:	a1 20 81 05 08       	mov    0x8058120,%eax
 804a538:	85 c0                	test   %eax,%eax
 804a53a:	0f 85 58 01 00 00    	jne    804a698 <main+0x25a>
 804a540:	a1 10 81 05 08       	mov    0x8058110,%eax
 804a545:	85 c0                	test   %eax,%eax
 804a547:	0f 84 4b 01 00 00    	je     804a698 <main+0x25a>
 804a54d:	e8 f0 85 00 00       	call   8052b42 <initTable>
 804a552:	e8 8f 87 00 00       	call   8052ce6 <preprocessTable>
 804a557:	a1 10 81 05 08       	mov    0x8058110,%eax
 804a55c:	83 ec 0c             	sub    $0xc,%esp
 804a55f:	50                   	push   %eax
 804a560:	e8 37 e8 ff ff       	call   8048d9c <sematicCheck>
 804a565:	83 c4 10             	add    $0x10,%esp
 804a568:	a1 20 81 05 08       	mov    0x8058120,%eax
 804a56d:	85 c0                	test   %eax,%eax
 804a56f:	0f 85 e6 00 00 00    	jne    804a65b <main+0x21d>
 804a575:	8b 85 58 ff ff ff    	mov    -0xa8(%ebp),%eax
 804a57b:	8d 14 85 00 00 00 00 	lea    0x0(,%eax,4),%edx
 804a582:	8b 85 54 ff ff ff    	mov    -0xac(%ebp),%eax
 804a588:	01 d0                	add    %edx,%eax
 804a58a:	8b 00                	mov    (%eax),%eax
 804a58c:	83 ec 08             	sub    $0x8,%esp
 804a58f:	50                   	push   %eax
 804a590:	8d 85 64 ff ff ff    	lea    -0x9c(%ebp),%eax
 804a596:	50                   	push   %eax
 804a597:	e8 c4 e2 ff ff       	call   8048860 <strcpy@plt>
 804a59c:	83 c4 10             	add    $0x10,%esp
 804a59f:	8d 85 64 ff ff ff    	lea    -0x9c(%ebp),%eax
 804a5a5:	b9 ff ff ff ff       	mov    $0xffffffff,%ecx
 804a5aa:	89 c2                	mov    %eax,%edx
 804a5ac:	b8 00 00 00 00       	mov    $0x0,%eax
 804a5b1:	89 d7                	mov    %edx,%edi
 804a5b3:	f2 ae                	repnz scas %es:(%edi),%al
 804a5b5:	89 c8                	mov    %ecx,%eax
 804a5b7:	f7 d0                	not    %eax
 804a5b9:	8d 50 ff             	lea    -0x1(%eax),%edx
 804a5bc:	8d 85 64 ff ff ff    	lea    -0x9c(%ebp),%eax
 804a5c2:	01 d0                	add    %edx,%eax
 804a5c4:	c7 00 2e 69 72 00    	movl   $0x72692e,(%eax)
 804a5ca:	83 ec 08             	sub    $0x8,%esp
 804a5cd:	68 56 3b 05 08       	push   $0x8053b56
 804a5d2:	8d 85 64 ff ff ff    	lea    -0x9c(%ebp),%eax
 804a5d8:	50                   	push   %eax
 804a5d9:	e8 12 e3 ff ff       	call   80488f0 <fopen@plt>
 804a5de:	83 c4 10             	add    $0x10,%esp
 804a5e1:	89 85 60 ff ff ff    	mov    %eax,-0xa0(%ebp)
 804a5e7:	83 bd 60 ff ff ff 00 	cmpl   $0x0,-0xa0(%ebp)
 804a5ee:	75 16                	jne    804a606 <main+0x1c8>
 804a5f0:	68 64 3b 05 08       	push   $0x8053b64
 804a5f5:	6a 31                	push   $0x31
 804a5f7:	68 58 3b 05 08       	push   $0x8053b58
 804a5fc:	68 5f 3b 05 08       	push   $0x8053b5f
 804a601:	e8 ba e3 ff ff       	call   80489c0 <__assert_fail@plt>
 804a606:	a1 10 81 05 08       	mov    0x8058110,%eax
 804a60b:	83 ec 08             	sub    $0x8,%esp
 804a60e:	ff b5 60 ff ff ff    	pushl  -0xa0(%ebp)
 804a614:	50                   	push   %eax
 804a615:	e8 80 0d 00 00       	call   804b39a <generate_ir>
 804a61a:	83 c4 10             	add    $0x10,%esp
 804a61d:	a3 0c 81 05 08       	mov    %eax,0x805810c
 804a622:	a1 0c 81 05 08       	mov    0x805810c,%eax
 804a627:	83 ec 0c             	sub    $0xc,%esp
 804a62a:	50                   	push   %eax
 804a62b:	e8 9f 00 00 00       	call   804a6cf <test_ir>
 804a630:	83 c4 10             	add    $0x10,%esp
 804a633:	a1 0c 81 05 08       	mov    0x805810c,%eax
 804a638:	83 ec 08             	sub    $0x8,%esp
 804a63b:	ff b5 60 ff ff ff    	pushl  -0xa0(%ebp)
 804a641:	50                   	push   %eax
 804a642:	e8 08 03 00 00       	call   804a94f <printInterCodes>
 804a647:	83 c4 10             	add    $0x10,%esp
 804a64a:	83 ec 0c             	sub    $0xc,%esp
 804a64d:	ff b5 60 ff ff ff    	pushl  -0xa0(%ebp)
 804a653:	e8 a8 e1 ff ff       	call   8048800 <fclose@plt>
 804a658:	83 c4 10             	add    $0x10,%esp
 804a65b:	a1 10 81 05 08       	mov    0x8058110,%eax
 804a660:	83 ec 0c             	sub    $0xc,%esp
 804a663:	50                   	push   %eax
 804a664:	e8 e5 e6 ff ff       	call   8048d4e <deleteTree>
 804a669:	83 c4 10             	add    $0x10,%esp
 804a66c:	e8 08 85 00 00       	call   8052b79 <clearTable>
 804a671:	a1 0c 81 05 08       	mov    0x805810c,%eax
 804a676:	83 ec 0c             	sub    $0xc,%esp
 804a679:	50                   	push   %eax
 804a67a:	e8 06 01 00 00       	call   804a785 <clearInterCodes>
 804a67f:	83 c4 10             	add    $0x10,%esp
 804a682:	c7 05 10 81 05 08 00 	movl   $0x0,0x8058110
 804a689:	00 00 00 
 804a68c:	c7 05 20 81 05 08 00 	movl   $0x0,0x8058120
 804a693:	00 00 00 
 804a696:	eb 01                	jmp    804a699 <main+0x25b>
 804a698:	90                   	nop
 804a699:	83 85 58 ff ff ff 01 	addl   $0x1,-0xa8(%ebp)
 804a6a0:	8b 85 58 ff ff ff    	mov    -0xa8(%ebp),%eax
 804a6a6:	3b 03                	cmp    (%ebx),%eax
 804a6a8:	0f 8c d4 fd ff ff    	jl     804a482 <main+0x44>
 804a6ae:	b8 00 00 00 00       	mov    $0x0,%eax
 804a6b3:	8b 7d e4             	mov    -0x1c(%ebp),%edi
 804a6b6:	65 33 3d 14 00 00 00 	xor    %gs:0x14,%edi
 804a6bd:	74 05                	je     804a6c4 <main+0x286>
 804a6bf:	e8 4c e1 ff ff       	call   8048810 <__stack_chk_fail@plt>
 804a6c4:	8d 65 f4             	lea    -0xc(%ebp),%esp
 804a6c7:	59                   	pop    %ecx
 804a6c8:	5b                   	pop    %ebx
 804a6c9:	5f                   	pop    %edi
 804a6ca:	5d                   	pop    %ebp
 804a6cb:	8d 61 fc             	lea    -0x4(%ecx),%esp
 804a6ce:	c3                   	ret    

0804a6cf <test_ir>:
 804a6cf:	55                   	push   %ebp
 804a6d0:	89 e5                	mov    %esp,%ebp
 804a6d2:	83 ec 18             	sub    $0x18,%esp
 804a6d5:	c7 45 f4 00 00 00 00 	movl   $0x0,-0xc(%ebp)
 804a6dc:	eb 2d                	jmp    804a70b <test_ir+0x3c>
 804a6de:	8b 45 08             	mov    0x8(%ebp),%eax
 804a6e1:	8b 40 14             	mov    0x14(%eax),%eax
 804a6e4:	8b 40 10             	mov    0x10(%eax),%eax
 804a6e7:	3b 45 08             	cmp    0x8(%ebp),%eax
 804a6ea:	74 16                	je     804a702 <test_ir+0x33>
 804a6ec:	68 90 3b 05 08       	push   $0x8053b90
 804a6f1:	6a 0c                	push   $0xc
 804a6f3:	68 6c 3b 05 08       	push   $0x8053b6c
 804a6f8:	68 73 3b 05 08       	push   $0x8053b73
 804a6fd:	e8 be e2 ff ff       	call   80489c0 <__assert_fail@plt>
 804a702:	8b 45 08             	mov    0x8(%ebp),%eax
 804a705:	8b 40 14             	mov    0x14(%eax),%eax
 804a708:	89 45 08             	mov    %eax,0x8(%ebp)
 804a70b:	83 7d 08 00          	cmpl   $0x0,0x8(%ebp)
 804a70f:	74 0a                	je     804a71b <test_ir+0x4c>
 804a711:	8b 45 08             	mov    0x8(%ebp),%eax
 804a714:	8b 40 14             	mov    0x14(%eax),%eax
 804a717:	85 c0                	test   %eax,%eax
 804a719:	75 c3                	jne    804a6de <test_ir+0xf>
 804a71b:	8b 45 f4             	mov    -0xc(%ebp),%eax
 804a71e:	c9                   	leave  
 804a71f:	c3                   	ret    

0804a720 <addTail>:
 804a720:	55                   	push   %ebp
 804a721:	89 e5                	mov    %esp,%ebp
 804a723:	83 ec 10             	sub    $0x10,%esp
 804a726:	83 7d 08 00          	cmpl   $0x0,0x8(%ebp)
 804a72a:	75 05                	jne    804a731 <addTail+0x11>
 804a72c:	8b 45 0c             	mov    0xc(%ebp),%eax
 804a72f:	eb 36                	jmp    804a767 <addTail+0x47>
 804a731:	8b 45 08             	mov    0x8(%ebp),%eax
 804a734:	89 45 fc             	mov    %eax,-0x4(%ebp)
 804a737:	eb 09                	jmp    804a742 <addTail+0x22>
 804a739:	8b 45 fc             	mov    -0x4(%ebp),%eax
 804a73c:	8b 40 14             	mov    0x14(%eax),%eax
 804a73f:	89 45 fc             	mov    %eax,-0x4(%ebp)
 804a742:	8b 45 fc             	mov    -0x4(%ebp),%eax
 804a745:	8b 40 14             	mov    0x14(%eax),%eax
 804a748:	85 c0                	test   %eax,%eax
 804a74a:	75 ed                	jne    804a739 <addTail+0x19>
 804a74c:	8b 45 fc             	mov    -0x4(%ebp),%eax
 804a74f:	8b 55 0c             	mov    0xc(%ebp),%edx
 804a752:	89 50 14             	mov    %edx,0x14(%eax)
 804a755:	83 7d 0c 00          	cmpl   $0x0,0xc(%ebp)
 804a759:	74 09                	je     804a764 <addTail+0x44>
 804a75b:	8b 45 0c             	mov    0xc(%ebp),%eax
 804a75e:	8b 55 fc             	mov    -0x4(%ebp),%edx
 804a761:	89 50 10             	mov    %edx,0x10(%eax)
 804a764:	8b 45 08             	mov    0x8(%ebp),%eax
 804a767:	c9                   	leave  
 804a768:	c3                   	ret    

0804a769 <delInterCodes>:
 804a769:	55                   	push   %ebp
 804a76a:	89 e5                	mov    %esp,%ebp
 804a76c:	83 ec 08             	sub    $0x8,%esp
 804a76f:	68 00 3f 05 08       	push   $0x8053f00
 804a774:	6a 14                	push   $0x14
 804a776:	68 98 3b 05 08       	push   $0x8053b98
 804a77b:	68 9d 3b 05 08       	push   $0x8053b9d
 804a780:	e8 3b e2 ff ff       	call   80489c0 <__assert_fail@plt>

0804a785 <clearInterCodes>:
 804a785:	55                   	push   %ebp
 804a786:	89 e5                	mov    %esp,%ebp
 804a788:	83 ec 18             	sub    $0x18,%esp
 804a78b:	eb 1d                	jmp    804a7aa <clearInterCodes+0x25>
 804a78d:	8b 45 08             	mov    0x8(%ebp),%eax
 804a790:	89 45 f4             	mov    %eax,-0xc(%ebp)
 804a793:	8b 45 08             	mov    0x8(%ebp),%eax
 804a796:	8b 40 14             	mov    0x14(%eax),%eax
 804a799:	89 45 08             	mov    %eax,0x8(%ebp)
 804a79c:	83 ec 0c             	sub    $0xc,%esp
 804a79f:	ff 75 f4             	pushl  -0xc(%ebp)
 804a7a2:	e8 29 e0 ff ff       	call   80487d0 <free@plt>
 804a7a7:	83 c4 10             	add    $0x10,%esp
 804a7aa:	83 7d 08 00          	cmpl   $0x0,0x8(%ebp)
 804a7ae:	75 dd                	jne    804a78d <clearInterCodes+0x8>
 804a7b0:	90                   	nop
 804a7b1:	c9                   	leave  
 804a7b2:	c3                   	ret    

0804a7b3 <newParm>:
 804a7b3:	55                   	push   %ebp
 804a7b4:	89 e5                	mov    %esp,%ebp
 804a7b6:	a1 9c 80 05 08       	mov    0x805809c,%eax
 804a7bb:	8d 50 01             	lea    0x1(%eax),%edx
 804a7be:	89 15 9c 80 05 08    	mov    %edx,0x805809c
 804a7c4:	5d                   	pop    %ebp
 804a7c5:	c3                   	ret    

0804a7c6 <newArg>:
 804a7c6:	55                   	push   %ebp
 804a7c7:	89 e5                	mov    %esp,%ebp
 804a7c9:	a1 a0 80 05 08       	mov    0x80580a0,%eax
 804a7ce:	8d 50 01             	lea    0x1(%eax),%edx
 804a7d1:	89 15 a0 80 05 08    	mov    %edx,0x80580a0
 804a7d7:	5d                   	pop    %ebp
 804a7d8:	c3                   	ret    

0804a7d9 <newTemp>:
 804a7d9:	55                   	push   %ebp
 804a7da:	89 e5                	mov    %esp,%ebp
 804a7dc:	83 ec 18             	sub    $0x18,%esp
 804a7df:	e8 b5 09 00 00       	call   804b199 <newOperand>
 804a7e4:	89 45 f4             	mov    %eax,-0xc(%ebp)
 804a7e7:	8b 45 f4             	mov    -0xc(%ebp),%eax
 804a7ea:	c7 00 03 00 00 00    	movl   $0x3,(%eax)
 804a7f0:	a1 a4 80 05 08       	mov    0x80580a4,%eax
 804a7f5:	8d 50 01             	lea    0x1(%eax),%edx
 804a7f8:	89 15 a4 80 05 08    	mov    %edx,0x80580a4
 804a7fe:	8b 55 f4             	mov    -0xc(%ebp),%edx
 804a801:	89 42 04             	mov    %eax,0x4(%edx)
 804a804:	8b 45 f4             	mov    -0xc(%ebp),%eax
 804a807:	c9                   	leave  
 804a808:	c3                   	ret    

0804a809 <newLabel>:
 804a809:	55                   	push   %ebp
 804a80a:	89 e5                	mov    %esp,%ebp
 804a80c:	83 ec 18             	sub    $0x18,%esp
 804a80f:	e8 85 09 00 00       	call   804b199 <newOperand>
 804a814:	89 45 f4             	mov    %eax,-0xc(%ebp)
 804a817:	8b 45 f4             	mov    -0xc(%ebp),%eax
 804a81a:	c7 00 04 00 00 00    	movl   $0x4,(%eax)
 804a820:	a1 a8 80 05 08       	mov    0x80580a8,%eax
 804a825:	8d 50 01             	lea    0x1(%eax),%edx
 804a828:	89 15 a8 80 05 08    	mov    %edx,0x80580a8
 804a82e:	8b 55 f4             	mov    -0xc(%ebp),%edx
 804a831:	89 42 04             	mov    %eax,0x4(%edx)
 804a834:	8b 45 f4             	mov    -0xc(%ebp),%eax
 804a837:	c9                   	leave  
 804a838:	c3                   	ret    

0804a839 <printOperand>:
 804a839:	55                   	push   %ebp
 804a83a:	89 e5                	mov    %esp,%ebp
 804a83c:	83 ec 08             	sub    $0x8,%esp
 804a83f:	83 7d 08 00          	cmpl   $0x0,0x8(%ebp)
 804a843:	75 15                	jne    804a85a <printOperand+0x21>
 804a845:	83 ec 0c             	sub    $0xc,%esp
 804a848:	68 9f 3b 05 08       	push   $0x8053b9f
 804a84d:	e8 3e e0 ff ff       	call   8048890 <puts@plt>
 804a852:	83 c4 10             	add    $0x10,%esp
 804a855:	e9 f3 00 00 00       	jmp    804a94d <printOperand+0x114>
 804a85a:	8b 45 08             	mov    0x8(%ebp),%eax
 804a85d:	8b 00                	mov    (%eax),%eax
 804a85f:	83 f8 06             	cmp    $0x6,%eax
 804a862:	0f 87 cb 00 00 00    	ja     804a933 <printOperand+0xfa>
 804a868:	8b 04 85 bc 3b 05 08 	mov    0x8053bbc(,%eax,4),%eax
 804a86f:	ff e0                	jmp    *%eax
 804a871:	8b 45 08             	mov    0x8(%ebp),%eax
 804a874:	8b 40 04             	mov    0x4(%eax),%eax
 804a877:	83 ec 08             	sub    $0x8,%esp
 804a87a:	ff 75 0c             	pushl  0xc(%ebp)
 804a87d:	50                   	push   %eax
 804a87e:	e8 2d e1 ff ff       	call   80489b0 <fputs@plt>
 804a883:	83 c4 10             	add    $0x10,%esp
 804a886:	e9 c2 00 00 00       	jmp    804a94d <printOperand+0x114>
 804a88b:	8b 45 08             	mov    0x8(%ebp),%eax
 804a88e:	8b 40 04             	mov    0x4(%eax),%eax
 804a891:	83 ec 04             	sub    $0x4,%esp
 804a894:	50                   	push   %eax
 804a895:	68 a7 3b 05 08       	push   $0x8053ba7
 804a89a:	ff 75 0c             	pushl  0xc(%ebp)
 804a89d:	e8 3e e0 ff ff       	call   80488e0 <fprintf@plt>
 804a8a2:	83 c4 10             	add    $0x10,%esp
 804a8a5:	e9 a3 00 00 00       	jmp    804a94d <printOperand+0x114>
 804a8aa:	8b 45 08             	mov    0x8(%ebp),%eax
 804a8ad:	8b 40 04             	mov    0x4(%eax),%eax
 804a8b0:	83 ec 04             	sub    $0x4,%esp
 804a8b3:	50                   	push   %eax
 804a8b4:	68 ab 3b 05 08       	push   $0x8053bab
 804a8b9:	ff 75 0c             	pushl  0xc(%ebp)
 804a8bc:	e8 1f e0 ff ff       	call   80488e0 <fprintf@plt>
 804a8c1:	83 c4 10             	add    $0x10,%esp
 804a8c4:	e9 84 00 00 00       	jmp    804a94d <printOperand+0x114>
 804a8c9:	8b 45 08             	mov    0x8(%ebp),%eax
 804a8cc:	8b 40 04             	mov    0x4(%eax),%eax
 804a8cf:	83 ec 04             	sub    $0x4,%esp
 804a8d2:	50                   	push   %eax
 804a8d3:	68 af 3b 05 08       	push   $0x8053baf
 804a8d8:	ff 75 0c             	pushl  0xc(%ebp)
 804a8db:	e8 00 e0 ff ff       	call   80488e0 <fprintf@plt>
 804a8e0:	83 c4 10             	add    $0x10,%esp
 804a8e3:	eb 68                	jmp    804a94d <printOperand+0x114>
 804a8e5:	83 ec 08             	sub    $0x8,%esp
 804a8e8:	ff 75 0c             	pushl  0xc(%ebp)
 804a8eb:	6a 26                	push   $0x26
 804a8ed:	e8 5e e0 ff ff       	call   8048950 <fputc@plt>
 804a8f2:	83 c4 10             	add    $0x10,%esp
 804a8f5:	8b 45 08             	mov    0x8(%ebp),%eax
 804a8f8:	8b 40 04             	mov    0x4(%eax),%eax
 804a8fb:	83 ec 08             	sub    $0x8,%esp
 804a8fe:	ff 75 0c             	pushl  0xc(%ebp)
 804a901:	50                   	push   %eax
 804a902:	e8 32 ff ff ff       	call   804a839 <printOperand>
 804a907:	83 c4 10             	add    $0x10,%esp
 804a90a:	eb 41                	jmp    804a94d <printOperand+0x114>
 804a90c:	83 ec 08             	sub    $0x8,%esp
 804a90f:	ff 75 0c             	pushl  0xc(%ebp)
 804a912:	6a 2a                	push   $0x2a
 804a914:	e8 37 e0 ff ff       	call   8048950 <fputc@plt>
 804a919:	83 c4 10             	add    $0x10,%esp
 804a91c:	8b 45 08             	mov    0x8(%ebp),%eax
 804a91f:	8b 40 04             	mov    0x4(%eax),%eax
 804a922:	83 ec 08             	sub    $0x8,%esp
 804a925:	ff 75 0c             	pushl  0xc(%ebp)
 804a928:	50                   	push   %eax
 804a929:	e8 0b ff ff ff       	call   804a839 <printOperand>
 804a92e:	83 c4 10             	add    $0x10,%esp
 804a931:	eb 1a                	jmp    804a94d <printOperand+0x114>
 804a933:	8b 45 08             	mov    0x8(%ebp),%eax
 804a936:	8b 40 04             	mov    0x4(%eax),%eax
 804a939:	83 ec 04             	sub    $0x4,%esp
 804a93c:	50                   	push   %eax
 804a93d:	68 b7 3b 05 08       	push   $0x8053bb7
 804a942:	ff 75 0c             	pushl  0xc(%ebp)
 804a945:	e8 96 df ff ff       	call   80488e0 <fprintf@plt>
 804a94a:	83 c4 10             	add    $0x10,%esp
 804a94d:	c9                   	leave  
 804a94e:	c3                   	ret    

0804a94f <printInterCodes>:
 804a94f:	55                   	push   %ebp
 804a950:	89 e5                	mov    %esp,%ebp
 804a952:	83 ec 18             	sub    $0x18,%esp
 804a955:	83 7d 08 00          	cmpl   $0x0,0x8(%ebp)
 804a959:	75 1a                	jne    804a975 <printInterCodes+0x26>
 804a95b:	83 ec 0c             	sub    $0xc,%esp
 804a95e:	68 d8 3b 05 08       	push   $0x8053bd8
 804a963:	e8 28 df ff ff       	call   8048890 <puts@plt>
 804a968:	83 c4 10             	add    $0x10,%esp
 804a96b:	b8 00 00 00 00       	mov    $0x0,%eax
 804a970:	e9 f5 07 00 00       	jmp    804b16a <printInterCodes+0x81b>
 804a975:	83 7d 0c 00          	cmpl   $0x0,0xc(%ebp)
 804a979:	75 08                	jne    804a983 <printInterCodes+0x34>
 804a97b:	a1 04 81 05 08       	mov    0x8058104,%eax
 804a980:	89 45 0c             	mov    %eax,0xc(%ebp)
 804a983:	c7 45 f4 00 00 00 00 	movl   $0x0,-0xc(%ebp)
 804a98a:	e9 ce 07 00 00       	jmp    804b15d <printInterCodes+0x80e>
 804a98f:	8b 45 08             	mov    0x8(%ebp),%eax
 804a992:	8b 00                	mov    (%eax),%eax
 804a994:	83 f8 16             	cmp    $0x16,%eax
 804a997:	0f 87 90 07 00 00    	ja     804b12d <printInterCodes+0x7de>
 804a99d:	8b 04 85 7c 3c 05 08 	mov    0x8053c7c(,%eax,4),%eax
 804a9a4:	ff e0                	jmp    *%eax
 804a9a6:	8b 45 08             	mov    0x8(%ebp),%eax
 804a9a9:	8b 40 04             	mov    0x4(%eax),%eax
 804a9ac:	83 ec 08             	sub    $0x8,%esp
 804a9af:	ff 75 0c             	pushl  0xc(%ebp)
 804a9b2:	50                   	push   %eax
 804a9b3:	e8 81 fe ff ff       	call   804a839 <printOperand>
 804a9b8:	83 c4 10             	add    $0x10,%esp
 804a9bb:	ff 75 0c             	pushl  0xc(%ebp)
 804a9be:	6a 04                	push   $0x4
 804a9c0:	6a 01                	push   $0x1
 804a9c2:	68 dd 3b 05 08       	push   $0x8053bdd
 804a9c7:	e8 74 de ff ff       	call   8048840 <fwrite@plt>
 804a9cc:	83 c4 10             	add    $0x10,%esp
 804a9cf:	8b 45 08             	mov    0x8(%ebp),%eax
 804a9d2:	8b 40 08             	mov    0x8(%eax),%eax
 804a9d5:	83 ec 08             	sub    $0x8,%esp
 804a9d8:	ff 75 0c             	pushl  0xc(%ebp)
 804a9db:	50                   	push   %eax
 804a9dc:	e8 58 fe ff ff       	call   804a839 <printOperand>
 804a9e1:	83 c4 10             	add    $0x10,%esp
 804a9e4:	e9 57 07 00 00       	jmp    804b140 <printInterCodes+0x7f1>
 804a9e9:	8b 45 08             	mov    0x8(%ebp),%eax
 804a9ec:	8b 40 04             	mov    0x4(%eax),%eax
 804a9ef:	83 ec 08             	sub    $0x8,%esp
 804a9f2:	ff 75 0c             	pushl  0xc(%ebp)
 804a9f5:	50                   	push   %eax
 804a9f6:	e8 3e fe ff ff       	call   804a839 <printOperand>
 804a9fb:	83 c4 10             	add    $0x10,%esp
 804a9fe:	ff 75 0c             	pushl  0xc(%ebp)
 804aa01:	6a 04                	push   $0x4
 804aa03:	6a 01                	push   $0x1
 804aa05:	68 dd 3b 05 08       	push   $0x8053bdd
 804aa0a:	e8 31 de ff ff       	call   8048840 <fwrite@plt>
 804aa0f:	83 c4 10             	add    $0x10,%esp
 804aa12:	8b 45 08             	mov    0x8(%ebp),%eax
 804aa15:	8b 40 08             	mov    0x8(%eax),%eax
 804aa18:	83 ec 08             	sub    $0x8,%esp
 804aa1b:	ff 75 0c             	pushl  0xc(%ebp)
 804aa1e:	50                   	push   %eax
 804aa1f:	e8 15 fe ff ff       	call   804a839 <printOperand>
 804aa24:	83 c4 10             	add    $0x10,%esp
 804aa27:	ff 75 0c             	pushl  0xc(%ebp)
 804aa2a:	6a 03                	push   $0x3
 804aa2c:	6a 01                	push   $0x1
 804aa2e:	68 e2 3b 05 08       	push   $0x8053be2
 804aa33:	e8 08 de ff ff       	call   8048840 <fwrite@plt>
 804aa38:	83 c4 10             	add    $0x10,%esp
 804aa3b:	8b 45 08             	mov    0x8(%ebp),%eax
 804aa3e:	8b 40 0c             	mov    0xc(%eax),%eax
 804aa41:	83 ec 08             	sub    $0x8,%esp
 804aa44:	ff 75 0c             	pushl  0xc(%ebp)
 804aa47:	50                   	push   %eax
 804aa48:	e8 ec fd ff ff       	call   804a839 <printOperand>
 804aa4d:	83 c4 10             	add    $0x10,%esp
 804aa50:	e9 eb 06 00 00       	jmp    804b140 <printInterCodes+0x7f1>
 804aa55:	8b 45 08             	mov    0x8(%ebp),%eax
 804aa58:	8b 40 04             	mov    0x4(%eax),%eax
 804aa5b:	83 ec 08             	sub    $0x8,%esp
 804aa5e:	ff 75 0c             	pushl  0xc(%ebp)
 804aa61:	50                   	push   %eax
 804aa62:	e8 d2 fd ff ff       	call   804a839 <printOperand>
 804aa67:	83 c4 10             	add    $0x10,%esp
 804aa6a:	ff 75 0c             	pushl  0xc(%ebp)
 804aa6d:	6a 04                	push   $0x4
 804aa6f:	6a 01                	push   $0x1
 804aa71:	68 dd 3b 05 08       	push   $0x8053bdd
 804aa76:	e8 c5 dd ff ff       	call   8048840 <fwrite@plt>
 804aa7b:	83 c4 10             	add    $0x10,%esp
 804aa7e:	8b 45 08             	mov    0x8(%ebp),%eax
 804aa81:	8b 40 08             	mov    0x8(%eax),%eax
 804aa84:	83 ec 08             	sub    $0x8,%esp
 804aa87:	ff 75 0c             	pushl  0xc(%ebp)
 804aa8a:	50                   	push   %eax
 804aa8b:	e8 a9 fd ff ff       	call   804a839 <printOperand>
 804aa90:	83 c4 10             	add    $0x10,%esp
 804aa93:	ff 75 0c             	pushl  0xc(%ebp)
 804aa96:	6a 03                	push   $0x3
 804aa98:	6a 01                	push   $0x1
 804aa9a:	68 e6 3b 05 08       	push   $0x8053be6
 804aa9f:	e8 9c dd ff ff       	call   8048840 <fwrite@plt>
 804aaa4:	83 c4 10             	add    $0x10,%esp
 804aaa7:	8b 45 08             	mov    0x8(%ebp),%eax
 804aaaa:	8b 40 0c             	mov    0xc(%eax),%eax
 804aaad:	83 ec 08             	sub    $0x8,%esp
 804aab0:	ff 75 0c             	pushl  0xc(%ebp)
 804aab3:	50                   	push   %eax
 804aab4:	e8 80 fd ff ff       	call   804a839 <printOperand>
 804aab9:	83 c4 10             	add    $0x10,%esp
 804aabc:	e9 7f 06 00 00       	jmp    804b140 <printInterCodes+0x7f1>
 804aac1:	8b 45 08             	mov    0x8(%ebp),%eax
 804aac4:	8b 40 04             	mov    0x4(%eax),%eax
 804aac7:	83 ec 08             	sub    $0x8,%esp
 804aaca:	ff 75 0c             	pushl  0xc(%ebp)
 804aacd:	50                   	push   %eax
 804aace:	e8 66 fd ff ff       	call   804a839 <printOperand>
 804aad3:	83 c4 10             	add    $0x10,%esp
 804aad6:	ff 75 0c             	pushl  0xc(%ebp)
 804aad9:	6a 04                	push   $0x4
 804aadb:	6a 01                	push   $0x1
 804aadd:	68 dd 3b 05 08       	push   $0x8053bdd
 804aae2:	e8 59 dd ff ff       	call   8048840 <fwrite@plt>
 804aae7:	83 c4 10             	add    $0x10,%esp
 804aaea:	8b 45 08             	mov    0x8(%ebp),%eax
 804aaed:	8b 40 08             	mov    0x8(%eax),%eax
 804aaf0:	83 ec 08             	sub    $0x8,%esp
 804aaf3:	ff 75 0c             	pushl  0xc(%ebp)
 804aaf6:	50                   	push   %eax
 804aaf7:	e8 3d fd ff ff       	call   804a839 <printOperand>
 804aafc:	83 c4 10             	add    $0x10,%esp
 804aaff:	ff 75 0c             	pushl  0xc(%ebp)
 804ab02:	6a 03                	push   $0x3
 804ab04:	6a 01                	push   $0x1
 804ab06:	68 ea 3b 05 08       	push   $0x8053bea
 804ab0b:	e8 30 dd ff ff       	call   8048840 <fwrite@plt>
 804ab10:	83 c4 10             	add    $0x10,%esp
 804ab13:	8b 45 08             	mov    0x8(%ebp),%eax
 804ab16:	8b 40 0c             	mov    0xc(%eax),%eax
 804ab19:	83 ec 08             	sub    $0x8,%esp
 804ab1c:	ff 75 0c             	pushl  0xc(%ebp)
 804ab1f:	50                   	push   %eax
 804ab20:	e8 14 fd ff ff       	call   804a839 <printOperand>
 804ab25:	83 c4 10             	add    $0x10,%esp
 804ab28:	e9 13 06 00 00       	jmp    804b140 <printInterCodes+0x7f1>
 804ab2d:	8b 45 08             	mov    0x8(%ebp),%eax
 804ab30:	8b 40 04             	mov    0x4(%eax),%eax
 804ab33:	83 ec 08             	sub    $0x8,%esp
 804ab36:	ff 75 0c             	pushl  0xc(%ebp)
 804ab39:	50                   	push   %eax
 804ab3a:	e8 fa fc ff ff       	call   804a839 <printOperand>
 804ab3f:	83 c4 10             	add    $0x10,%esp
 804ab42:	ff 75 0c             	pushl  0xc(%ebp)
 804ab45:	6a 04                	push   $0x4
 804ab47:	6a 01                	push   $0x1
 804ab49:	68 dd 3b 05 08       	push   $0x8053bdd
 804ab4e:	e8 ed dc ff ff       	call   8048840 <fwrite@plt>
 804ab53:	83 c4 10             	add    $0x10,%esp
 804ab56:	8b 45 08             	mov    0x8(%ebp),%eax
 804ab59:	8b 40 08             	mov    0x8(%eax),%eax
 804ab5c:	83 ec 08             	sub    $0x8,%esp
 804ab5f:	ff 75 0c             	pushl  0xc(%ebp)
 804ab62:	50                   	push   %eax
 804ab63:	e8 d1 fc ff ff       	call   804a839 <printOperand>
 804ab68:	83 c4 10             	add    $0x10,%esp
 804ab6b:	ff 75 0c             	pushl  0xc(%ebp)
 804ab6e:	6a 03                	push   $0x3
 804ab70:	6a 01                	push   $0x1
 804ab72:	68 ee 3b 05 08       	push   $0x8053bee
 804ab77:	e8 c4 dc ff ff       	call   8048840 <fwrite@plt>
 804ab7c:	83 c4 10             	add    $0x10,%esp
 804ab7f:	8b 45 08             	mov    0x8(%ebp),%eax
 804ab82:	8b 40 0c             	mov    0xc(%eax),%eax
 804ab85:	83 ec 08             	sub    $0x8,%esp
 804ab88:	ff 75 0c             	pushl  0xc(%ebp)
 804ab8b:	50                   	push   %eax
 804ab8c:	e8 a8 fc ff ff       	call   804a839 <printOperand>
 804ab91:	83 c4 10             	add    $0x10,%esp
 804ab94:	e9 a7 05 00 00       	jmp    804b140 <printInterCodes+0x7f1>
 804ab99:	ff 75 0c             	pushl  0xc(%ebp)
 804ab9c:	6a 04                	push   $0x4
 804ab9e:	6a 01                	push   $0x1
 804aba0:	68 f2 3b 05 08       	push   $0x8053bf2
 804aba5:	e8 96 dc ff ff       	call   8048840 <fwrite@plt>
 804abaa:	83 c4 10             	add    $0x10,%esp
 804abad:	8b 45 08             	mov    0x8(%ebp),%eax
 804abb0:	8b 40 08             	mov    0x8(%eax),%eax
 804abb3:	83 ec 08             	sub    $0x8,%esp
 804abb6:	ff 75 0c             	pushl  0xc(%ebp)
 804abb9:	50                   	push   %eax
 804abba:	e8 7a fc ff ff       	call   804a839 <printOperand>
 804abbf:	83 c4 10             	add    $0x10,%esp
 804abc2:	8b 45 08             	mov    0x8(%ebp),%eax
 804abc5:	8b 40 0c             	mov    0xc(%eax),%eax
 804abc8:	85 c0                	test   %eax,%eax
 804abca:	0f 84 6f 05 00 00    	je     804b13f <printInterCodes+0x7f0>
 804abd0:	8b 45 08             	mov    0x8(%ebp),%eax
 804abd3:	8b 40 0c             	mov    0xc(%eax),%eax
 804abd6:	8b 40 04             	mov    0x4(%eax),%eax
 804abd9:	83 ec 04             	sub    $0x4,%esp
 804abdc:	50                   	push   %eax
 804abdd:	68 f7 3b 05 08       	push   $0x8053bf7
 804abe2:	ff 75 0c             	pushl  0xc(%ebp)
 804abe5:	e8 f6 dc ff ff       	call   80488e0 <fprintf@plt>
 804abea:	83 c4 10             	add    $0x10,%esp
 804abed:	e9 4d 05 00 00       	jmp    804b13f <printInterCodes+0x7f0>
 804abf2:	8b 45 08             	mov    0x8(%ebp),%eax
 804abf5:	8b 40 08             	mov    0x8(%eax),%eax
 804abf8:	8b 40 04             	mov    0x4(%eax),%eax
 804abfb:	83 ec 04             	sub    $0x4,%esp
 804abfe:	50                   	push   %eax
 804abff:	68 fb 3b 05 08       	push   $0x8053bfb
 804ac04:	ff 75 0c             	pushl  0xc(%ebp)
 804ac07:	e8 d4 dc ff ff       	call   80488e0 <fprintf@plt>
 804ac0c:	83 c4 10             	add    $0x10,%esp
 804ac0f:	e9 2c 05 00 00       	jmp    804b140 <printInterCodes+0x7f1>
 804ac14:	ff 75 0c             	pushl  0xc(%ebp)
 804ac17:	6a 06                	push   $0x6
 804ac19:	6a 01                	push   $0x1
 804ac1b:	68 09 3c 05 08       	push   $0x8053c09
 804ac20:	e8 1b dc ff ff       	call   8048840 <fwrite@plt>
 804ac25:	83 c4 10             	add    $0x10,%esp
 804ac28:	8b 45 08             	mov    0x8(%ebp),%eax
 804ac2b:	8b 40 08             	mov    0x8(%eax),%eax
 804ac2e:	83 ec 08             	sub    $0x8,%esp
 804ac31:	ff 75 0c             	pushl  0xc(%ebp)
 804ac34:	50                   	push   %eax
 804ac35:	e8 ff fb ff ff       	call   804a839 <printOperand>
 804ac3a:	83 c4 10             	add    $0x10,%esp
 804ac3d:	e9 fe 04 00 00       	jmp    804b140 <printInterCodes+0x7f1>
 804ac42:	ff 75 0c             	pushl  0xc(%ebp)
 804ac45:	6a 06                	push   $0x6
 804ac47:	6a 01                	push   $0x1
 804ac49:	68 10 3c 05 08       	push   $0x8053c10
 804ac4e:	e8 ed db ff ff       	call   8048840 <fwrite@plt>
 804ac53:	83 c4 10             	add    $0x10,%esp
 804ac56:	8b 45 08             	mov    0x8(%ebp),%eax
 804ac59:	8b 40 08             	mov    0x8(%eax),%eax
 804ac5c:	83 ec 08             	sub    $0x8,%esp
 804ac5f:	ff 75 0c             	pushl  0xc(%ebp)
 804ac62:	50                   	push   %eax
 804ac63:	e8 d1 fb ff ff       	call   804a839 <printOperand>
 804ac68:	83 c4 10             	add    $0x10,%esp
 804ac6b:	ff 75 0c             	pushl  0xc(%ebp)
 804ac6e:	6a 02                	push   $0x2
 804ac70:	6a 01                	push   $0x1
 804ac72:	68 17 3c 05 08       	push   $0x8053c17
 804ac77:	e8 c4 db ff ff       	call   8048840 <fwrite@plt>
 804ac7c:	83 c4 10             	add    $0x10,%esp
 804ac7f:	e9 bc 04 00 00       	jmp    804b140 <printInterCodes+0x7f1>
 804ac84:	ff 75 0c             	pushl  0xc(%ebp)
 804ac87:	6a 07                	push   $0x7
 804ac89:	6a 01                	push   $0x1
 804ac8b:	68 1a 3c 05 08       	push   $0x8053c1a
 804ac90:	e8 ab db ff ff       	call   8048840 <fwrite@plt>
 804ac95:	83 c4 10             	add    $0x10,%esp
 804ac98:	8b 45 08             	mov    0x8(%ebp),%eax
 804ac9b:	8b 40 08             	mov    0x8(%eax),%eax
 804ac9e:	83 ec 08             	sub    $0x8,%esp
 804aca1:	ff 75 0c             	pushl  0xc(%ebp)
 804aca4:	50                   	push   %eax
 804aca5:	e8 8f fb ff ff       	call   804a839 <printOperand>
 804acaa:	83 c4 10             	add    $0x10,%esp
 804acad:	e9 8e 04 00 00       	jmp    804b140 <printInterCodes+0x7f1>
 804acb2:	ff 75 0c             	pushl  0xc(%ebp)
 804acb5:	6a 05                	push   $0x5
 804acb7:	6a 01                	push   $0x1
 804acb9:	68 22 3c 05 08       	push   $0x8053c22
 804acbe:	e8 7d db ff ff       	call   8048840 <fwrite@plt>
 804acc3:	83 c4 10             	add    $0x10,%esp
 804acc6:	8b 45 08             	mov    0x8(%ebp),%eax
 804acc9:	8b 40 08             	mov    0x8(%eax),%eax
 804accc:	83 ec 08             	sub    $0x8,%esp
 804accf:	ff 75 0c             	pushl  0xc(%ebp)
 804acd2:	50                   	push   %eax
 804acd3:	e8 61 fb ff ff       	call   804a839 <printOperand>
 804acd8:	83 c4 10             	add    $0x10,%esp
 804acdb:	e9 60 04 00 00       	jmp    804b140 <printInterCodes+0x7f1>
 804ace0:	ff 75 0c             	pushl  0xc(%ebp)
 804ace3:	6a 03                	push   $0x3
 804ace5:	6a 01                	push   $0x1
 804ace7:	68 28 3c 05 08       	push   $0x8053c28
 804acec:	e8 4f db ff ff       	call   8048840 <fwrite@plt>
 804acf1:	83 c4 10             	add    $0x10,%esp
 804acf4:	8b 45 08             	mov    0x8(%ebp),%eax
 804acf7:	8b 40 08             	mov    0x8(%eax),%eax
 804acfa:	83 ec 08             	sub    $0x8,%esp
 804acfd:	ff 75 0c             	pushl  0xc(%ebp)
 804ad00:	50                   	push   %eax
 804ad01:	e8 33 fb ff ff       	call   804a839 <printOperand>
 804ad06:	83 c4 10             	add    $0x10,%esp
 804ad09:	ff 75 0c             	pushl  0xc(%ebp)
 804ad0c:	6a 03                	push   $0x3
 804ad0e:	6a 01                	push   $0x1
 804ad10:	68 2c 3c 05 08       	push   $0x8053c2c
 804ad15:	e8 26 db ff ff       	call   8048840 <fwrite@plt>
 804ad1a:	83 c4 10             	add    $0x10,%esp
 804ad1d:	8b 45 08             	mov    0x8(%ebp),%eax
 804ad20:	8b 40 0c             	mov    0xc(%eax),%eax
 804ad23:	83 ec 08             	sub    $0x8,%esp
 804ad26:	ff 75 0c             	pushl  0xc(%ebp)
 804ad29:	50                   	push   %eax
 804ad2a:	e8 0a fb ff ff       	call   804a839 <printOperand>
 804ad2f:	83 c4 10             	add    $0x10,%esp
 804ad32:	ff 75 0c             	pushl  0xc(%ebp)
 804ad35:	6a 06                	push   $0x6
 804ad37:	6a 01                	push   $0x1
 804ad39:	68 30 3c 05 08       	push   $0x8053c30
 804ad3e:	e8 fd da ff ff       	call   8048840 <fwrite@plt>
 804ad43:	83 c4 10             	add    $0x10,%esp
 804ad46:	8b 45 08             	mov    0x8(%ebp),%eax
 804ad49:	8b 40 04             	mov    0x4(%eax),%eax
 804ad4c:	83 ec 08             	sub    $0x8,%esp
 804ad4f:	ff 75 0c             	pushl  0xc(%ebp)
 804ad52:	50                   	push   %eax
 804ad53:	e8 e1 fa ff ff       	call   804a839 <printOperand>
 804ad58:	83 c4 10             	add    $0x10,%esp
 804ad5b:	e9 e0 03 00 00       	jmp    804b140 <printInterCodes+0x7f1>
 804ad60:	ff 75 0c             	pushl  0xc(%ebp)
 804ad63:	6a 03                	push   $0x3
 804ad65:	6a 01                	push   $0x1
 804ad67:	68 28 3c 05 08       	push   $0x8053c28
 804ad6c:	e8 cf da ff ff       	call   8048840 <fwrite@plt>
 804ad71:	83 c4 10             	add    $0x10,%esp
 804ad74:	8b 45 08             	mov    0x8(%ebp),%eax
 804ad77:	8b 40 08             	mov    0x8(%eax),%eax
 804ad7a:	83 ec 08             	sub    $0x8,%esp
 804ad7d:	ff 75 0c             	pushl  0xc(%ebp)
 804ad80:	50                   	push   %eax
 804ad81:	e8 b3 fa ff ff       	call   804a839 <printOperand>
 804ad86:	83 c4 10             	add    $0x10,%esp
 804ad89:	ff 75 0c             	pushl  0xc(%ebp)
 804ad8c:	6a 03                	push   $0x3
 804ad8e:	6a 01                	push   $0x1
 804ad90:	68 37 3c 05 08       	push   $0x8053c37
 804ad95:	e8 a6 da ff ff       	call   8048840 <fwrite@plt>
 804ad9a:	83 c4 10             	add    $0x10,%esp
 804ad9d:	8b 45 08             	mov    0x8(%ebp),%eax
 804ada0:	8b 40 0c             	mov    0xc(%eax),%eax
 804ada3:	83 ec 08             	sub    $0x8,%esp
 804ada6:	ff 75 0c             	pushl  0xc(%ebp)
 804ada9:	50                   	push   %eax
 804adaa:	e8 8a fa ff ff       	call   804a839 <printOperand>
 804adaf:	83 c4 10             	add    $0x10,%esp
 804adb2:	ff 75 0c             	pushl  0xc(%ebp)
 804adb5:	6a 06                	push   $0x6
 804adb7:	6a 01                	push   $0x1
 804adb9:	68 30 3c 05 08       	push   $0x8053c30
 804adbe:	e8 7d da ff ff       	call   8048840 <fwrite@plt>
 804adc3:	83 c4 10             	add    $0x10,%esp
 804adc6:	8b 45 08             	mov    0x8(%ebp),%eax
 804adc9:	8b 40 04             	mov    0x4(%eax),%eax
 804adcc:	83 ec 08             	sub    $0x8,%esp
 804adcf:	ff 75 0c             	pushl  0xc(%ebp)
 804add2:	50                   	push   %eax
 804add3:	e8 61 fa ff ff       	call   804a839 <printOperand>
 804add8:	83 c4 10             	add    $0x10,%esp
 804addb:	e9 60 03 00 00       	jmp    804b140 <printInterCodes+0x7f1>
 804ade0:	ff 75 0c             	pushl  0xc(%ebp)
 804ade3:	6a 03                	push   $0x3
 804ade5:	6a 01                	push   $0x1
 804ade7:	68 28 3c 05 08       	push   $0x8053c28
 804adec:	e8 4f da ff ff       	call   8048840 <fwrite@plt>
 804adf1:	83 c4 10             	add    $0x10,%esp
 804adf4:	8b 45 08             	mov    0x8(%ebp),%eax
 804adf7:	8b 40 08             	mov    0x8(%eax),%eax
 804adfa:	83 ec 08             	sub    $0x8,%esp
 804adfd:	ff 75 0c             	pushl  0xc(%ebp)
 804ae00:	50                   	push   %eax
 804ae01:	e8 33 fa ff ff       	call   804a839 <printOperand>
 804ae06:	83 c4 10             	add    $0x10,%esp
 804ae09:	ff 75 0c             	pushl  0xc(%ebp)
 804ae0c:	6a 04                	push   $0x4
 804ae0e:	6a 01                	push   $0x1
 804ae10:	68 3b 3c 05 08       	push   $0x8053c3b
 804ae15:	e8 26 da ff ff       	call   8048840 <fwrite@plt>
 804ae1a:	83 c4 10             	add    $0x10,%esp
 804ae1d:	8b 45 08             	mov    0x8(%ebp),%eax
 804ae20:	8b 40 0c             	mov    0xc(%eax),%eax
 804ae23:	83 ec 08             	sub    $0x8,%esp
 804ae26:	ff 75 0c             	pushl  0xc(%ebp)
 804ae29:	50                   	push   %eax
 804ae2a:	e8 0a fa ff ff       	call   804a839 <printOperand>
 804ae2f:	83 c4 10             	add    $0x10,%esp
 804ae32:	ff 75 0c             	pushl  0xc(%ebp)
 804ae35:	6a 06                	push   $0x6
 804ae37:	6a 01                	push   $0x1
 804ae39:	68 30 3c 05 08       	push   $0x8053c30
 804ae3e:	e8 fd d9 ff ff       	call   8048840 <fwrite@plt>
 804ae43:	83 c4 10             	add    $0x10,%esp
 804ae46:	8b 45 08             	mov    0x8(%ebp),%eax
 804ae49:	8b 40 04             	mov    0x4(%eax),%eax
 804ae4c:	83 ec 08             	sub    $0x8,%esp
 804ae4f:	ff 75 0c             	pushl  0xc(%ebp)
 804ae52:	50                   	push   %eax
 804ae53:	e8 e1 f9 ff ff       	call   804a839 <printOperand>
 804ae58:	83 c4 10             	add    $0x10,%esp
 804ae5b:	e9 e0 02 00 00       	jmp    804b140 <printInterCodes+0x7f1>
 804ae60:	ff 75 0c             	pushl  0xc(%ebp)
 804ae63:	6a 03                	push   $0x3
 804ae65:	6a 01                	push   $0x1
 804ae67:	68 28 3c 05 08       	push   $0x8053c28
 804ae6c:	e8 cf d9 ff ff       	call   8048840 <fwrite@plt>
 804ae71:	83 c4 10             	add    $0x10,%esp
 804ae74:	8b 45 08             	mov    0x8(%ebp),%eax
 804ae77:	8b 40 08             	mov    0x8(%eax),%eax
 804ae7a:	83 ec 08             	sub    $0x8,%esp
 804ae7d:	ff 75 0c             	pushl  0xc(%ebp)
 804ae80:	50                   	push   %eax
 804ae81:	e8 b3 f9 ff ff       	call   804a839 <printOperand>
 804ae86:	83 c4 10             	add    $0x10,%esp
 804ae89:	ff 75 0c             	pushl  0xc(%ebp)
 804ae8c:	6a 04                	push   $0x4
 804ae8e:	6a 01                	push   $0x1
 804ae90:	68 40 3c 05 08       	push   $0x8053c40
 804ae95:	e8 a6 d9 ff ff       	call   8048840 <fwrite@plt>
 804ae9a:	83 c4 10             	add    $0x10,%esp
 804ae9d:	8b 45 08             	mov    0x8(%ebp),%eax
 804aea0:	8b 40 0c             	mov    0xc(%eax),%eax
 804aea3:	83 ec 08             	sub    $0x8,%esp
 804aea6:	ff 75 0c             	pushl  0xc(%ebp)
 804aea9:	50                   	push   %eax
 804aeaa:	e8 8a f9 ff ff       	call   804a839 <printOperand>
 804aeaf:	83 c4 10             	add    $0x10,%esp
 804aeb2:	ff 75 0c             	pushl  0xc(%ebp)
 804aeb5:	6a 06                	push   $0x6
 804aeb7:	6a 01                	push   $0x1
 804aeb9:	68 30 3c 05 08       	push   $0x8053c30
 804aebe:	e8 7d d9 ff ff       	call   8048840 <fwrite@plt>
 804aec3:	83 c4 10             	add    $0x10,%esp
 804aec6:	8b 45 08             	mov    0x8(%ebp),%eax
 804aec9:	8b 40 04             	mov    0x4(%eax),%eax
 804aecc:	83 ec 08             	sub    $0x8,%esp
 804aecf:	ff 75 0c             	pushl  0xc(%ebp)
 804aed2:	50                   	push   %eax
 804aed3:	e8 61 f9 ff ff       	call   804a839 <printOperand>
 804aed8:	83 c4 10             	add    $0x10,%esp
 804aedb:	e9 60 02 00 00       	jmp    804b140 <printInterCodes+0x7f1>
 804aee0:	ff 75 0c             	pushl  0xc(%ebp)
 804aee3:	6a 03                	push   $0x3
 804aee5:	6a 01                	push   $0x1
 804aee7:	68 28 3c 05 08       	push   $0x8053c28
 804aeec:	e8 4f d9 ff ff       	call   8048840 <fwrite@plt>
 804aef1:	83 c4 10             	add    $0x10,%esp
 804aef4:	8b 45 08             	mov    0x8(%ebp),%eax
 804aef7:	8b 40 08             	mov    0x8(%eax),%eax
 804aefa:	83 ec 08             	sub    $0x8,%esp
 804aefd:	ff 75 0c             	pushl  0xc(%ebp)
 804af00:	50                   	push   %eax
 804af01:	e8 33 f9 ff ff       	call   804a839 <printOperand>
 804af06:	83 c4 10             	add    $0x10,%esp
 804af09:	ff 75 0c             	pushl  0xc(%ebp)
 804af0c:	6a 04                	push   $0x4
 804af0e:	6a 01                	push   $0x1
 804af10:	68 45 3c 05 08       	push   $0x8053c45
 804af15:	e8 26 d9 ff ff       	call   8048840 <fwrite@plt>
 804af1a:	83 c4 10             	add    $0x10,%esp
 804af1d:	8b 45 08             	mov    0x8(%ebp),%eax
 804af20:	8b 40 0c             	mov    0xc(%eax),%eax
 804af23:	83 ec 08             	sub    $0x8,%esp
 804af26:	ff 75 0c             	pushl  0xc(%ebp)
 804af29:	50                   	push   %eax
 804af2a:	e8 0a f9 ff ff       	call   804a839 <printOperand>
 804af2f:	83 c4 10             	add    $0x10,%esp
 804af32:	ff 75 0c             	pushl  0xc(%ebp)
 804af35:	6a 06                	push   $0x6
 804af37:	6a 01                	push   $0x1
 804af39:	68 30 3c 05 08       	push   $0x8053c30
 804af3e:	e8 fd d8 ff ff       	call   8048840 <fwrite@plt>
 804af43:	83 c4 10             	add    $0x10,%esp
 804af46:	8b 45 08             	mov    0x8(%ebp),%eax
 804af49:	8b 40 04             	mov    0x4(%eax),%eax
 804af4c:	83 ec 08             	sub    $0x8,%esp
 804af4f:	ff 75 0c             	pushl  0xc(%ebp)
 804af52:	50                   	push   %eax
 804af53:	e8 e1 f8 ff ff       	call   804a839 <printOperand>
 804af58:	83 c4 10             	add    $0x10,%esp
 804af5b:	e9 e0 01 00 00       	jmp    804b140 <printInterCodes+0x7f1>
 804af60:	ff 75 0c             	pushl  0xc(%ebp)
 804af63:	6a 03                	push   $0x3
 804af65:	6a 01                	push   $0x1
 804af67:	68 28 3c 05 08       	push   $0x8053c28
 804af6c:	e8 cf d8 ff ff       	call   8048840 <fwrite@plt>
 804af71:	83 c4 10             	add    $0x10,%esp
 804af74:	8b 45 08             	mov    0x8(%ebp),%eax
 804af77:	8b 40 08             	mov    0x8(%eax),%eax
 804af7a:	83 ec 08             	sub    $0x8,%esp
 804af7d:	ff 75 0c             	pushl  0xc(%ebp)
 804af80:	50                   	push   %eax
 804af81:	e8 b3 f8 ff ff       	call   804a839 <printOperand>
 804af86:	83 c4 10             	add    $0x10,%esp
 804af89:	ff 75 0c             	pushl  0xc(%ebp)
 804af8c:	6a 04                	push   $0x4
 804af8e:	6a 01                	push   $0x1
 804af90:	68 4a 3c 05 08       	push   $0x8053c4a
 804af95:	e8 a6 d8 ff ff       	call   8048840 <fwrite@plt>
 804af9a:	83 c4 10             	add    $0x10,%esp
 804af9d:	8b 45 08             	mov    0x8(%ebp),%eax
 804afa0:	8b 40 0c             	mov    0xc(%eax),%eax
 804afa3:	83 ec 08             	sub    $0x8,%esp
 804afa6:	ff 75 0c             	pushl  0xc(%ebp)
 804afa9:	50                   	push   %eax
 804afaa:	e8 8a f8 ff ff       	call   804a839 <printOperand>
 804afaf:	83 c4 10             	add    $0x10,%esp
 804afb2:	ff 75 0c             	pushl  0xc(%ebp)
 804afb5:	6a 06                	push   $0x6
 804afb7:	6a 01                	push   $0x1
 804afb9:	68 30 3c 05 08       	push   $0x8053c30
 804afbe:	e8 7d d8 ff ff       	call   8048840 <fwrite@plt>
 804afc3:	83 c4 10             	add    $0x10,%esp
 804afc6:	8b 45 08             	mov    0x8(%ebp),%eax
 804afc9:	8b 40 04             	mov    0x4(%eax),%eax
 804afcc:	83 ec 08             	sub    $0x8,%esp
 804afcf:	ff 75 0c             	pushl  0xc(%ebp)
 804afd2:	50                   	push   %eax
 804afd3:	e8 61 f8 ff ff       	call   804a839 <printOperand>
 804afd8:	83 c4 10             	add    $0x10,%esp
 804afdb:	e9 60 01 00 00       	jmp    804b140 <printInterCodes+0x7f1>
 804afe0:	ff 75 0c             	pushl  0xc(%ebp)
 804afe3:	6a 04                	push   $0x4
 804afe5:	6a 01                	push   $0x1
 804afe7:	68 4f 3c 05 08       	push   $0x8053c4f
 804afec:	e8 4f d8 ff ff       	call   8048840 <fwrite@plt>
 804aff1:	83 c4 10             	add    $0x10,%esp
 804aff4:	8b 45 08             	mov    0x8(%ebp),%eax
 804aff7:	8b 40 08             	mov    0x8(%eax),%eax
 804affa:	83 ec 08             	sub    $0x8,%esp
 804affd:	ff 75 0c             	pushl  0xc(%ebp)
 804b000:	50                   	push   %eax
 804b001:	e8 33 f8 ff ff       	call   804a839 <printOperand>
 804b006:	83 c4 10             	add    $0x10,%esp
 804b009:	e9 32 01 00 00       	jmp    804b140 <printInterCodes+0x7f1>
 804b00e:	8b 45 08             	mov    0x8(%ebp),%eax
 804b011:	8b 40 04             	mov    0x4(%eax),%eax
 804b014:	83 ec 08             	sub    $0x8,%esp
 804b017:	ff 75 0c             	pushl  0xc(%ebp)
 804b01a:	50                   	push   %eax
 804b01b:	e8 19 f8 ff ff       	call   804a839 <printOperand>
 804b020:	83 c4 10             	add    $0x10,%esp
 804b023:	ff 75 0c             	pushl  0xc(%ebp)
 804b026:	6a 09                	push   $0x9
 804b028:	6a 01                	push   $0x1
 804b02a:	68 54 3c 05 08       	push   $0x8053c54
 804b02f:	e8 0c d8 ff ff       	call   8048840 <fwrite@plt>
 804b034:	83 c4 10             	add    $0x10,%esp
 804b037:	8b 45 08             	mov    0x8(%ebp),%eax
 804b03a:	8b 40 08             	mov    0x8(%eax),%eax
 804b03d:	83 ec 08             	sub    $0x8,%esp
 804b040:	ff 75 0c             	pushl  0xc(%ebp)
 804b043:	50                   	push   %eax
 804b044:	e8 f0 f7 ff ff       	call   804a839 <printOperand>
 804b049:	83 c4 10             	add    $0x10,%esp
 804b04c:	e9 ef 00 00 00       	jmp    804b140 <printInterCodes+0x7f1>
 804b051:	ff 75 0c             	pushl  0xc(%ebp)
 804b054:	6a 05                	push   $0x5
 804b056:	6a 01                	push   $0x1
 804b058:	68 5e 3c 05 08       	push   $0x8053c5e
 804b05d:	e8 de d7 ff ff       	call   8048840 <fwrite@plt>
 804b062:	83 c4 10             	add    $0x10,%esp
 804b065:	8b 45 08             	mov    0x8(%ebp),%eax
 804b068:	8b 40 08             	mov    0x8(%eax),%eax
 804b06b:	83 ec 08             	sub    $0x8,%esp
 804b06e:	ff 75 0c             	pushl  0xc(%ebp)
 804b071:	50                   	push   %eax
 804b072:	e8 c2 f7 ff ff       	call   804a839 <printOperand>
 804b077:	83 c4 10             	add    $0x10,%esp
 804b07a:	e9 c1 00 00 00       	jmp    804b140 <printInterCodes+0x7f1>
 804b07f:	ff 75 0c             	pushl  0xc(%ebp)
 804b082:	6a 06                	push   $0x6
 804b084:	6a 01                	push   $0x1
 804b086:	68 64 3c 05 08       	push   $0x8053c64
 804b08b:	e8 b0 d7 ff ff       	call   8048840 <fwrite@plt>
 804b090:	83 c4 10             	add    $0x10,%esp
 804b093:	8b 45 08             	mov    0x8(%ebp),%eax
 804b096:	8b 40 08             	mov    0x8(%eax),%eax
 804b099:	83 ec 08             	sub    $0x8,%esp
 804b09c:	ff 75 0c             	pushl  0xc(%ebp)
 804b09f:	50                   	push   %eax
 804b0a0:	e8 94 f7 ff ff       	call   804a839 <printOperand>
 804b0a5:	83 c4 10             	add    $0x10,%esp
 804b0a8:	e9 93 00 00 00       	jmp    804b140 <printInterCodes+0x7f1>
 804b0ad:	8b 45 08             	mov    0x8(%ebp),%eax
 804b0b0:	8b 40 04             	mov    0x4(%eax),%eax
 804b0b3:	83 ec 08             	sub    $0x8,%esp
 804b0b6:	ff 75 0c             	pushl  0xc(%ebp)
 804b0b9:	50                   	push   %eax
 804b0ba:	e8 7a f7 ff ff       	call   804a839 <printOperand>
 804b0bf:	83 c4 10             	add    $0x10,%esp
 804b0c2:	ff 75 0c             	pushl  0xc(%ebp)
 804b0c5:	6a 05                	push   $0x5
 804b0c7:	6a 01                	push   $0x1
 804b0c9:	68 6b 3c 05 08       	push   $0x8053c6b
 804b0ce:	e8 6d d7 ff ff       	call   8048840 <fwrite@plt>
 804b0d3:	83 c4 10             	add    $0x10,%esp
 804b0d6:	8b 45 08             	mov    0x8(%ebp),%eax
 804b0d9:	8b 40 08             	mov    0x8(%eax),%eax
 804b0dc:	83 ec 08             	sub    $0x8,%esp
 804b0df:	ff 75 0c             	pushl  0xc(%ebp)
 804b0e2:	50                   	push   %eax
 804b0e3:	e8 51 f7 ff ff       	call   804a839 <printOperand>
 804b0e8:	83 c4 10             	add    $0x10,%esp
 804b0eb:	eb 53                	jmp    804b140 <printInterCodes+0x7f1>
 804b0ed:	8b 45 08             	mov    0x8(%ebp),%eax
 804b0f0:	8b 40 04             	mov    0x4(%eax),%eax
 804b0f3:	83 ec 08             	sub    $0x8,%esp
 804b0f6:	ff 75 0c             	pushl  0xc(%ebp)
 804b0f9:	50                   	push   %eax
 804b0fa:	e8 3a f7 ff ff       	call   804a839 <printOperand>
 804b0ff:	83 c4 10             	add    $0x10,%esp
 804b102:	ff 75 0c             	pushl  0xc(%ebp)
 804b105:	6a 05                	push   $0x5
 804b107:	6a 01                	push   $0x1
 804b109:	68 71 3c 05 08       	push   $0x8053c71
 804b10e:	e8 2d d7 ff ff       	call   8048840 <fwrite@plt>
 804b113:	83 c4 10             	add    $0x10,%esp
 804b116:	8b 45 08             	mov    0x8(%ebp),%eax
 804b119:	8b 40 08             	mov    0x8(%eax),%eax
 804b11c:	83 ec 08             	sub    $0x8,%esp
 804b11f:	ff 75 0c             	pushl  0xc(%ebp)
 804b122:	50                   	push   %eax
 804b123:	e8 11 f7 ff ff       	call   804a839 <printOperand>
 804b128:	83 c4 10             	add    $0x10,%esp
 804b12b:	eb 13                	jmp    804b140 <printInterCodes+0x7f1>
 804b12d:	83 ec 0c             	sub    $0xc,%esp
 804b130:	68 77 3c 05 08       	push   $0x8053c77
 804b135:	e8 86 d6 ff ff       	call   80487c0 <printf@plt>
 804b13a:	83 c4 10             	add    $0x10,%esp
 804b13d:	eb 01                	jmp    804b140 <printInterCodes+0x7f1>
 804b13f:	90                   	nop
 804b140:	83 ec 08             	sub    $0x8,%esp
 804b143:	ff 75 0c             	pushl  0xc(%ebp)
 804b146:	6a 0a                	push   $0xa
 804b148:	e8 03 d8 ff ff       	call   8048950 <fputc@plt>
 804b14d:	83 c4 10             	add    $0x10,%esp
 804b150:	83 45 f4 01          	addl   $0x1,-0xc(%ebp)
 804b154:	8b 45 08             	mov    0x8(%ebp),%eax
 804b157:	8b 40 14             	mov    0x14(%eax),%eax
 804b15a:	89 45 08             	mov    %eax,0x8(%ebp)
 804b15d:	83 7d 08 00          	cmpl   $0x0,0x8(%ebp)
 804b161:	0f 85 28 f8 ff ff    	jne    804a98f <printInterCodes+0x40>
 804b167:	8b 45 f4             	mov    -0xc(%ebp),%eax
 804b16a:	c9                   	leave  
 804b16b:	c3                   	ret    

0804b16c <newInterCodes>:
 804b16c:	55                   	push   %ebp
 804b16d:	89 e5                	mov    %esp,%ebp
 804b16f:	83 ec 18             	sub    $0x18,%esp
 804b172:	83 ec 0c             	sub    $0xc,%esp
 804b175:	6a 18                	push   $0x18
 804b177:	e8 04 d7 ff ff       	call   8048880 <malloc@plt>
 804b17c:	83 c4 10             	add    $0x10,%esp
 804b17f:	89 45 f4             	mov    %eax,-0xc(%ebp)
 804b182:	83 ec 04             	sub    $0x4,%esp
 804b185:	6a 18                	push   $0x18
 804b187:	6a 00                	push   $0x0
 804b189:	ff 75 f4             	pushl  -0xc(%ebp)
 804b18c:	e8 6f d7 ff ff       	call   8048900 <memset@plt>
 804b191:	83 c4 10             	add    $0x10,%esp
 804b194:	8b 45 f4             	mov    -0xc(%ebp),%eax
 804b197:	c9                   	leave  
 804b198:	c3                   	ret    

0804b199 <newOperand>:
 804b199:	55                   	push   %ebp
 804b19a:	89 e5                	mov    %esp,%ebp
 804b19c:	83 ec 18             	sub    $0x18,%esp
 804b19f:	83 ec 0c             	sub    $0xc,%esp
 804b1a2:	6a 08                	push   $0x8
 804b1a4:	e8 d7 d6 ff ff       	call   8048880 <malloc@plt>
 804b1a9:	83 c4 10             	add    $0x10,%esp
 804b1ac:	89 45 f4             	mov    %eax,-0xc(%ebp)
 804b1af:	83 ec 04             	sub    $0x4,%esp
 804b1b2:	6a 08                	push   $0x8
 804b1b4:	6a 00                	push   $0x0
 804b1b6:	ff 75 f4             	pushl  -0xc(%ebp)
 804b1b9:	e8 42 d7 ff ff       	call   8048900 <memset@plt>
 804b1be:	83 c4 10             	add    $0x10,%esp
 804b1c1:	8b 45 f4             	mov    -0xc(%ebp),%eax
 804b1c4:	c9                   	leave  
 804b1c5:	c3                   	ret    

0804b1c6 <newOp>:
 804b1c6:	55                   	push   %ebp
 804b1c7:	89 e5                	mov    %esp,%ebp
 804b1c9:	83 ec 18             	sub    $0x18,%esp
 804b1cc:	83 ec 0c             	sub    $0xc,%esp
 804b1cf:	6a 08                	push   $0x8
 804b1d1:	e8 aa d6 ff ff       	call   8048880 <malloc@plt>
 804b1d6:	83 c4 10             	add    $0x10,%esp
 804b1d9:	89 45 f4             	mov    %eax,-0xc(%ebp)
 804b1dc:	83 ec 04             	sub    $0x4,%esp
 804b1df:	6a 08                	push   $0x8
 804b1e1:	6a 00                	push   $0x0
 804b1e3:	ff 75 f4             	pushl  -0xc(%ebp)
 804b1e6:	e8 15 d7 ff ff       	call   8048900 <memset@plt>
 804b1eb:	83 c4 10             	add    $0x10,%esp
 804b1ee:	8b 45 f4             	mov    -0xc(%ebp),%eax
 804b1f1:	8b 55 08             	mov    0x8(%ebp),%edx
 804b1f4:	89 10                	mov    %edx,(%eax)
 804b1f6:	83 7d 08 00          	cmpl   $0x0,0x8(%ebp)
 804b1fa:	75 0b                	jne    804b207 <newOp+0x41>
 804b1fc:	8b 45 f4             	mov    -0xc(%ebp),%eax
 804b1ff:	8b 55 0c             	mov    0xc(%ebp),%edx
 804b202:	89 50 04             	mov    %edx,0x4(%eax)
 804b205:	eb 20                	jmp    804b227 <newOp+0x61>
 804b207:	83 7d 08 05          	cmpl   $0x5,0x8(%ebp)
 804b20b:	74 06                	je     804b213 <newOp+0x4d>
 804b20d:	83 7d 08 06          	cmpl   $0x6,0x8(%ebp)
 804b211:	75 0b                	jne    804b21e <newOp+0x58>
 804b213:	8b 45 f4             	mov    -0xc(%ebp),%eax
 804b216:	8b 55 0c             	mov    0xc(%ebp),%edx
 804b219:	89 50 04             	mov    %edx,0x4(%eax)
 804b21c:	eb 09                	jmp    804b227 <newOp+0x61>
 804b21e:	8b 55 0c             	mov    0xc(%ebp),%edx
 804b221:	8b 45 f4             	mov    -0xc(%ebp),%eax
 804b224:	89 50 04             	mov    %edx,0x4(%eax)
 804b227:	8b 45 f4             	mov    -0xc(%ebp),%eax
 804b22a:	c9                   	leave  
 804b22b:	c3                   	ret    

0804b22c <newIC>:
 804b22c:	55                   	push   %ebp
 804b22d:	89 e5                	mov    %esp,%ebp
 804b22f:	83 ec 18             	sub    $0x18,%esp
 804b232:	83 ec 0c             	sub    $0xc,%esp
 804b235:	6a 18                	push   $0x18
 804b237:	e8 44 d6 ff ff       	call   8048880 <malloc@plt>
 804b23c:	83 c4 10             	add    $0x10,%esp
 804b23f:	89 45 f4             	mov    %eax,-0xc(%ebp)
 804b242:	83 ec 04             	sub    $0x4,%esp
 804b245:	6a 18                	push   $0x18
 804b247:	6a 00                	push   $0x0
 804b249:	ff 75 f4             	pushl  -0xc(%ebp)
 804b24c:	e8 af d6 ff ff       	call   8048900 <memset@plt>
 804b251:	83 c4 10             	add    $0x10,%esp
 804b254:	8b 45 f4             	mov    -0xc(%ebp),%eax
 804b257:	8b 55 08             	mov    0x8(%ebp),%edx
 804b25a:	89 10                	mov    %edx,(%eax)
 804b25c:	8b 45 f4             	mov    -0xc(%ebp),%eax
 804b25f:	8b 55 0c             	mov    0xc(%ebp),%edx
 804b262:	89 50 04             	mov    %edx,0x4(%eax)
 804b265:	8b 45 f4             	mov    -0xc(%ebp),%eax
 804b268:	8b 55 10             	mov    0x10(%ebp),%edx
 804b26b:	89 50 08             	mov    %edx,0x8(%eax)
 804b26e:	8b 45 f4             	mov    -0xc(%ebp),%eax
 804b271:	8b 55 14             	mov    0x14(%ebp),%edx
 804b274:	89 50 0c             	mov    %edx,0xc(%eax)
 804b277:	8b 45 f4             	mov    -0xc(%ebp),%eax
 804b27a:	c9                   	leave  
 804b27b:	c3                   	ret    

0804b27c <getRelop>:
 804b27c:	55                   	push   %ebp
 804b27d:	89 e5                	mov    %esp,%ebp
 804b27f:	83 ec 18             	sub    $0x18,%esp
 804b282:	8b 45 08             	mov    0x8(%ebp),%eax
 804b285:	8b 40 04             	mov    0x4(%eax),%eax
 804b288:	83 f8 0b             	cmp    $0xb,%eax
 804b28b:	74 19                	je     804b2a6 <getRelop+0x2a>
 804b28d:	68 10 3f 05 08       	push   $0x8053f10
 804b292:	68 31 01 00 00       	push   $0x131
 804b297:	68 98 3b 05 08       	push   $0x8053b98
 804b29c:	68 d8 3c 05 08       	push   $0x8053cd8
 804b2a1:	e8 1a d7 ff ff       	call   80489c0 <__assert_fail@plt>
 804b2a6:	8b 45 08             	mov    0x8(%ebp),%eax
 804b2a9:	8b 40 08             	mov    0x8(%eax),%eax
 804b2ac:	89 45 f4             	mov    %eax,-0xc(%ebp)
 804b2af:	c7 45 f0 11 00 00 00 	movl   $0x11,-0x10(%ebp)
 804b2b6:	83 ec 08             	sub    $0x8,%esp
 804b2b9:	68 f0 3c 05 08       	push   $0x8053cf0
 804b2be:	ff 75 f4             	pushl  -0xc(%ebp)
 804b2c1:	e8 ea d4 ff ff       	call   80487b0 <strcmp@plt>
 804b2c6:	83 c4 10             	add    $0x10,%esp
 804b2c9:	85 c0                	test   %eax,%eax
 804b2cb:	75 0c                	jne    804b2d9 <getRelop+0x5d>
 804b2cd:	c7 45 f0 0d 00 00 00 	movl   $0xd,-0x10(%ebp)
 804b2d4:	e9 bc 00 00 00       	jmp    804b395 <getRelop+0x119>
 804b2d9:	83 ec 08             	sub    $0x8,%esp
 804b2dc:	68 f2 3c 05 08       	push   $0x8053cf2
 804b2e1:	ff 75 f4             	pushl  -0xc(%ebp)
 804b2e4:	e8 c7 d4 ff ff       	call   80487b0 <strcmp@plt>
 804b2e9:	83 c4 10             	add    $0x10,%esp
 804b2ec:	85 c0                	test   %eax,%eax
 804b2ee:	75 0c                	jne    804b2fc <getRelop+0x80>
 804b2f0:	c7 45 f0 0e 00 00 00 	movl   $0xe,-0x10(%ebp)
 804b2f7:	e9 99 00 00 00       	jmp    804b395 <getRelop+0x119>
 804b2fc:	83 ec 08             	sub    $0x8,%esp
 804b2ff:	68 f4 3c 05 08       	push   $0x8053cf4
 804b304:	ff 75 f4             	pushl  -0xc(%ebp)
 804b307:	e8 a4 d4 ff ff       	call   80487b0 <strcmp@plt>
 804b30c:	83 c4 10             	add    $0x10,%esp
 804b30f:	85 c0                	test   %eax,%eax
 804b311:	75 09                	jne    804b31c <getRelop+0xa0>
 804b313:	c7 45 f0 0f 00 00 00 	movl   $0xf,-0x10(%ebp)
 804b31a:	eb 79                	jmp    804b395 <getRelop+0x119>
 804b31c:	83 ec 08             	sub    $0x8,%esp
 804b31f:	68 f7 3c 05 08       	push   $0x8053cf7
 804b324:	ff 75 f4             	pushl  -0xc(%ebp)
 804b327:	e8 84 d4 ff ff       	call   80487b0 <strcmp@plt>
 804b32c:	83 c4 10             	add    $0x10,%esp
 804b32f:	85 c0                	test   %eax,%eax
 804b331:	75 09                	jne    804b33c <getRelop+0xc0>
 804b333:	c7 45 f0 10 00 00 00 	movl   $0x10,-0x10(%ebp)
 804b33a:	eb 59                	jmp    804b395 <getRelop+0x119>
 804b33c:	83 ec 08             	sub    $0x8,%esp
 804b33f:	68 fa 3c 05 08       	push   $0x8053cfa
 804b344:	ff 75 f4             	pushl  -0xc(%ebp)
 804b347:	e8 64 d4 ff ff       	call   80487b0 <strcmp@plt>
 804b34c:	83 c4 10             	add    $0x10,%esp
 804b34f:	85 c0                	test   %eax,%eax
 804b351:	75 09                	jne    804b35c <getRelop+0xe0>
 804b353:	c7 45 f0 11 00 00 00 	movl   $0x11,-0x10(%ebp)
 804b35a:	eb 39                	jmp    804b395 <getRelop+0x119>
 804b35c:	83 ec 08             	sub    $0x8,%esp
 804b35f:	68 fd 3c 05 08       	push   $0x8053cfd
 804b364:	ff 75 f4             	pushl  -0xc(%ebp)
 804b367:	e8 44 d4 ff ff       	call   80487b0 <strcmp@plt>
 804b36c:	83 c4 10             	add    $0x10,%esp
 804b36f:	85 c0                	test   %eax,%eax
 804b371:	75 09                	jne    804b37c <getRelop+0x100>
 804b373:	c7 45 f0 12 00 00 00 	movl   $0x12,-0x10(%ebp)
 804b37a:	eb 19                	jmp    804b395 <getRelop+0x119>
 804b37c:	68 10 3f 05 08       	push   $0x8053f10
 804b381:	68 3b 01 00 00       	push   $0x13b
 804b386:	68 98 3b 05 08       	push   $0x8053b98
 804b38b:	68 9d 3b 05 08       	push   $0x8053b9d
 804b390:	e8 2b d6 ff ff       	call   80489c0 <__assert_fail@plt>
 804b395:	8b 45 f0             	mov    -0x10(%ebp),%eax
 804b398:	c9                   	leave  
 804b399:	c3                   	ret    

0804b39a <generate_ir>:
 804b39a:	55                   	push   %ebp
 804b39b:	89 e5                	mov    %esp,%ebp
 804b39d:	83 ec 08             	sub    $0x8,%esp
 804b3a0:	83 7d 08 00          	cmpl   $0x0,0x8(%ebp)
 804b3a4:	75 07                	jne    804b3ad <generate_ir+0x13>
 804b3a6:	b8 00 00 00 00       	mov    $0x0,%eax
 804b3ab:	eb 0e                	jmp    804b3bb <generate_ir+0x21>
 804b3ad:	83 ec 0c             	sub    $0xc,%esp
 804b3b0:	ff 75 08             	pushl  0x8(%ebp)
 804b3b3:	e8 05 00 00 00       	call   804b3bd <translate_Program>
 804b3b8:	83 c4 10             	add    $0x10,%esp
 804b3bb:	c9                   	leave  
 804b3bc:	c3                   	ret    

0804b3bd <translate_Program>:
 804b3bd:	55                   	push   %ebp
 804b3be:	89 e5                	mov    %esp,%ebp
 804b3c0:	83 ec 18             	sub    $0x18,%esp
 804b3c3:	8b 45 08             	mov    0x8(%ebp),%eax
 804b3c6:	8b 40 04             	mov    0x4(%eax),%eax
 804b3c9:	83 f8 1f             	cmp    $0x1f,%eax
 804b3cc:	74 19                	je     804b3e7 <translate_Program+0x2a>
 804b3ce:	68 1c 3f 05 08       	push   $0x8053f1c
 804b3d3:	68 47 01 00 00       	push   $0x147
 804b3d8:	68 98 3b 05 08       	push   $0x8053b98
 804b3dd:	68 00 3d 05 08       	push   $0x8053d00
 804b3e2:	e8 d9 d5 ff ff       	call   80489c0 <__assert_fail@plt>
 804b3e7:	8b 45 08             	mov    0x8(%ebp),%eax
 804b3ea:	8b 40 14             	mov    0x14(%eax),%eax
 804b3ed:	83 ec 0c             	sub    $0xc,%esp
 804b3f0:	50                   	push   %eax
 804b3f1:	e8 0b 00 00 00       	call   804b401 <translate_ExtDefList>
 804b3f6:	83 c4 10             	add    $0x10,%esp
 804b3f9:	89 45 f4             	mov    %eax,-0xc(%ebp)
 804b3fc:	8b 45 f4             	mov    -0xc(%ebp),%eax
 804b3ff:	c9                   	leave  
 804b400:	c3                   	ret    

0804b401 <translate_ExtDefList>:
 804b401:	55                   	push   %ebp
 804b402:	89 e5                	mov    %esp,%ebp
 804b404:	83 ec 18             	sub    $0x18,%esp
 804b407:	83 7d 08 00          	cmpl   $0x0,0x8(%ebp)
 804b40b:	75 07                	jne    804b414 <translate_ExtDefList+0x13>
 804b40d:	b8 00 00 00 00       	mov    $0x0,%eax
 804b412:	eb 41                	jmp    804b455 <translate_ExtDefList+0x54>
 804b414:	8b 45 08             	mov    0x8(%ebp),%eax
 804b417:	8b 40 14             	mov    0x14(%eax),%eax
 804b41a:	83 ec 0c             	sub    $0xc,%esp
 804b41d:	50                   	push   %eax
 804b41e:	e8 34 00 00 00       	call   804b457 <translate_ExtDef>
 804b423:	83 c4 10             	add    $0x10,%esp
 804b426:	89 45 f0             	mov    %eax,-0x10(%ebp)
 804b429:	8b 45 08             	mov    0x8(%ebp),%eax
 804b42c:	8b 40 18             	mov    0x18(%eax),%eax
 804b42f:	83 ec 0c             	sub    $0xc,%esp
 804b432:	50                   	push   %eax
 804b433:	e8 c9 ff ff ff       	call   804b401 <translate_ExtDefList>
 804b438:	83 c4 10             	add    $0x10,%esp
 804b43b:	89 45 f4             	mov    %eax,-0xc(%ebp)
 804b43e:	83 ec 08             	sub    $0x8,%esp
 804b441:	ff 75 f4             	pushl  -0xc(%ebp)
 804b444:	ff 75 f0             	pushl  -0x10(%ebp)
 804b447:	e8 d4 f2 ff ff       	call   804a720 <addTail>
 804b44c:	83 c4 10             	add    $0x10,%esp
 804b44f:	89 45 f0             	mov    %eax,-0x10(%ebp)
 804b452:	8b 45 f0             	mov    -0x10(%ebp),%eax
 804b455:	c9                   	leave  
 804b456:	c3                   	ret    

0804b457 <translate_ExtDef>:
 804b457:	55                   	push   %ebp
 804b458:	89 e5                	mov    %esp,%ebp
 804b45a:	83 ec 18             	sub    $0x18,%esp
 804b45d:	8b 45 08             	mov    0x8(%ebp),%eax
 804b460:	8b 40 18             	mov    0x18(%eax),%eax
 804b463:	89 45 ec             	mov    %eax,-0x14(%ebp)
 804b466:	8b 45 ec             	mov    -0x14(%ebp),%eax
 804b469:	8b 40 04             	mov    0x4(%eax),%eax
 804b46c:	83 f8 22             	cmp    $0x22,%eax
 804b46f:	75 10                	jne    804b481 <translate_ExtDef+0x2a>
 804b471:	83 ec 0c             	sub    $0xc,%esp
 804b474:	ff 75 ec             	pushl  -0x14(%ebp)
 804b477:	e8 56 00 00 00       	call   804b4d2 <translate_ExtDecList>
 804b47c:	83 c4 10             	add    $0x10,%esp
 804b47f:	eb 4f                	jmp    804b4d0 <translate_ExtDef+0x79>
 804b481:	8b 45 ec             	mov    -0x14(%ebp),%eax
 804b484:	8b 40 04             	mov    0x4(%eax),%eax
 804b487:	83 f8 28             	cmp    $0x28,%eax
 804b48a:	75 3f                	jne    804b4cb <translate_ExtDef+0x74>
 804b48c:	83 ec 0c             	sub    $0xc,%esp
 804b48f:	ff 75 ec             	pushl  -0x14(%ebp)
 804b492:	e8 be 01 00 00       	call   804b655 <translate_FunDec>
 804b497:	83 c4 10             	add    $0x10,%esp
 804b49a:	89 45 f0             	mov    %eax,-0x10(%ebp)
 804b49d:	8b 45 08             	mov    0x8(%ebp),%eax
 804b4a0:	8b 40 1c             	mov    0x1c(%eax),%eax
 804b4a3:	83 ec 0c             	sub    $0xc,%esp
 804b4a6:	50                   	push   %eax
 804b4a7:	e8 ac 02 00 00       	call   804b758 <translate_CompSt>
 804b4ac:	83 c4 10             	add    $0x10,%esp
 804b4af:	89 45 f4             	mov    %eax,-0xc(%ebp)
 804b4b2:	83 ec 08             	sub    $0x8,%esp
 804b4b5:	ff 75 f4             	pushl  -0xc(%ebp)
 804b4b8:	ff 75 f0             	pushl  -0x10(%ebp)
 804b4bb:	e8 60 f2 ff ff       	call   804a720 <addTail>
 804b4c0:	83 c4 10             	add    $0x10,%esp
 804b4c3:	89 45 f0             	mov    %eax,-0x10(%ebp)
 804b4c6:	8b 45 f0             	mov    -0x10(%ebp),%eax
 804b4c9:	eb 05                	jmp    804b4d0 <translate_ExtDef+0x79>
 804b4cb:	b8 00 00 00 00       	mov    $0x0,%eax
 804b4d0:	c9                   	leave  
 804b4d1:	c3                   	ret    

0804b4d2 <translate_ExtDecList>:
 804b4d2:	55                   	push   %ebp
 804b4d3:	89 e5                	mov    %esp,%ebp
 804b4d5:	83 ec 18             	sub    $0x18,%esp
 804b4d8:	8b 45 08             	mov    0x8(%ebp),%eax
 804b4db:	8b 40 14             	mov    0x14(%eax),%eax
 804b4de:	83 ec 0c             	sub    $0xc,%esp
 804b4e1:	50                   	push   %eax
 804b4e2:	e8 3f 00 00 00       	call   804b526 <translate_VarDec>
 804b4e7:	83 c4 10             	add    $0x10,%esp
 804b4ea:	89 45 f0             	mov    %eax,-0x10(%ebp)
 804b4ed:	8b 45 08             	mov    0x8(%ebp),%eax
 804b4f0:	8b 40 10             	mov    0x10(%eax),%eax
 804b4f3:	83 f8 03             	cmp    $0x3,%eax
 804b4f6:	75 29                	jne    804b521 <translate_ExtDecList+0x4f>
 804b4f8:	8b 45 08             	mov    0x8(%ebp),%eax
 804b4fb:	8b 40 1c             	mov    0x1c(%eax),%eax
 804b4fe:	83 ec 0c             	sub    $0xc,%esp
 804b501:	50                   	push   %eax
 804b502:	e8 cb ff ff ff       	call   804b4d2 <translate_ExtDecList>
 804b507:	83 c4 10             	add    $0x10,%esp
 804b50a:	89 45 f4             	mov    %eax,-0xc(%ebp)
 804b50d:	83 ec 08             	sub    $0x8,%esp
 804b510:	ff 75 f4             	pushl  -0xc(%ebp)
 804b513:	ff 75 f0             	pushl  -0x10(%ebp)
 804b516:	e8 05 f2 ff ff       	call   804a720 <addTail>
 804b51b:	83 c4 10             	add    $0x10,%esp
 804b51e:	89 45 f0             	mov    %eax,-0x10(%ebp)
 804b521:	8b 45 f0             	mov    -0x10(%ebp),%eax
 804b524:	c9                   	leave  
 804b525:	c3                   	ret    

0804b526 <translate_VarDec>:
 804b526:	55                   	push   %ebp
 804b527:	89 e5                	mov    %esp,%ebp
 804b529:	83 ec 38             	sub    $0x38,%esp
 804b52c:	c7 45 d0 00 00 00 00 	movl   $0x0,-0x30(%ebp)
 804b533:	8b 45 08             	mov    0x8(%ebp),%eax
 804b536:	8b 40 14             	mov    0x14(%eax),%eax
 804b539:	8b 40 04             	mov    0x4(%eax),%eax
 804b53c:	83 f8 03             	cmp    $0x3,%eax
 804b53f:	0f 85 f6 00 00 00    	jne    804b63b <translate_VarDec+0x115>
 804b545:	8b 45 08             	mov    0x8(%ebp),%eax
 804b548:	8b 40 14             	mov    0x14(%eax),%eax
 804b54b:	8b 40 08             	mov    0x8(%eax),%eax
 804b54e:	89 45 d4             	mov    %eax,-0x2c(%ebp)
 804b551:	83 ec 0c             	sub    $0xc,%esp
 804b554:	ff 75 d4             	pushl  -0x2c(%ebp)
 804b557:	e8 6a 76 00 00       	call   8052bc6 <searchTable>
 804b55c:	83 c4 10             	add    $0x10,%esp
 804b55f:	89 45 d8             	mov    %eax,-0x28(%ebp)
 804b562:	83 7d d8 00          	cmpl   $0x0,-0x28(%ebp)
 804b566:	75 19                	jne    804b581 <translate_VarDec+0x5b>
 804b568:	68 30 3f 05 08       	push   $0x8053f30
 804b56d:	68 79 01 00 00       	push   $0x179
 804b572:	68 98 3b 05 08       	push   $0x8053b98
 804b577:	68 1c 3d 05 08       	push   $0x8053d1c
 804b57c:	e8 3f d4 ff ff       	call   80489c0 <__assert_fail@plt>
 804b581:	8b 45 d8             	mov    -0x28(%ebp),%eax
 804b584:	8b 00                	mov    (%eax),%eax
 804b586:	85 c0                	test   %eax,%eax
 804b588:	0f 85 c2 00 00 00    	jne    804b650 <translate_VarDec+0x12a>
 804b58e:	8b 45 d8             	mov    -0x28(%ebp),%eax
 804b591:	8b 40 0c             	mov    0xc(%eax),%eax
 804b594:	8b 00                	mov    (%eax),%eax
 804b596:	85 c0                	test   %eax,%eax
 804b598:	0f 84 b2 00 00 00    	je     804b650 <translate_VarDec+0x12a>
 804b59e:	8b 45 d8             	mov    -0x28(%ebp),%eax
 804b5a1:	8b 40 0c             	mov    0xc(%eax),%eax
 804b5a4:	83 ec 0c             	sub    $0xc,%esp
 804b5a7:	50                   	push   %eax
 804b5a8:	e8 9d 78 00 00       	call   8052e4a <typeSize>
 804b5ad:	83 c4 10             	add    $0x10,%esp
 804b5b0:	89 45 dc             	mov    %eax,-0x24(%ebp)
 804b5b3:	e8 21 f2 ff ff       	call   804a7d9 <newTemp>
 804b5b8:	89 45 e0             	mov    %eax,-0x20(%ebp)
 804b5bb:	8b 45 dc             	mov    -0x24(%ebp),%eax
 804b5be:	83 ec 08             	sub    $0x8,%esp
 804b5c1:	50                   	push   %eax
 804b5c2:	6a 01                	push   $0x1
 804b5c4:	e8 fd fb ff ff       	call   804b1c6 <newOp>
 804b5c9:	83 c4 10             	add    $0x10,%esp
 804b5cc:	89 45 e4             	mov    %eax,-0x1c(%ebp)
 804b5cf:	ff 75 e4             	pushl  -0x1c(%ebp)
 804b5d2:	ff 75 e0             	pushl  -0x20(%ebp)
 804b5d5:	6a 00                	push   $0x0
 804b5d7:	6a 05                	push   $0x5
 804b5d9:	e8 4e fc ff ff       	call   804b22c <newIC>
 804b5de:	83 c4 10             	add    $0x10,%esp
 804b5e1:	89 45 e8             	mov    %eax,-0x18(%ebp)
 804b5e4:	83 ec 08             	sub    $0x8,%esp
 804b5e7:	ff 75 d4             	pushl  -0x2c(%ebp)
 804b5ea:	6a 00                	push   $0x0
 804b5ec:	e8 d5 fb ff ff       	call   804b1c6 <newOp>
 804b5f1:	83 c4 10             	add    $0x10,%esp
 804b5f4:	89 45 ec             	mov    %eax,-0x14(%ebp)
 804b5f7:	83 ec 08             	sub    $0x8,%esp
 804b5fa:	ff 75 e0             	pushl  -0x20(%ebp)
 804b5fd:	6a 05                	push   $0x5
 804b5ff:	e8 c2 fb ff ff       	call   804b1c6 <newOp>
 804b604:	83 c4 10             	add    $0x10,%esp
 804b607:	89 45 f0             	mov    %eax,-0x10(%ebp)
 804b60a:	6a 00                	push   $0x0
 804b60c:	ff 75 f0             	pushl  -0x10(%ebp)
 804b60f:	ff 75 ec             	pushl  -0x14(%ebp)
 804b612:	6a 00                	push   $0x0
 804b614:	e8 13 fc ff ff       	call   804b22c <newIC>
 804b619:	83 c4 10             	add    $0x10,%esp
 804b61c:	89 45 f4             	mov    %eax,-0xc(%ebp)
 804b61f:	83 ec 08             	sub    $0x8,%esp
 804b622:	ff 75 f4             	pushl  -0xc(%ebp)
 804b625:	ff 75 e8             	pushl  -0x18(%ebp)
 804b628:	e8 f3 f0 ff ff       	call   804a720 <addTail>
 804b62d:	83 c4 10             	add    $0x10,%esp
 804b630:	89 45 e8             	mov    %eax,-0x18(%ebp)
 804b633:	8b 45 e8             	mov    -0x18(%ebp),%eax
 804b636:	89 45 d0             	mov    %eax,-0x30(%ebp)
 804b639:	eb 15                	jmp    804b650 <translate_VarDec+0x12a>
 804b63b:	8b 45 08             	mov    0x8(%ebp),%eax
 804b63e:	8b 40 14             	mov    0x14(%eax),%eax
 804b641:	83 ec 0c             	sub    $0xc,%esp
 804b644:	50                   	push   %eax
 804b645:	e8 dc fe ff ff       	call   804b526 <translate_VarDec>
 804b64a:	83 c4 10             	add    $0x10,%esp
 804b64d:	89 45 d0             	mov    %eax,-0x30(%ebp)
 804b650:	8b 45 d0             	mov    -0x30(%ebp),%eax
 804b653:	c9                   	leave  
 804b654:	c3                   	ret    

0804b655 <translate_FunDec>:
 804b655:	55                   	push   %ebp
 804b656:	89 e5                	mov    %esp,%ebp
 804b658:	83 ec 28             	sub    $0x28,%esp
 804b65b:	8b 45 08             	mov    0x8(%ebp),%eax
 804b65e:	8b 40 14             	mov    0x14(%eax),%eax
 804b661:	8b 40 08             	mov    0x8(%eax),%eax
 804b664:	89 45 e0             	mov    %eax,-0x20(%ebp)
 804b667:	8b 45 08             	mov    0x8(%ebp),%eax
 804b66a:	8b 40 14             	mov    0x14(%eax),%eax
 804b66d:	8b 40 08             	mov    0x8(%eax),%eax
 804b670:	83 ec 0c             	sub    $0xc,%esp
 804b673:	50                   	push   %eax
 804b674:	e8 4d 75 00 00       	call   8052bc6 <searchTable>
 804b679:	83 c4 10             	add    $0x10,%esp
 804b67c:	89 45 e4             	mov    %eax,-0x1c(%ebp)
 804b67f:	83 7d e4 00          	cmpl   $0x0,-0x1c(%ebp)
 804b683:	74 0a                	je     804b68f <translate_FunDec+0x3a>
 804b685:	8b 45 e4             	mov    -0x1c(%ebp),%eax
 804b688:	8b 00                	mov    (%eax),%eax
 804b68a:	83 f8 01             	cmp    $0x1,%eax
 804b68d:	74 19                	je     804b6a8 <translate_FunDec+0x53>
 804b68f:	68 44 3f 05 08       	push   $0x8053f44
 804b694:	68 94 01 00 00       	push   $0x194
 804b699:	68 98 3b 05 08       	push   $0x8053b98
 804b69e:	68 30 3d 05 08       	push   $0x8053d30
 804b6a3:	e8 18 d3 ff ff       	call   80489c0 <__assert_fail@plt>
 804b6a8:	8b 45 e4             	mov    -0x1c(%ebp),%eax
 804b6ab:	8b 40 04             	mov    0x4(%eax),%eax
 804b6ae:	83 ec 08             	sub    $0x8,%esp
 804b6b1:	50                   	push   %eax
 804b6b2:	6a 00                	push   $0x0
 804b6b4:	e8 0d fb ff ff       	call   804b1c6 <newOp>
 804b6b9:	83 c4 10             	add    $0x10,%esp
 804b6bc:	89 45 e8             	mov    %eax,-0x18(%ebp)
 804b6bf:	6a 00                	push   $0x0
 804b6c1:	ff 75 e8             	pushl  -0x18(%ebp)
 804b6c4:	6a 00                	push   $0x0
 804b6c6:	6a 06                	push   $0x6
 804b6c8:	e8 5f fb ff ff       	call   804b22c <newIC>
 804b6cd:	83 c4 10             	add    $0x10,%esp
 804b6d0:	89 45 ec             	mov    %eax,-0x14(%ebp)
 804b6d3:	c7 45 d8 00 00 00 00 	movl   $0x0,-0x28(%ebp)
 804b6da:	8b 45 e4             	mov    -0x1c(%ebp),%eax
 804b6dd:	8b 40 0c             	mov    0xc(%eax),%eax
 804b6e0:	8b 40 04             	mov    0x4(%eax),%eax
 804b6e3:	89 45 dc             	mov    %eax,-0x24(%ebp)
 804b6e6:	eb 47                	jmp    804b72f <translate_FunDec+0xda>
 804b6e8:	8b 45 dc             	mov    -0x24(%ebp),%eax
 804b6eb:	8b 00                	mov    (%eax),%eax
 804b6ed:	83 ec 08             	sub    $0x8,%esp
 804b6f0:	50                   	push   %eax
 804b6f1:	6a 00                	push   $0x0
 804b6f3:	e8 ce fa ff ff       	call   804b1c6 <newOp>
 804b6f8:	83 c4 10             	add    $0x10,%esp
 804b6fb:	89 45 f0             	mov    %eax,-0x10(%ebp)
 804b6fe:	6a 00                	push   $0x0
 804b700:	ff 75 f0             	pushl  -0x10(%ebp)
 804b703:	6a 00                	push   $0x0
 804b705:	6a 07                	push   $0x7
 804b707:	e8 20 fb ff ff       	call   804b22c <newIC>
 804b70c:	83 c4 10             	add    $0x10,%esp
 804b70f:	89 45 f4             	mov    %eax,-0xc(%ebp)
 804b712:	83 ec 08             	sub    $0x8,%esp
 804b715:	ff 75 f4             	pushl  -0xc(%ebp)
 804b718:	ff 75 d8             	pushl  -0x28(%ebp)
 804b71b:	e8 00 f0 ff ff       	call   804a720 <addTail>
 804b720:	83 c4 10             	add    $0x10,%esp
 804b723:	89 45 d8             	mov    %eax,-0x28(%ebp)
 804b726:	8b 45 dc             	mov    -0x24(%ebp),%eax
 804b729:	8b 40 08             	mov    0x8(%eax),%eax
 804b72c:	89 45 dc             	mov    %eax,-0x24(%ebp)
 804b72f:	83 7d dc 00          	cmpl   $0x0,-0x24(%ebp)
 804b733:	75 b3                	jne    804b6e8 <translate_FunDec+0x93>
 804b735:	83 ec 08             	sub    $0x8,%esp
 804b738:	ff 75 d8             	pushl  -0x28(%ebp)
 804b73b:	ff 75 ec             	pushl  -0x14(%ebp)
 804b73e:	e8 dd ef ff ff       	call   804a720 <addTail>
 804b743:	83 c4 10             	add    $0x10,%esp
 804b746:	89 45 ec             	mov    %eax,-0x14(%ebp)
 804b749:	8b 45 ec             	mov    -0x14(%ebp),%eax
 804b74c:	c9                   	leave  
 804b74d:	c3                   	ret    

0804b74e <translate_VarList>:
 804b74e:	55                   	push   %ebp
 804b74f:	89 e5                	mov    %esp,%ebp
 804b751:	b8 00 00 00 00       	mov    $0x0,%eax
 804b756:	5d                   	pop    %ebp
 804b757:	c3                   	ret    

0804b758 <translate_CompSt>:
 804b758:	55                   	push   %ebp
 804b759:	89 e5                	mov    %esp,%ebp
 804b75b:	83 ec 18             	sub    $0x18,%esp
 804b75e:	8b 45 08             	mov    0x8(%ebp),%eax
 804b761:	8b 40 18             	mov    0x18(%eax),%eax
 804b764:	83 ec 0c             	sub    $0xc,%esp
 804b767:	50                   	push   %eax
 804b768:	e8 34 00 00 00       	call   804b7a1 <translate_DefList>
 804b76d:	83 c4 10             	add    $0x10,%esp
 804b770:	89 45 f0             	mov    %eax,-0x10(%ebp)
 804b773:	8b 45 08             	mov    0x8(%ebp),%eax
 804b776:	8b 40 1c             	mov    0x1c(%eax),%eax
 804b779:	83 ec 0c             	sub    $0xc,%esp
 804b77c:	50                   	push   %eax
 804b77d:	e8 17 02 00 00       	call   804b999 <translate_StmtList>
 804b782:	83 c4 10             	add    $0x10,%esp
 804b785:	89 45 f4             	mov    %eax,-0xc(%ebp)
 804b788:	83 ec 08             	sub    $0x8,%esp
 804b78b:	ff 75 f4             	pushl  -0xc(%ebp)
 804b78e:	ff 75 f0             	pushl  -0x10(%ebp)
 804b791:	e8 8a ef ff ff       	call   804a720 <addTail>
 804b796:	83 c4 10             	add    $0x10,%esp
 804b799:	89 45 f0             	mov    %eax,-0x10(%ebp)
 804b79c:	8b 45 f0             	mov    -0x10(%ebp),%eax
 804b79f:	c9                   	leave  
 804b7a0:	c3                   	ret    

0804b7a1 <translate_DefList>:
 804b7a1:	55                   	push   %ebp
 804b7a2:	89 e5                	mov    %esp,%ebp
 804b7a4:	83 ec 18             	sub    $0x18,%esp
 804b7a7:	83 7d 08 00          	cmpl   $0x0,0x8(%ebp)
 804b7ab:	75 07                	jne    804b7b4 <translate_DefList+0x13>
 804b7ad:	b8 00 00 00 00       	mov    $0x0,%eax
 804b7b2:	eb 41                	jmp    804b7f5 <translate_DefList+0x54>
 804b7b4:	8b 45 08             	mov    0x8(%ebp),%eax
 804b7b7:	8b 40 14             	mov    0x14(%eax),%eax
 804b7ba:	83 ec 0c             	sub    $0xc,%esp
 804b7bd:	50                   	push   %eax
 804b7be:	e8 34 00 00 00       	call   804b7f7 <translate_Def>
 804b7c3:	83 c4 10             	add    $0x10,%esp
 804b7c6:	89 45 f0             	mov    %eax,-0x10(%ebp)
 804b7c9:	8b 45 08             	mov    0x8(%ebp),%eax
 804b7cc:	8b 40 18             	mov    0x18(%eax),%eax
 804b7cf:	83 ec 0c             	sub    $0xc,%esp
 804b7d2:	50                   	push   %eax
 804b7d3:	e8 c9 ff ff ff       	call   804b7a1 <translate_DefList>
 804b7d8:	83 c4 10             	add    $0x10,%esp
 804b7db:	89 45 f4             	mov    %eax,-0xc(%ebp)
 804b7de:	83 ec 08             	sub    $0x8,%esp
 804b7e1:	ff 75 f4             	pushl  -0xc(%ebp)
 804b7e4:	ff 75 f0             	pushl  -0x10(%ebp)
 804b7e7:	e8 34 ef ff ff       	call   804a720 <addTail>
 804b7ec:	83 c4 10             	add    $0x10,%esp
 804b7ef:	89 45 f0             	mov    %eax,-0x10(%ebp)
 804b7f2:	8b 45 f0             	mov    -0x10(%ebp),%eax
 804b7f5:	c9                   	leave  
 804b7f6:	c3                   	ret    

0804b7f7 <translate_Def>:
 804b7f7:	55                   	push   %ebp
 804b7f8:	89 e5                	mov    %esp,%ebp
 804b7fa:	83 ec 08             	sub    $0x8,%esp
 804b7fd:	8b 45 08             	mov    0x8(%ebp),%eax
 804b800:	8b 40 18             	mov    0x18(%eax),%eax
 804b803:	83 ec 0c             	sub    $0xc,%esp
 804b806:	50                   	push   %eax
 804b807:	e8 05 00 00 00       	call   804b811 <translate_DecList>
 804b80c:	83 c4 10             	add    $0x10,%esp
 804b80f:	c9                   	leave  
 804b810:	c3                   	ret    

0804b811 <translate_DecList>:
 804b811:	55                   	push   %ebp
 804b812:	89 e5                	mov    %esp,%ebp
 804b814:	83 ec 18             	sub    $0x18,%esp
 804b817:	8b 45 08             	mov    0x8(%ebp),%eax
 804b81a:	8b 40 14             	mov    0x14(%eax),%eax
 804b81d:	83 ec 0c             	sub    $0xc,%esp
 804b820:	50                   	push   %eax
 804b821:	e8 3f 00 00 00       	call   804b865 <translate_Dec>
 804b826:	83 c4 10             	add    $0x10,%esp
 804b829:	89 45 f0             	mov    %eax,-0x10(%ebp)
 804b82c:	8b 45 08             	mov    0x8(%ebp),%eax
 804b82f:	8b 40 10             	mov    0x10(%eax),%eax
 804b832:	83 f8 03             	cmp    $0x3,%eax
 804b835:	75 29                	jne    804b860 <translate_DecList+0x4f>
 804b837:	8b 45 08             	mov    0x8(%ebp),%eax
 804b83a:	8b 40 1c             	mov    0x1c(%eax),%eax
 804b83d:	83 ec 0c             	sub    $0xc,%esp
 804b840:	50                   	push   %eax
 804b841:	e8 cb ff ff ff       	call   804b811 <translate_DecList>
 804b846:	83 c4 10             	add    $0x10,%esp
 804b849:	89 45 f4             	mov    %eax,-0xc(%ebp)
 804b84c:	83 ec 08             	sub    $0x8,%esp
 804b84f:	ff 75 f4             	pushl  -0xc(%ebp)
 804b852:	ff 75 f0             	pushl  -0x10(%ebp)
 804b855:	e8 c6 ee ff ff       	call   804a720 <addTail>
 804b85a:	83 c4 10             	add    $0x10,%esp
 804b85d:	89 45 f0             	mov    %eax,-0x10(%ebp)
 804b860:	8b 45 f0             	mov    -0x10(%ebp),%eax
 804b863:	c9                   	leave  
 804b864:	c3                   	ret    

0804b865 <translate_Dec>:
 804b865:	55                   	push   %ebp
 804b866:	89 e5                	mov    %esp,%ebp
 804b868:	83 ec 28             	sub    $0x28,%esp
 804b86b:	c7 45 e0 00 00 00 00 	movl   $0x0,-0x20(%ebp)
 804b872:	8b 45 08             	mov    0x8(%ebp),%eax
 804b875:	8b 40 10             	mov    0x10(%eax),%eax
 804b878:	83 f8 01             	cmp    $0x1,%eax
 804b87b:	75 1a                	jne    804b897 <translate_Dec+0x32>
 804b87d:	8b 45 08             	mov    0x8(%ebp),%eax
 804b880:	8b 40 14             	mov    0x14(%eax),%eax
 804b883:	83 ec 0c             	sub    $0xc,%esp
 804b886:	50                   	push   %eax
 804b887:	e8 9a fc ff ff       	call   804b526 <translate_VarDec>
 804b88c:	83 c4 10             	add    $0x10,%esp
 804b88f:	89 45 e0             	mov    %eax,-0x20(%ebp)
 804b892:	e9 fd 00 00 00       	jmp    804b994 <translate_Dec+0x12f>
 804b897:	8b 45 08             	mov    0x8(%ebp),%eax
 804b89a:	8b 40 10             	mov    0x10(%eax),%eax
 804b89d:	83 f8 03             	cmp    $0x3,%eax
 804b8a0:	0f 85 d5 00 00 00    	jne    804b97b <translate_Dec+0x116>
 804b8a6:	8b 45 08             	mov    0x8(%ebp),%eax
 804b8a9:	8b 40 14             	mov    0x14(%eax),%eax
 804b8ac:	8b 40 14             	mov    0x14(%eax),%eax
 804b8af:	8b 40 04             	mov    0x4(%eax),%eax
 804b8b2:	83 f8 03             	cmp    $0x3,%eax
 804b8b5:	74 19                	je     804b8d0 <translate_Dec+0x6b>
 804b8b7:	68 58 3f 05 08       	push   $0x8053f58
 804b8bc:	68 dd 01 00 00       	push   $0x1dd
 804b8c1:	68 98 3b 05 08       	push   $0x8053b98
 804b8c6:	68 5c 3d 05 08       	push   $0x8053d5c
 804b8cb:	e8 f0 d0 ff ff       	call   80489c0 <__assert_fail@plt>
 804b8d0:	8b 45 08             	mov    0x8(%ebp),%eax
 804b8d3:	8b 40 14             	mov    0x14(%eax),%eax
 804b8d6:	8b 40 14             	mov    0x14(%eax),%eax
 804b8d9:	8b 40 08             	mov    0x8(%eax),%eax
 804b8dc:	83 ec 0c             	sub    $0xc,%esp
 804b8df:	50                   	push   %eax
 804b8e0:	e8 e1 72 00 00       	call   8052bc6 <searchTable>
 804b8e5:	83 c4 10             	add    $0x10,%esp
 804b8e8:	89 45 e4             	mov    %eax,-0x1c(%ebp)
 804b8eb:	83 7d e4 00          	cmpl   $0x0,-0x1c(%ebp)
 804b8ef:	74 09                	je     804b8fa <translate_Dec+0x95>
 804b8f1:	8b 45 e4             	mov    -0x1c(%ebp),%eax
 804b8f4:	8b 00                	mov    (%eax),%eax
 804b8f6:	85 c0                	test   %eax,%eax
 804b8f8:	74 19                	je     804b913 <translate_Dec+0xae>
 804b8fa:	68 58 3f 05 08       	push   $0x8053f58
 804b8ff:	68 df 01 00 00       	push   $0x1df
 804b904:	68 98 3b 05 08       	push   $0x8053b98
 804b909:	68 85 3d 05 08       	push   $0x8053d85
 804b90e:	e8 ad d0 ff ff       	call   80489c0 <__assert_fail@plt>
 804b913:	e8 c1 ee ff ff       	call   804a7d9 <newTemp>
 804b918:	89 45 e8             	mov    %eax,-0x18(%ebp)
 804b91b:	8b 45 08             	mov    0x8(%ebp),%eax
 804b91e:	8b 40 1c             	mov    0x1c(%eax),%eax
 804b921:	83 ec 08             	sub    $0x8,%esp
 804b924:	ff 75 e8             	pushl  -0x18(%ebp)
 804b927:	50                   	push   %eax
 804b928:	e8 a8 04 00 00       	call   804bdd5 <translate_Exp>
 804b92d:	83 c4 10             	add    $0x10,%esp
 804b930:	89 45 ec             	mov    %eax,-0x14(%ebp)
 804b933:	8b 45 e4             	mov    -0x1c(%ebp),%eax
 804b936:	8b 40 04             	mov    0x4(%eax),%eax
 804b939:	83 ec 08             	sub    $0x8,%esp
 804b93c:	50                   	push   %eax
 804b93d:	6a 00                	push   $0x0
 804b93f:	e8 82 f8 ff ff       	call   804b1c6 <newOp>
 804b944:	83 c4 10             	add    $0x10,%esp
 804b947:	89 45 f0             	mov    %eax,-0x10(%ebp)
 804b94a:	6a 00                	push   $0x0
 804b94c:	ff 75 e8             	pushl  -0x18(%ebp)
 804b94f:	ff 75 f0             	pushl  -0x10(%ebp)
 804b952:	6a 00                	push   $0x0
 804b954:	e8 d3 f8 ff ff       	call   804b22c <newIC>
 804b959:	83 c4 10             	add    $0x10,%esp
 804b95c:	89 45 f4             	mov    %eax,-0xc(%ebp)
 804b95f:	83 ec 08             	sub    $0x8,%esp
 804b962:	ff 75 f4             	pushl  -0xc(%ebp)
 804b965:	ff 75 ec             	pushl  -0x14(%ebp)
 804b968:	e8 b3 ed ff ff       	call   804a720 <addTail>
 804b96d:	83 c4 10             	add    $0x10,%esp
 804b970:	89 45 ec             	mov    %eax,-0x14(%ebp)
 804b973:	8b 45 ec             	mov    -0x14(%ebp),%eax
 804b976:	89 45 e0             	mov    %eax,-0x20(%ebp)
 804b979:	eb 19                	jmp    804b994 <translate_Dec+0x12f>
 804b97b:	68 58 3f 05 08       	push   $0x8053f58
 804b980:	68 ea 01 00 00       	push   $0x1ea
 804b985:	68 98 3b 05 08       	push   $0x8053b98
 804b98a:	68 9d 3b 05 08       	push   $0x8053b9d
 804b98f:	e8 2c d0 ff ff       	call   80489c0 <__assert_fail@plt>
 804b994:	8b 45 e0             	mov    -0x20(%ebp),%eax
 804b997:	c9                   	leave  
 804b998:	c3                   	ret    

0804b999 <translate_StmtList>:
 804b999:	55                   	push   %ebp
 804b99a:	89 e5                	mov    %esp,%ebp
 804b99c:	83 ec 18             	sub    $0x18,%esp
 804b99f:	83 7d 08 00          	cmpl   $0x0,0x8(%ebp)
 804b9a3:	75 07                	jne    804b9ac <translate_StmtList+0x13>
 804b9a5:	b8 00 00 00 00       	mov    $0x0,%eax
 804b9aa:	eb 41                	jmp    804b9ed <translate_StmtList+0x54>
 804b9ac:	8b 45 08             	mov    0x8(%ebp),%eax
 804b9af:	8b 40 14             	mov    0x14(%eax),%eax
 804b9b2:	83 ec 0c             	sub    $0xc,%esp
 804b9b5:	50                   	push   %eax
 804b9b6:	e8 34 00 00 00       	call   804b9ef <translate_Stmt>
 804b9bb:	83 c4 10             	add    $0x10,%esp
 804b9be:	89 45 f0             	mov    %eax,-0x10(%ebp)
 804b9c1:	8b 45 08             	mov    0x8(%ebp),%eax
 804b9c4:	8b 40 18             	mov    0x18(%eax),%eax
 804b9c7:	83 ec 0c             	sub    $0xc,%esp
 804b9ca:	50                   	push   %eax
 804b9cb:	e8 c9 ff ff ff       	call   804b999 <translate_StmtList>
 804b9d0:	83 c4 10             	add    $0x10,%esp
 804b9d3:	89 45 f4             	mov    %eax,-0xc(%ebp)
 804b9d6:	83 ec 08             	sub    $0x8,%esp
 804b9d9:	ff 75 f4             	pushl  -0xc(%ebp)
 804b9dc:	ff 75 f0             	pushl  -0x10(%ebp)
 804b9df:	e8 3c ed ff ff       	call   804a720 <addTail>
 804b9e4:	83 c4 10             	add    $0x10,%esp
 804b9e7:	89 45 f0             	mov    %eax,-0x10(%ebp)
 804b9ea:	8b 45 f0             	mov    -0x10(%ebp),%eax
 804b9ed:	c9                   	leave  
 804b9ee:	c3                   	ret    

0804b9ef <translate_Stmt>:
 804b9ef:	55                   	push   %ebp
 804b9f0:	89 e5                	mov    %esp,%ebp
 804b9f2:	81 ec 88 00 00 00    	sub    $0x88,%esp
 804b9f8:	8b 45 08             	mov    0x8(%ebp),%eax
 804b9fb:	8b 40 14             	mov    0x14(%eax),%eax
 804b9fe:	89 45 84             	mov    %eax,-0x7c(%ebp)
 804ba01:	c7 45 80 00 00 00 00 	movl   $0x0,-0x80(%ebp)
 804ba08:	8b 45 84             	mov    -0x7c(%ebp),%eax
 804ba0b:	8b 40 04             	mov    0x4(%eax),%eax
 804ba0e:	83 f8 32             	cmp    $0x32,%eax
 804ba11:	75 18                	jne    804ba2b <translate_Stmt+0x3c>
 804ba13:	83 ec 08             	sub    $0x8,%esp
 804ba16:	6a 00                	push   $0x0
 804ba18:	ff 75 84             	pushl  -0x7c(%ebp)
 804ba1b:	e8 b5 03 00 00       	call   804bdd5 <translate_Exp>
 804ba20:	83 c4 10             	add    $0x10,%esp
 804ba23:	89 45 80             	mov    %eax,-0x80(%ebp)
 804ba26:	e9 a5 03 00 00       	jmp    804bdd0 <translate_Stmt+0x3e1>
 804ba2b:	8b 45 84             	mov    -0x7c(%ebp),%eax
 804ba2e:	8b 40 04             	mov    0x4(%eax),%eax
 804ba31:	83 f8 2b             	cmp    $0x2b,%eax
 804ba34:	75 16                	jne    804ba4c <translate_Stmt+0x5d>
 804ba36:	83 ec 0c             	sub    $0xc,%esp
 804ba39:	ff 75 84             	pushl  -0x7c(%ebp)
 804ba3c:	e8 17 fd ff ff       	call   804b758 <translate_CompSt>
 804ba41:	83 c4 10             	add    $0x10,%esp
 804ba44:	89 45 80             	mov    %eax,-0x80(%ebp)
 804ba47:	e9 84 03 00 00       	jmp    804bdd0 <translate_Stmt+0x3e1>
 804ba4c:	8b 45 84             	mov    -0x7c(%ebp),%eax
 804ba4f:	8b 40 04             	mov    0x4(%eax),%eax
 804ba52:	83 f8 1b             	cmp    $0x1b,%eax
 804ba55:	75 4d                	jne    804baa4 <translate_Stmt+0xb5>
 804ba57:	e8 7d ed ff ff       	call   804a7d9 <newTemp>
 804ba5c:	89 45 88             	mov    %eax,-0x78(%ebp)
 804ba5f:	8b 45 08             	mov    0x8(%ebp),%eax
 804ba62:	8b 40 18             	mov    0x18(%eax),%eax
 804ba65:	83 ec 08             	sub    $0x8,%esp
 804ba68:	ff 75 88             	pushl  -0x78(%ebp)
 804ba6b:	50                   	push   %eax
 804ba6c:	e8 64 03 00 00       	call   804bdd5 <translate_Exp>
 804ba71:	83 c4 10             	add    $0x10,%esp
 804ba74:	89 45 8c             	mov    %eax,-0x74(%ebp)
 804ba77:	6a 00                	push   $0x0
 804ba79:	ff 75 88             	pushl  -0x78(%ebp)
 804ba7c:	6a 00                	push   $0x0
 804ba7e:	6a 09                	push   $0x9
 804ba80:	e8 a7 f7 ff ff       	call   804b22c <newIC>
 804ba85:	83 c4 10             	add    $0x10,%esp
 804ba88:	89 45 90             	mov    %eax,-0x70(%ebp)
 804ba8b:	83 ec 08             	sub    $0x8,%esp
 804ba8e:	ff 75 90             	pushl  -0x70(%ebp)
 804ba91:	ff 75 8c             	pushl  -0x74(%ebp)
 804ba94:	e8 87 ec ff ff       	call   804a720 <addTail>
 804ba99:	83 c4 10             	add    $0x10,%esp
 804ba9c:	89 45 80             	mov    %eax,-0x80(%ebp)
 804ba9f:	e9 2c 03 00 00       	jmp    804bdd0 <translate_Stmt+0x3e1>
 804baa4:	8b 45 84             	mov    -0x7c(%ebp),%eax
 804baa7:	8b 40 04             	mov    0x4(%eax),%eax
 804baaa:	83 f8 1c             	cmp    $0x1c,%eax
 804baad:	0f 85 be 00 00 00    	jne    804bb71 <translate_Stmt+0x182>
 804bab3:	8b 45 08             	mov    0x8(%ebp),%eax
 804bab6:	8b 40 10             	mov    0x10(%eax),%eax
 804bab9:	83 f8 05             	cmp    $0x5,%eax
 804babc:	0f 85 af 00 00 00    	jne    804bb71 <translate_Stmt+0x182>
 804bac2:	e8 42 ed ff ff       	call   804a809 <newLabel>
 804bac7:	89 45 94             	mov    %eax,-0x6c(%ebp)
 804baca:	e8 3a ed ff ff       	call   804a809 <newLabel>
 804bacf:	89 45 98             	mov    %eax,-0x68(%ebp)
 804bad2:	8b 45 08             	mov    0x8(%ebp),%eax
 804bad5:	8b 40 1c             	mov    0x1c(%eax),%eax
 804bad8:	83 ec 04             	sub    $0x4,%esp
 804badb:	ff 75 98             	pushl  -0x68(%ebp)
 804bade:	ff 75 94             	pushl  -0x6c(%ebp)
 804bae1:	50                   	push   %eax
 804bae2:	e8 3c 17 00 00       	call   804d223 <translate_Cond>
 804bae7:	83 c4 10             	add    $0x10,%esp
 804baea:	89 45 9c             	mov    %eax,-0x64(%ebp)
 804baed:	8b 45 08             	mov    0x8(%ebp),%eax
 804baf0:	8b 40 24             	mov    0x24(%eax),%eax
 804baf3:	83 ec 0c             	sub    $0xc,%esp
 804baf6:	50                   	push   %eax
 804baf7:	e8 f3 fe ff ff       	call   804b9ef <translate_Stmt>
 804bafc:	83 c4 10             	add    $0x10,%esp
 804baff:	89 45 a0             	mov    %eax,-0x60(%ebp)
 804bb02:	6a 00                	push   $0x0
 804bb04:	ff 75 94             	pushl  -0x6c(%ebp)
 804bb07:	6a 00                	push   $0x0
 804bb09:	6a 08                	push   $0x8
 804bb0b:	e8 1c f7 ff ff       	call   804b22c <newIC>
 804bb10:	83 c4 10             	add    $0x10,%esp
 804bb13:	89 45 a4             	mov    %eax,-0x5c(%ebp)
 804bb16:	6a 00                	push   $0x0
 804bb18:	ff 75 98             	pushl  -0x68(%ebp)
 804bb1b:	6a 00                	push   $0x0
 804bb1d:	6a 08                	push   $0x8
 804bb1f:	e8 08 f7 ff ff       	call   804b22c <newIC>
 804bb24:	83 c4 10             	add    $0x10,%esp
 804bb27:	89 45 a8             	mov    %eax,-0x58(%ebp)
 804bb2a:	83 ec 08             	sub    $0x8,%esp
 804bb2d:	ff 75 a8             	pushl  -0x58(%ebp)
 804bb30:	ff 75 a0             	pushl  -0x60(%ebp)
 804bb33:	e8 e8 eb ff ff       	call   804a720 <addTail>
 804bb38:	83 c4 10             	add    $0x10,%esp
 804bb3b:	89 45 a0             	mov    %eax,-0x60(%ebp)
 804bb3e:	83 ec 08             	sub    $0x8,%esp
 804bb41:	ff 75 a0             	pushl  -0x60(%ebp)
 804bb44:	ff 75 a4             	pushl  -0x5c(%ebp)
 804bb47:	e8 d4 eb ff ff       	call   804a720 <addTail>
 804bb4c:	83 c4 10             	add    $0x10,%esp
 804bb4f:	89 45 a4             	mov    %eax,-0x5c(%ebp)
 804bb52:	83 ec 08             	sub    $0x8,%esp
 804bb55:	ff 75 a4             	pushl  -0x5c(%ebp)
 804bb58:	ff 75 9c             	pushl  -0x64(%ebp)
 804bb5b:	e8 c0 eb ff ff       	call   804a720 <addTail>
 804bb60:	83 c4 10             	add    $0x10,%esp
 804bb63:	89 45 9c             	mov    %eax,-0x64(%ebp)
 804bb66:	8b 45 9c             	mov    -0x64(%ebp),%eax
 804bb69:	89 45 80             	mov    %eax,-0x80(%ebp)
 804bb6c:	e9 5f 02 00 00       	jmp    804bdd0 <translate_Stmt+0x3e1>
 804bb71:	8b 45 84             	mov    -0x7c(%ebp),%eax
 804bb74:	8b 40 04             	mov    0x4(%eax),%eax
 804bb77:	83 f8 1c             	cmp    $0x1c,%eax
 804bb7a:	0f 85 3f 01 00 00    	jne    804bcbf <translate_Stmt+0x2d0>
 804bb80:	8b 45 08             	mov    0x8(%ebp),%eax
 804bb83:	8b 40 10             	mov    0x10(%eax),%eax
 804bb86:	83 f8 07             	cmp    $0x7,%eax
 804bb89:	0f 85 30 01 00 00    	jne    804bcbf <translate_Stmt+0x2d0>
 804bb8f:	e8 75 ec ff ff       	call   804a809 <newLabel>
 804bb94:	89 45 ac             	mov    %eax,-0x54(%ebp)
 804bb97:	e8 6d ec ff ff       	call   804a809 <newLabel>
 804bb9c:	89 45 b0             	mov    %eax,-0x50(%ebp)
 804bb9f:	e8 65 ec ff ff       	call   804a809 <newLabel>
 804bba4:	89 45 b4             	mov    %eax,-0x4c(%ebp)
 804bba7:	8b 45 08             	mov    0x8(%ebp),%eax
 804bbaa:	8b 40 1c             	mov    0x1c(%eax),%eax
 804bbad:	83 ec 04             	sub    $0x4,%esp
 804bbb0:	ff 75 b0             	pushl  -0x50(%ebp)
 804bbb3:	ff 75 ac             	pushl  -0x54(%ebp)
 804bbb6:	50                   	push   %eax
 804bbb7:	e8 67 16 00 00       	call   804d223 <translate_Cond>
 804bbbc:	83 c4 10             	add    $0x10,%esp
 804bbbf:	89 45 b8             	mov    %eax,-0x48(%ebp)
 804bbc2:	8b 45 08             	mov    0x8(%ebp),%eax
 804bbc5:	8b 40 24             	mov    0x24(%eax),%eax
 804bbc8:	83 ec 0c             	sub    $0xc,%esp
 804bbcb:	50                   	push   %eax
 804bbcc:	e8 1e fe ff ff       	call   804b9ef <translate_Stmt>
 804bbd1:	83 c4 10             	add    $0x10,%esp
 804bbd4:	89 45 bc             	mov    %eax,-0x44(%ebp)
 804bbd7:	8b 45 08             	mov    0x8(%ebp),%eax
 804bbda:	8b 40 2c             	mov    0x2c(%eax),%eax
 804bbdd:	83 ec 0c             	sub    $0xc,%esp
 804bbe0:	50                   	push   %eax
 804bbe1:	e8 09 fe ff ff       	call   804b9ef <translate_Stmt>
 804bbe6:	83 c4 10             	add    $0x10,%esp
 804bbe9:	89 45 c0             	mov    %eax,-0x40(%ebp)
 804bbec:	6a 00                	push   $0x0
 804bbee:	ff 75 ac             	pushl  -0x54(%ebp)
 804bbf1:	6a 00                	push   $0x0
 804bbf3:	6a 08                	push   $0x8
 804bbf5:	e8 32 f6 ff ff       	call   804b22c <newIC>
 804bbfa:	83 c4 10             	add    $0x10,%esp
 804bbfd:	89 45 c4             	mov    %eax,-0x3c(%ebp)
 804bc00:	6a 00                	push   $0x0
 804bc02:	ff 75 b4             	pushl  -0x4c(%ebp)
 804bc05:	6a 00                	push   $0x0
 804bc07:	6a 0a                	push   $0xa
 804bc09:	e8 1e f6 ff ff       	call   804b22c <newIC>
 804bc0e:	83 c4 10             	add    $0x10,%esp
 804bc11:	89 45 c8             	mov    %eax,-0x38(%ebp)
 804bc14:	6a 00                	push   $0x0
 804bc16:	ff 75 b0             	pushl  -0x50(%ebp)
 804bc19:	6a 00                	push   $0x0
 804bc1b:	6a 08                	push   $0x8
 804bc1d:	e8 0a f6 ff ff       	call   804b22c <newIC>
 804bc22:	83 c4 10             	add    $0x10,%esp
 804bc25:	89 45 cc             	mov    %eax,-0x34(%ebp)
 804bc28:	6a 00                	push   $0x0
 804bc2a:	ff 75 b4             	pushl  -0x4c(%ebp)
 804bc2d:	6a 00                	push   $0x0
 804bc2f:	6a 08                	push   $0x8
 804bc31:	e8 f6 f5 ff ff       	call   804b22c <newIC>
 804bc36:	83 c4 10             	add    $0x10,%esp
 804bc39:	89 45 d0             	mov    %eax,-0x30(%ebp)
 804bc3c:	83 ec 08             	sub    $0x8,%esp
 804bc3f:	ff 75 d0             	pushl  -0x30(%ebp)
 804bc42:	ff 75 c0             	pushl  -0x40(%ebp)
 804bc45:	e8 d6 ea ff ff       	call   804a720 <addTail>
 804bc4a:	83 c4 10             	add    $0x10,%esp
 804bc4d:	89 45 c0             	mov    %eax,-0x40(%ebp)
 804bc50:	83 ec 08             	sub    $0x8,%esp
 804bc53:	ff 75 c0             	pushl  -0x40(%ebp)
 804bc56:	ff 75 cc             	pushl  -0x34(%ebp)
 804bc59:	e8 c2 ea ff ff       	call   804a720 <addTail>
 804bc5e:	83 c4 10             	add    $0x10,%esp
 804bc61:	89 45 cc             	mov    %eax,-0x34(%ebp)
 804bc64:	83 ec 08             	sub    $0x8,%esp
 804bc67:	ff 75 cc             	pushl  -0x34(%ebp)
 804bc6a:	ff 75 c8             	pushl  -0x38(%ebp)
 804bc6d:	e8 ae ea ff ff       	call   804a720 <addTail>
 804bc72:	83 c4 10             	add    $0x10,%esp
 804bc75:	89 45 c8             	mov    %eax,-0x38(%ebp)
 804bc78:	83 ec 08             	sub    $0x8,%esp
 804bc7b:	ff 75 c8             	pushl  -0x38(%ebp)
 804bc7e:	ff 75 bc             	pushl  -0x44(%ebp)
 804bc81:	e8 9a ea ff ff       	call   804a720 <addTail>
 804bc86:	83 c4 10             	add    $0x10,%esp
 804bc89:	89 45 bc             	mov    %eax,-0x44(%ebp)
 804bc8c:	83 ec 08             	sub    $0x8,%esp
 804bc8f:	ff 75 bc             	pushl  -0x44(%ebp)
 804bc92:	ff 75 c4             	pushl  -0x3c(%ebp)
 804bc95:	e8 86 ea ff ff       	call   804a720 <addTail>
 804bc9a:	83 c4 10             	add    $0x10,%esp
 804bc9d:	89 45 c4             	mov    %eax,-0x3c(%ebp)
 804bca0:	83 ec 08             	sub    $0x8,%esp
 804bca3:	ff 75 c4             	pushl  -0x3c(%ebp)
 804bca6:	ff 75 b8             	pushl  -0x48(%ebp)
 804bca9:	e8 72 ea ff ff       	call   804a720 <addTail>
 804bcae:	83 c4 10             	add    $0x10,%esp
 804bcb1:	89 45 b8             	mov    %eax,-0x48(%ebp)
 804bcb4:	8b 45 b8             	mov    -0x48(%ebp),%eax
 804bcb7:	89 45 80             	mov    %eax,-0x80(%ebp)
 804bcba:	e9 11 01 00 00       	jmp    804bdd0 <translate_Stmt+0x3e1>
 804bcbf:	8b 45 84             	mov    -0x7c(%ebp),%eax
 804bcc2:	8b 40 04             	mov    0x4(%eax),%eax
 804bcc5:	83 f8 1e             	cmp    $0x1e,%eax
 804bcc8:	0f 85 02 01 00 00    	jne    804bdd0 <translate_Stmt+0x3e1>
 804bcce:	e8 36 eb ff ff       	call   804a809 <newLabel>
 804bcd3:	89 45 d4             	mov    %eax,-0x2c(%ebp)
 804bcd6:	e8 2e eb ff ff       	call   804a809 <newLabel>
 804bcdb:	89 45 d8             	mov    %eax,-0x28(%ebp)
 804bcde:	e8 26 eb ff ff       	call   804a809 <newLabel>
 804bce3:	89 45 dc             	mov    %eax,-0x24(%ebp)
 804bce6:	8b 45 08             	mov    0x8(%ebp),%eax
 804bce9:	8b 40 1c             	mov    0x1c(%eax),%eax
 804bcec:	83 ec 04             	sub    $0x4,%esp
 804bcef:	ff 75 dc             	pushl  -0x24(%ebp)
 804bcf2:	ff 75 d8             	pushl  -0x28(%ebp)
 804bcf5:	50                   	push   %eax
 804bcf6:	e8 28 15 00 00       	call   804d223 <translate_Cond>
 804bcfb:	83 c4 10             	add    $0x10,%esp
 804bcfe:	89 45 e0             	mov    %eax,-0x20(%ebp)
 804bd01:	8b 45 08             	mov    0x8(%ebp),%eax
 804bd04:	8b 40 24             	mov    0x24(%eax),%eax
 804bd07:	83 ec 0c             	sub    $0xc,%esp
 804bd0a:	50                   	push   %eax
 804bd0b:	e8 df fc ff ff       	call   804b9ef <translate_Stmt>
 804bd10:	83 c4 10             	add    $0x10,%esp
 804bd13:	89 45 e4             	mov    %eax,-0x1c(%ebp)
 804bd16:	6a 00                	push   $0x0
 804bd18:	ff 75 d4             	pushl  -0x2c(%ebp)
 804bd1b:	6a 00                	push   $0x0
 804bd1d:	6a 08                	push   $0x8
 804bd1f:	e8 08 f5 ff ff       	call   804b22c <newIC>
 804bd24:	83 c4 10             	add    $0x10,%esp
 804bd27:	89 45 e8             	mov    %eax,-0x18(%ebp)
 804bd2a:	6a 00                	push   $0x0
 804bd2c:	ff 75 d8             	pushl  -0x28(%ebp)
 804bd2f:	6a 00                	push   $0x0
 804bd31:	6a 08                	push   $0x8
 804bd33:	e8 f4 f4 ff ff       	call   804b22c <newIC>
 804bd38:	83 c4 10             	add    $0x10,%esp
 804bd3b:	89 45 ec             	mov    %eax,-0x14(%ebp)
 804bd3e:	6a 00                	push   $0x0
 804bd40:	ff 75 d4             	pushl  -0x2c(%ebp)
 804bd43:	6a 00                	push   $0x0
 804bd45:	6a 0a                	push   $0xa
 804bd47:	e8 e0 f4 ff ff       	call   804b22c <newIC>
 804bd4c:	83 c4 10             	add    $0x10,%esp
 804bd4f:	89 45 f0             	mov    %eax,-0x10(%ebp)
 804bd52:	6a 00                	push   $0x0
 804bd54:	ff 75 dc             	pushl  -0x24(%ebp)
 804bd57:	6a 00                	push   $0x0
 804bd59:	6a 08                	push   $0x8
 804bd5b:	e8 cc f4 ff ff       	call   804b22c <newIC>
 804bd60:	83 c4 10             	add    $0x10,%esp
 804bd63:	89 45 f4             	mov    %eax,-0xc(%ebp)
 804bd66:	83 ec 08             	sub    $0x8,%esp
 804bd69:	ff 75 f4             	pushl  -0xc(%ebp)
 804bd6c:	ff 75 f0             	pushl  -0x10(%ebp)
 804bd6f:	e8 ac e9 ff ff       	call   804a720 <addTail>
 804bd74:	83 c4 10             	add    $0x10,%esp
 804bd77:	89 45 f0             	mov    %eax,-0x10(%ebp)
 804bd7a:	83 ec 08             	sub    $0x8,%esp
 804bd7d:	ff 75 f0             	pushl  -0x10(%ebp)
 804bd80:	ff 75 e4             	pushl  -0x1c(%ebp)
 804bd83:	e8 98 e9 ff ff       	call   804a720 <addTail>
 804bd88:	83 c4 10             	add    $0x10,%esp
 804bd8b:	89 45 e4             	mov    %eax,-0x1c(%ebp)
 804bd8e:	83 ec 08             	sub    $0x8,%esp
 804bd91:	ff 75 e4             	pushl  -0x1c(%ebp)
 804bd94:	ff 75 ec             	pushl  -0x14(%ebp)
 804bd97:	e8 84 e9 ff ff       	call   804a720 <addTail>
 804bd9c:	83 c4 10             	add    $0x10,%esp
 804bd9f:	89 45 ec             	mov    %eax,-0x14(%ebp)
 804bda2:	83 ec 08             	sub    $0x8,%esp
 804bda5:	ff 75 ec             	pushl  -0x14(%ebp)
 804bda8:	ff 75 e0             	pushl  -0x20(%ebp)
 804bdab:	e8 70 e9 ff ff       	call   804a720 <addTail>
 804bdb0:	83 c4 10             	add    $0x10,%esp
 804bdb3:	89 45 e0             	mov    %eax,-0x20(%ebp)
 804bdb6:	83 ec 08             	sub    $0x8,%esp
 804bdb9:	ff 75 e0             	pushl  -0x20(%ebp)
 804bdbc:	ff 75 e8             	pushl  -0x18(%ebp)
 804bdbf:	e8 5c e9 ff ff       	call   804a720 <addTail>
 804bdc4:	83 c4 10             	add    $0x10,%esp
 804bdc7:	89 45 e8             	mov    %eax,-0x18(%ebp)
 804bdca:	8b 45 e8             	mov    -0x18(%ebp),%eax
 804bdcd:	89 45 80             	mov    %eax,-0x80(%ebp)
 804bdd0:	8b 45 80             	mov    -0x80(%ebp),%eax
 804bdd3:	c9                   	leave  
 804bdd4:	c3                   	ret    

0804bdd5 <translate_Exp>:
 804bdd5:	55                   	push   %ebp
 804bdd6:	89 e5                	mov    %esp,%ebp
 804bdd8:	81 ec 38 01 00 00    	sub    $0x138,%esp
 804bdde:	8b 45 08             	mov    0x8(%ebp),%eax
 804bde1:	89 85 d4 fe ff ff    	mov    %eax,-0x12c(%ebp)
 804bde7:	8b 45 0c             	mov    0xc(%ebp),%eax
 804bdea:	89 85 d0 fe ff ff    	mov    %eax,-0x130(%ebp)
 804bdf0:	65 a1 14 00 00 00    	mov    %gs:0x14,%eax
 804bdf6:	89 45 f4             	mov    %eax,-0xc(%ebp)
 804bdf9:	31 c0                	xor    %eax,%eax
 804bdfb:	8b 85 d4 fe ff ff    	mov    -0x12c(%ebp),%eax
 804be01:	8b 40 14             	mov    0x14(%eax),%eax
 804be04:	89 85 00 ff ff ff    	mov    %eax,-0x100(%ebp)
 804be0a:	8b 85 d4 fe ff ff    	mov    -0x12c(%ebp),%eax
 804be10:	8b 40 18             	mov    0x18(%eax),%eax
 804be13:	89 85 04 ff ff ff    	mov    %eax,-0xfc(%ebp)
 804be19:	8b 85 d4 fe ff ff    	mov    -0x12c(%ebp),%eax
 804be1f:	8b 40 1c             	mov    0x1c(%eax),%eax
 804be22:	89 85 08 ff ff ff    	mov    %eax,-0xf8(%ebp)
 804be28:	c7 85 e8 fe ff ff 00 	movl   $0x0,-0x118(%ebp)
 804be2f:	00 00 00 
 804be32:	8b 85 00 ff ff ff    	mov    -0x100(%ebp),%eax
 804be38:	8b 40 04             	mov    0x4(%eax),%eax
 804be3b:	83 f8 32             	cmp    $0x32,%eax
 804be3e:	0f 85 ad 02 00 00    	jne    804c0f1 <translate_Exp+0x31c>
 804be44:	8b 85 04 ff ff ff    	mov    -0xfc(%ebp),%eax
 804be4a:	8b 40 04             	mov    0x4(%eax),%eax
 804be4d:	83 f8 0a             	cmp    $0xa,%eax
 804be50:	0f 85 9b 02 00 00    	jne    804c0f1 <translate_Exp+0x31c>
 804be56:	8b 85 00 ff ff ff    	mov    -0x100(%ebp),%eax
 804be5c:	8b 40 14             	mov    0x14(%eax),%eax
 804be5f:	8b 40 04             	mov    0x4(%eax),%eax
 804be62:	83 f8 03             	cmp    $0x3,%eax
 804be65:	0f 85 34 01 00 00    	jne    804bf9f <translate_Exp+0x1ca>
 804be6b:	8b 85 00 ff ff ff    	mov    -0x100(%ebp),%eax
 804be71:	8b 40 14             	mov    0x14(%eax),%eax
 804be74:	8b 40 08             	mov    0x8(%eax),%eax
 804be77:	89 85 0c ff ff ff    	mov    %eax,-0xf4(%ebp)
 804be7d:	83 ec 0c             	sub    $0xc,%esp
 804be80:	ff b5 0c ff ff ff    	pushl  -0xf4(%ebp)
 804be86:	e8 3b 6d 00 00       	call   8052bc6 <searchTable>
 804be8b:	83 c4 10             	add    $0x10,%esp
 804be8e:	89 85 10 ff ff ff    	mov    %eax,-0xf0(%ebp)
 804be94:	83 bd 10 ff ff ff 00 	cmpl   $0x0,-0xf0(%ebp)
 804be9b:	75 19                	jne    804beb6 <translate_Exp+0xe1>
 804be9d:	68 68 3f 05 08       	push   $0x8053f68
 804bea2:	68 51 02 00 00       	push   $0x251
 804bea7:	68 98 3b 05 08       	push   $0x8053b98
 804beac:	68 9f 3d 05 08       	push   $0x8053d9f
 804beb1:	e8 0a cb ff ff       	call   80489c0 <__assert_fail@plt>
 804beb6:	e8 1e e9 ff ff       	call   804a7d9 <newTemp>
 804bebb:	89 85 14 ff ff ff    	mov    %eax,-0xec(%ebp)
 804bec1:	83 ec 08             	sub    $0x8,%esp
 804bec4:	ff b5 14 ff ff ff    	pushl  -0xec(%ebp)
 804beca:	ff b5 08 ff ff ff    	pushl  -0xf8(%ebp)
 804bed0:	e8 00 ff ff ff       	call   804bdd5 <translate_Exp>
 804bed5:	83 c4 10             	add    $0x10,%esp
 804bed8:	89 85 18 ff ff ff    	mov    %eax,-0xe8(%ebp)
 804bede:	e8 89 f2 ff ff       	call   804b16c <newInterCodes>
 804bee3:	89 85 ec fe ff ff    	mov    %eax,-0x114(%ebp)
 804bee9:	8b 85 ec fe ff ff    	mov    -0x114(%ebp),%eax
 804beef:	c7 00 00 00 00 00    	movl   $0x0,(%eax)
 804bef5:	e8 9f f2 ff ff       	call   804b199 <newOperand>
 804befa:	89 85 1c ff ff ff    	mov    %eax,-0xe4(%ebp)
 804bf00:	8b 85 1c ff ff ff    	mov    -0xe4(%ebp),%eax
 804bf06:	c7 00 00 00 00 00    	movl   $0x0,(%eax)
 804bf0c:	8b 85 1c ff ff ff    	mov    -0xe4(%ebp),%eax
 804bf12:	8b 95 0c ff ff ff    	mov    -0xf4(%ebp),%edx
 804bf18:	89 50 04             	mov    %edx,0x4(%eax)
 804bf1b:	8b 85 ec fe ff ff    	mov    -0x114(%ebp),%eax
 804bf21:	8b 95 1c ff ff ff    	mov    -0xe4(%ebp),%edx
 804bf27:	89 50 04             	mov    %edx,0x4(%eax)
 804bf2a:	8b 85 ec fe ff ff    	mov    -0x114(%ebp),%eax
 804bf30:	8b 95 14 ff ff ff    	mov    -0xec(%ebp),%edx
 804bf36:	89 50 08             	mov    %edx,0x8(%eax)
 804bf39:	83 bd d0 fe ff ff 00 	cmpl   $0x0,-0x130(%ebp)
 804bf40:	74 3b                	je     804bf7d <translate_Exp+0x1a8>
 804bf42:	6a 00                	push   $0x0
 804bf44:	ff b5 1c ff ff ff    	pushl  -0xe4(%ebp)
 804bf4a:	ff b5 d0 fe ff ff    	pushl  -0x130(%ebp)
 804bf50:	6a 00                	push   $0x0
 804bf52:	e8 d5 f2 ff ff       	call   804b22c <newIC>
 804bf57:	83 c4 10             	add    $0x10,%esp
 804bf5a:	89 85 20 ff ff ff    	mov    %eax,-0xe0(%ebp)
 804bf60:	83 ec 08             	sub    $0x8,%esp
 804bf63:	ff b5 20 ff ff ff    	pushl  -0xe0(%ebp)
 804bf69:	ff b5 ec fe ff ff    	pushl  -0x114(%ebp)
 804bf6f:	e8 ac e7 ff ff       	call   804a720 <addTail>
 804bf74:	83 c4 10             	add    $0x10,%esp
 804bf77:	89 85 ec fe ff ff    	mov    %eax,-0x114(%ebp)
 804bf7d:	83 ec 08             	sub    $0x8,%esp
 804bf80:	ff b5 ec fe ff ff    	pushl  -0x114(%ebp)
 804bf86:	ff b5 18 ff ff ff    	pushl  -0xe8(%ebp)
 804bf8c:	e8 8f e7 ff ff       	call   804a720 <addTail>
 804bf91:	83 c4 10             	add    $0x10,%esp
 804bf94:	89 85 e8 fe ff ff    	mov    %eax,-0x118(%ebp)
 804bf9a:	e9 64 0b 00 00       	jmp    804cb03 <translate_Exp+0xd2e>
 804bf9f:	8b 85 00 ff ff ff    	mov    -0x100(%ebp),%eax
 804bfa5:	8b 40 14             	mov    0x14(%eax),%eax
 804bfa8:	8b 40 04             	mov    0x4(%eax),%eax
 804bfab:	83 f8 32             	cmp    $0x32,%eax
 804bfae:	0f 85 24 01 00 00    	jne    804c0d8 <translate_Exp+0x303>
 804bfb4:	8b 85 00 ff ff ff    	mov    -0x100(%ebp),%eax
 804bfba:	8b 40 18             	mov    0x18(%eax),%eax
 804bfbd:	8b 40 04             	mov    0x4(%eax),%eax
 804bfc0:	83 f8 12             	cmp    $0x12,%eax
 804bfc3:	74 15                	je     804bfda <translate_Exp+0x205>
 804bfc5:	8b 85 00 ff ff ff    	mov    -0x100(%ebp),%eax
 804bfcb:	8b 40 18             	mov    0x18(%eax),%eax
 804bfce:	8b 40 04             	mov    0x4(%eax),%eax
 804bfd1:	83 f8 16             	cmp    $0x16,%eax
 804bfd4:	0f 85 fe 00 00 00    	jne    804c0d8 <translate_Exp+0x303>
 804bfda:	e8 fa e7 ff ff       	call   804a7d9 <newTemp>
 804bfdf:	89 85 24 ff ff ff    	mov    %eax,-0xdc(%ebp)
 804bfe5:	83 ec 08             	sub    $0x8,%esp
 804bfe8:	ff b5 24 ff ff ff    	pushl  -0xdc(%ebp)
 804bfee:	ff b5 00 ff ff ff    	pushl  -0x100(%ebp)
 804bff4:	e8 dc fd ff ff       	call   804bdd5 <translate_Exp>
 804bff9:	83 c4 10             	add    $0x10,%esp
 804bffc:	89 85 f0 fe ff ff    	mov    %eax,-0x110(%ebp)
 804c002:	e8 d2 e7 ff ff       	call   804a7d9 <newTemp>
 804c007:	89 85 28 ff ff ff    	mov    %eax,-0xd8(%ebp)
 804c00d:	83 ec 08             	sub    $0x8,%esp
 804c010:	ff b5 28 ff ff ff    	pushl  -0xd8(%ebp)
 804c016:	ff b5 08 ff ff ff    	pushl  -0xf8(%ebp)
 804c01c:	e8 b4 fd ff ff       	call   804bdd5 <translate_Exp>
 804c021:	83 c4 10             	add    $0x10,%esp
 804c024:	89 85 2c ff ff ff    	mov    %eax,-0xd4(%ebp)
 804c02a:	6a 00                	push   $0x0
 804c02c:	ff b5 28 ff ff ff    	pushl  -0xd8(%ebp)
 804c032:	ff b5 24 ff ff ff    	pushl  -0xdc(%ebp)
 804c038:	6a 00                	push   $0x0
 804c03a:	e8 ed f1 ff ff       	call   804b22c <newIC>
 804c03f:	83 c4 10             	add    $0x10,%esp
 804c042:	89 85 30 ff ff ff    	mov    %eax,-0xd0(%ebp)
 804c048:	83 ec 08             	sub    $0x8,%esp
 804c04b:	ff b5 30 ff ff ff    	pushl  -0xd0(%ebp)
 804c051:	ff b5 2c ff ff ff    	pushl  -0xd4(%ebp)
 804c057:	e8 c4 e6 ff ff       	call   804a720 <addTail>
 804c05c:	83 c4 10             	add    $0x10,%esp
 804c05f:	89 85 2c ff ff ff    	mov    %eax,-0xd4(%ebp)
 804c065:	83 ec 08             	sub    $0x8,%esp
 804c068:	ff b5 2c ff ff ff    	pushl  -0xd4(%ebp)
 804c06e:	ff b5 f0 fe ff ff    	pushl  -0x110(%ebp)
 804c074:	e8 a7 e6 ff ff       	call   804a720 <addTail>
 804c079:	83 c4 10             	add    $0x10,%esp
 804c07c:	89 85 f0 fe ff ff    	mov    %eax,-0x110(%ebp)
 804c082:	83 bd d0 fe ff ff 00 	cmpl   $0x0,-0x130(%ebp)
 804c089:	74 3b                	je     804c0c6 <translate_Exp+0x2f1>
 804c08b:	6a 00                	push   $0x0
 804c08d:	ff b5 24 ff ff ff    	pushl  -0xdc(%ebp)
 804c093:	ff b5 d0 fe ff ff    	pushl  -0x130(%ebp)
 804c099:	6a 00                	push   $0x0
 804c09b:	e8 8c f1 ff ff       	call   804b22c <newIC>
 804c0a0:	83 c4 10             	add    $0x10,%esp
 804c0a3:	89 85 34 ff ff ff    	mov    %eax,-0xcc(%ebp)
 804c0a9:	83 ec 08             	sub    $0x8,%esp
 804c0ac:	ff b5 34 ff ff ff    	pushl  -0xcc(%ebp)
 804c0b2:	ff b5 f0 fe ff ff    	pushl  -0x110(%ebp)
 804c0b8:	e8 63 e6 ff ff       	call   804a720 <addTail>
 804c0bd:	83 c4 10             	add    $0x10,%esp
 804c0c0:	89 85 f0 fe ff ff    	mov    %eax,-0x110(%ebp)
 804c0c6:	8b 85 f0 fe ff ff    	mov    -0x110(%ebp),%eax
 804c0cc:	89 85 e8 fe ff ff    	mov    %eax,-0x118(%ebp)
 804c0d2:	90                   	nop
 804c0d3:	e9 2b 0a 00 00       	jmp    804cb03 <translate_Exp+0xd2e>
 804c0d8:	68 68 3f 05 08       	push   $0x8053f68
 804c0dd:	68 7d 02 00 00       	push   $0x27d
 804c0e2:	68 98 3b 05 08       	push   $0x8053b98
 804c0e7:	68 9d 3b 05 08       	push   $0x8053b9d
 804c0ec:	e8 cf c8 ff ff       	call   80489c0 <__assert_fail@plt>
 804c0f1:	8b 85 00 ff ff ff    	mov    -0x100(%ebp),%eax
 804c0f7:	8b 40 04             	mov    0x4(%eax),%eax
 804c0fa:	83 f8 32             	cmp    $0x32,%eax
 804c0fd:	0f 85 f1 00 00 00    	jne    804c1f4 <translate_Exp+0x41f>
 804c103:	8b 85 04 ff ff ff    	mov    -0xfc(%ebp),%eax
 804c109:	8b 40 04             	mov    0x4(%eax),%eax
 804c10c:	83 f8 0c             	cmp    $0xc,%eax
 804c10f:	0f 85 df 00 00 00    	jne    804c1f4 <translate_Exp+0x41f>
 804c115:	e8 bf e6 ff ff       	call   804a7d9 <newTemp>
 804c11a:	89 85 38 ff ff ff    	mov    %eax,-0xc8(%ebp)
 804c120:	e8 b4 e6 ff ff       	call   804a7d9 <newTemp>
 804c125:	89 85 3c ff ff ff    	mov    %eax,-0xc4(%ebp)
 804c12b:	83 ec 08             	sub    $0x8,%esp
 804c12e:	ff b5 38 ff ff ff    	pushl  -0xc8(%ebp)
 804c134:	ff b5 00 ff ff ff    	pushl  -0x100(%ebp)
 804c13a:	e8 96 fc ff ff       	call   804bdd5 <translate_Exp>
 804c13f:	83 c4 10             	add    $0x10,%esp
 804c142:	89 85 40 ff ff ff    	mov    %eax,-0xc0(%ebp)
 804c148:	83 ec 08             	sub    $0x8,%esp
 804c14b:	ff b5 3c ff ff ff    	pushl  -0xc4(%ebp)
 804c151:	ff b5 08 ff ff ff    	pushl  -0xf8(%ebp)
 804c157:	e8 79 fc ff ff       	call   804bdd5 <translate_Exp>
 804c15c:	83 c4 10             	add    $0x10,%esp
 804c15f:	89 85 44 ff ff ff    	mov    %eax,-0xbc(%ebp)
 804c165:	e8 02 f0 ff ff       	call   804b16c <newInterCodes>
 804c16a:	89 85 48 ff ff ff    	mov    %eax,-0xb8(%ebp)
 804c170:	8b 85 48 ff ff ff    	mov    -0xb8(%ebp),%eax
 804c176:	c7 00 01 00 00 00    	movl   $0x1,(%eax)
 804c17c:	8b 85 48 ff ff ff    	mov    -0xb8(%ebp),%eax
 804c182:	8b 95 38 ff ff ff    	mov    -0xc8(%ebp),%edx
 804c188:	89 50 08             	mov    %edx,0x8(%eax)
 804c18b:	8b 85 48 ff ff ff    	mov    -0xb8(%ebp),%eax
 804c191:	8b 95 3c ff ff ff    	mov    -0xc4(%ebp),%edx
 804c197:	89 50 0c             	mov    %edx,0xc(%eax)
 804c19a:	8b 85 48 ff ff ff    	mov    -0xb8(%ebp),%eax
 804c1a0:	8b 95 d0 fe ff ff    	mov    -0x130(%ebp),%edx
 804c1a6:	89 50 04             	mov    %edx,0x4(%eax)
 804c1a9:	83 ec 08             	sub    $0x8,%esp
 804c1ac:	ff b5 48 ff ff ff    	pushl  -0xb8(%ebp)
 804c1b2:	ff b5 44 ff ff ff    	pushl  -0xbc(%ebp)
 804c1b8:	e8 63 e5 ff ff       	call   804a720 <addTail>
 804c1bd:	83 c4 10             	add    $0x10,%esp
 804c1c0:	89 85 44 ff ff ff    	mov    %eax,-0xbc(%ebp)
 804c1c6:	83 ec 08             	sub    $0x8,%esp
 804c1c9:	ff b5 44 ff ff ff    	pushl  -0xbc(%ebp)
 804c1cf:	ff b5 40 ff ff ff    	pushl  -0xc0(%ebp)
 804c1d5:	e8 46 e5 ff ff       	call   804a720 <addTail>
 804c1da:	83 c4 10             	add    $0x10,%esp
 804c1dd:	89 85 40 ff ff ff    	mov    %eax,-0xc0(%ebp)
 804c1e3:	8b 85 40 ff ff ff    	mov    -0xc0(%ebp),%eax
 804c1e9:	89 85 e8 fe ff ff    	mov    %eax,-0x118(%ebp)
 804c1ef:	e9 0f 09 00 00       	jmp    804cb03 <translate_Exp+0xd2e>
 804c1f4:	8b 85 00 ff ff ff    	mov    -0x100(%ebp),%eax
 804c1fa:	8b 40 04             	mov    0x4(%eax),%eax
 804c1fd:	83 f8 32             	cmp    $0x32,%eax
 804c200:	0f 85 cf 00 00 00    	jne    804c2d5 <translate_Exp+0x500>
 804c206:	8b 85 04 ff ff ff    	mov    -0xfc(%ebp),%eax
 804c20c:	8b 40 04             	mov    0x4(%eax),%eax
 804c20f:	83 f8 0d             	cmp    $0xd,%eax
 804c212:	0f 85 bd 00 00 00    	jne    804c2d5 <translate_Exp+0x500>
 804c218:	e8 bc e5 ff ff       	call   804a7d9 <newTemp>
 804c21d:	89 85 4c ff ff ff    	mov    %eax,-0xb4(%ebp)
 804c223:	e8 b1 e5 ff ff       	call   804a7d9 <newTemp>
 804c228:	89 85 50 ff ff ff    	mov    %eax,-0xb0(%ebp)
 804c22e:	83 ec 08             	sub    $0x8,%esp
 804c231:	ff b5 4c ff ff ff    	pushl  -0xb4(%ebp)
 804c237:	ff b5 00 ff ff ff    	pushl  -0x100(%ebp)
 804c23d:	e8 93 fb ff ff       	call   804bdd5 <translate_Exp>
 804c242:	83 c4 10             	add    $0x10,%esp
 804c245:	89 85 54 ff ff ff    	mov    %eax,-0xac(%ebp)
 804c24b:	83 ec 08             	sub    $0x8,%esp
 804c24e:	ff b5 50 ff ff ff    	pushl  -0xb0(%ebp)
 804c254:	ff b5 08 ff ff ff    	pushl  -0xf8(%ebp)
 804c25a:	e8 76 fb ff ff       	call   804bdd5 <translate_Exp>
 804c25f:	83 c4 10             	add    $0x10,%esp
 804c262:	89 85 58 ff ff ff    	mov    %eax,-0xa8(%ebp)
 804c268:	ff b5 50 ff ff ff    	pushl  -0xb0(%ebp)
 804c26e:	ff b5 4c ff ff ff    	pushl  -0xb4(%ebp)
 804c274:	ff b5 d0 fe ff ff    	pushl  -0x130(%ebp)
 804c27a:	6a 02                	push   $0x2
 804c27c:	e8 ab ef ff ff       	call   804b22c <newIC>
 804c281:	83 c4 10             	add    $0x10,%esp
 804c284:	89 85 5c ff ff ff    	mov    %eax,-0xa4(%ebp)
 804c28a:	83 ec 08             	sub    $0x8,%esp
 804c28d:	ff b5 5c ff ff ff    	pushl  -0xa4(%ebp)
 804c293:	ff b5 58 ff ff ff    	pushl  -0xa8(%ebp)
 804c299:	e8 82 e4 ff ff       	call   804a720 <addTail>
 804c29e:	83 c4 10             	add    $0x10,%esp
 804c2a1:	89 85 58 ff ff ff    	mov    %eax,-0xa8(%ebp)
 804c2a7:	83 ec 08             	sub    $0x8,%esp
 804c2aa:	ff b5 58 ff ff ff    	pushl  -0xa8(%ebp)
 804c2b0:	ff b5 54 ff ff ff    	pushl  -0xac(%ebp)
 804c2b6:	e8 65 e4 ff ff       	call   804a720 <addTail>
 804c2bb:	83 c4 10             	add    $0x10,%esp
 804c2be:	89 85 54 ff ff ff    	mov    %eax,-0xac(%ebp)
 804c2c4:	8b 85 54 ff ff ff    	mov    -0xac(%ebp),%eax
 804c2ca:	89 85 e8 fe ff ff    	mov    %eax,-0x118(%ebp)
 804c2d0:	e9 2e 08 00 00       	jmp    804cb03 <translate_Exp+0xd2e>
 804c2d5:	8b 85 00 ff ff ff    	mov    -0x100(%ebp),%eax
 804c2db:	8b 40 04             	mov    0x4(%eax),%eax
 804c2de:	83 f8 32             	cmp    $0x32,%eax
 804c2e1:	0f 85 cf 00 00 00    	jne    804c3b6 <translate_Exp+0x5e1>
 804c2e7:	8b 85 04 ff ff ff    	mov    -0xfc(%ebp),%eax
 804c2ed:	8b 40 04             	mov    0x4(%eax),%eax
 804c2f0:	83 f8 0e             	cmp    $0xe,%eax
 804c2f3:	0f 85 bd 00 00 00    	jne    804c3b6 <translate_Exp+0x5e1>
 804c2f9:	e8 db e4 ff ff       	call   804a7d9 <newTemp>
 804c2fe:	89 85 60 ff ff ff    	mov    %eax,-0xa0(%ebp)
 804c304:	e8 d0 e4 ff ff       	call   804a7d9 <newTemp>
 804c309:	89 85 64 ff ff ff    	mov    %eax,-0x9c(%ebp)
 804c30f:	83 ec 08             	sub    $0x8,%esp
 804c312:	ff b5 60 ff ff ff    	pushl  -0xa0(%ebp)
 804c318:	ff b5 00 ff ff ff    	pushl  -0x100(%ebp)
 804c31e:	e8 b2 fa ff ff       	call   804bdd5 <translate_Exp>
 804c323:	83 c4 10             	add    $0x10,%esp
 804c326:	89 85 68 ff ff ff    	mov    %eax,-0x98(%ebp)
 804c32c:	83 ec 08             	sub    $0x8,%esp
 804c32f:	ff b5 64 ff ff ff    	pushl  -0x9c(%ebp)
 804c335:	ff b5 08 ff ff ff    	pushl  -0xf8(%ebp)
 804c33b:	e8 95 fa ff ff       	call   804bdd5 <translate_Exp>
 804c340:	83 c4 10             	add    $0x10,%esp
 804c343:	89 85 6c ff ff ff    	mov    %eax,-0x94(%ebp)
 804c349:	ff b5 64 ff ff ff    	pushl  -0x9c(%ebp)
 804c34f:	ff b5 60 ff ff ff    	pushl  -0xa0(%ebp)
 804c355:	ff b5 d0 fe ff ff    	pushl  -0x130(%ebp)
 804c35b:	6a 03                	push   $0x3
 804c35d:	e8 ca ee ff ff       	call   804b22c <newIC>
 804c362:	83 c4 10             	add    $0x10,%esp
 804c365:	89 85 70 ff ff ff    	mov    %eax,-0x90(%ebp)
 804c36b:	83 ec 08             	sub    $0x8,%esp
 804c36e:	ff b5 70 ff ff ff    	pushl  -0x90(%ebp)
 804c374:	ff b5 6c ff ff ff    	pushl  -0x94(%ebp)
 804c37a:	e8 a1 e3 ff ff       	call   804a720 <addTail>
 804c37f:	83 c4 10             	add    $0x10,%esp
 804c382:	89 85 6c ff ff ff    	mov    %eax,-0x94(%ebp)
 804c388:	83 ec 08             	sub    $0x8,%esp
 804c38b:	ff b5 6c ff ff ff    	pushl  -0x94(%ebp)
 804c391:	ff b5 68 ff ff ff    	pushl  -0x98(%ebp)
 804c397:	e8 84 e3 ff ff       	call   804a720 <addTail>
 804c39c:	83 c4 10             	add    $0x10,%esp
 804c39f:	89 85 68 ff ff ff    	mov    %eax,-0x98(%ebp)
 804c3a5:	8b 85 68 ff ff ff    	mov    -0x98(%ebp),%eax
 804c3ab:	89 85 e8 fe ff ff    	mov    %eax,-0x118(%ebp)
 804c3b1:	e9 4d 07 00 00       	jmp    804cb03 <translate_Exp+0xd2e>
 804c3b6:	8b 85 00 ff ff ff    	mov    -0x100(%ebp),%eax
 804c3bc:	8b 40 04             	mov    0x4(%eax),%eax
 804c3bf:	83 f8 32             	cmp    $0x32,%eax
 804c3c2:	0f 85 bd 00 00 00    	jne    804c485 <translate_Exp+0x6b0>
 804c3c8:	8b 85 04 ff ff ff    	mov    -0xfc(%ebp),%eax
 804c3ce:	8b 40 04             	mov    0x4(%eax),%eax
 804c3d1:	83 f8 0f             	cmp    $0xf,%eax
 804c3d4:	0f 85 ab 00 00 00    	jne    804c485 <translate_Exp+0x6b0>
 804c3da:	e8 fa e3 ff ff       	call   804a7d9 <newTemp>
 804c3df:	89 85 74 ff ff ff    	mov    %eax,-0x8c(%ebp)
 804c3e5:	e8 ef e3 ff ff       	call   804a7d9 <newTemp>
 804c3ea:	89 85 78 ff ff ff    	mov    %eax,-0x88(%ebp)
 804c3f0:	83 ec 08             	sub    $0x8,%esp
 804c3f3:	ff b5 74 ff ff ff    	pushl  -0x8c(%ebp)
 804c3f9:	ff b5 00 ff ff ff    	pushl  -0x100(%ebp)
 804c3ff:	e8 d1 f9 ff ff       	call   804bdd5 <translate_Exp>
 804c404:	83 c4 10             	add    $0x10,%esp
 804c407:	89 85 7c ff ff ff    	mov    %eax,-0x84(%ebp)
 804c40d:	83 ec 08             	sub    $0x8,%esp
 804c410:	ff b5 78 ff ff ff    	pushl  -0x88(%ebp)
 804c416:	ff b5 08 ff ff ff    	pushl  -0xf8(%ebp)
 804c41c:	e8 b4 f9 ff ff       	call   804bdd5 <translate_Exp>
 804c421:	83 c4 10             	add    $0x10,%esp
 804c424:	89 45 80             	mov    %eax,-0x80(%ebp)
 804c427:	ff b5 78 ff ff ff    	pushl  -0x88(%ebp)
 804c42d:	ff b5 74 ff ff ff    	pushl  -0x8c(%ebp)
 804c433:	ff b5 d0 fe ff ff    	pushl  -0x130(%ebp)
 804c439:	6a 05                	push   $0x5
 804c43b:	e8 ec ed ff ff       	call   804b22c <newIC>
 804c440:	83 c4 10             	add    $0x10,%esp
 804c443:	89 45 84             	mov    %eax,-0x7c(%ebp)
 804c446:	83 ec 08             	sub    $0x8,%esp
 804c449:	ff 75 84             	pushl  -0x7c(%ebp)
 804c44c:	ff 75 80             	pushl  -0x80(%ebp)
 804c44f:	e8 cc e2 ff ff       	call   804a720 <addTail>
 804c454:	83 c4 10             	add    $0x10,%esp
 804c457:	89 45 80             	mov    %eax,-0x80(%ebp)
 804c45a:	83 ec 08             	sub    $0x8,%esp
 804c45d:	ff 75 80             	pushl  -0x80(%ebp)
