
parser：     文件格式 elf32-i386


Disassembly of section .init:

08048798 <_init>:
 8048798:	53                   	push   %ebx
 8048799:	83 ec 08             	sub    $0x8,%esp
 804879c:	e8 9f 02 00 00       	call   8048a40 <__x86.get_pc_thunk.bx>
 80487a1:	81 c3 5f 28 01 00    	add    $0x1285f,%ebx
 80487a7:	8b 83 fc ff ff ff    	mov    -0x4(%ebx),%eax
 80487ad:	85 c0                	test   %eax,%eax
 80487af:	74 05                	je     80487b6 <_init+0x1e>
 80487b1:	e8 4a 02 00 00       	call   8048a00 <__assert_fail@plt+0x10>
 80487b6:	83 c4 08             	add    $0x8,%esp
 80487b9:	5b                   	pop    %ebx
 80487ba:	c3                   	ret    

Disassembly of section .plt:

080487c0 <strcmp@plt-0x10>:
 80487c0:	ff 35 04 b0 05 08    	pushl  0x805b004
 80487c6:	ff 25 08 b0 05 08    	jmp    *0x805b008
 80487cc:	00 00                	add    %al,(%eax)
	...

080487d0 <strcmp@plt>:
 80487d0:	ff 25 0c b0 05 08    	jmp    *0x805b00c
 80487d6:	68 00 00 00 00       	push   $0x0
 80487db:	e9 e0 ff ff ff       	jmp    80487c0 <_init+0x28>

080487e0 <printf@plt>:
 80487e0:	ff 25 10 b0 05 08    	jmp    *0x805b010
 80487e6:	68 08 00 00 00       	push   $0x8
 80487eb:	e9 d0 ff ff ff       	jmp    80487c0 <_init+0x28>

080487f0 <free@plt>:
 80487f0:	ff 25 14 b0 05 08    	jmp    *0x805b014
 80487f6:	68 10 00 00 00       	push   $0x10
 80487fb:	e9 c0 ff ff ff       	jmp    80487c0 <_init+0x28>

08048800 <memcpy@plt>:
 8048800:	ff 25 18 b0 05 08    	jmp    *0x805b018
 8048806:	68 18 00 00 00       	push   $0x18
 804880b:	e9 b0 ff ff ff       	jmp    80487c0 <_init+0x28>

08048810 <ferror@plt>:
 8048810:	ff 25 1c b0 05 08    	jmp    *0x805b01c
 8048816:	68 20 00 00 00       	push   $0x20
 804881b:	e9 a0 ff ff ff       	jmp    80487c0 <_init+0x28>

08048820 <fclose@plt>:
 8048820:	ff 25 20 b0 05 08    	jmp    *0x805b020
 8048826:	68 28 00 00 00       	push   $0x28
 804882b:	e9 90 ff ff ff       	jmp    80487c0 <_init+0x28>

08048830 <__stack_chk_fail@plt>:
 8048830:	ff 25 24 b0 05 08    	jmp    *0x805b024
 8048836:	68 30 00 00 00       	push   $0x30
 804883b:	e9 80 ff ff ff       	jmp    80487c0 <_init+0x28>

08048840 <_IO_getc@plt>:
 8048840:	ff 25 28 b0 05 08    	jmp    *0x805b028
 8048846:	68 38 00 00 00       	push   $0x38
 804884b:	e9 70 ff ff ff       	jmp    80487c0 <_init+0x28>

08048850 <perror@plt>:
 8048850:	ff 25 2c b0 05 08    	jmp    *0x805b02c
 8048856:	68 40 00 00 00       	push   $0x40
 804885b:	e9 60 ff ff ff       	jmp    80487c0 <_init+0x28>

08048860 <fwrite@plt>:
 8048860:	ff 25 30 b0 05 08    	jmp    *0x805b030
 8048866:	68 48 00 00 00       	push   $0x48
 804886b:	e9 50 ff ff ff       	jmp    80487c0 <_init+0x28>

08048870 <fread@plt>:
 8048870:	ff 25 34 b0 05 08    	jmp    *0x805b034
 8048876:	68 50 00 00 00       	push   $0x50
 804887b:	e9 40 ff ff ff       	jmp    80487c0 <_init+0x28>

08048880 <strcpy@plt>:
 8048880:	ff 25 38 b0 05 08    	jmp    *0x805b038
 8048886:	68 58 00 00 00       	push   $0x58
 804888b:	e9 30 ff ff ff       	jmp    80487c0 <_init+0x28>

08048890 <realloc@plt>:
 8048890:	ff 25 3c b0 05 08    	jmp    *0x805b03c
 8048896:	68 60 00 00 00       	push   $0x60
 804889b:	e9 20 ff ff ff       	jmp    80487c0 <_init+0x28>

080488a0 <malloc@plt>:
 80488a0:	ff 25 40 b0 05 08    	jmp    *0x805b040
 80488a6:	68 68 00 00 00       	push   $0x68
 80488ab:	e9 10 ff ff ff       	jmp    80487c0 <_init+0x28>

080488b0 <puts@plt>:
 80488b0:	ff 25 44 b0 05 08    	jmp    *0x805b044
 80488b6:	68 70 00 00 00       	push   $0x70
 80488bb:	e9 00 ff ff ff       	jmp    80487c0 <_init+0x28>

080488c0 <exit@plt>:
 80488c0:	ff 25 48 b0 05 08    	jmp    *0x805b048
 80488c6:	68 78 00 00 00       	push   $0x78
 80488cb:	e9 f0 fe ff ff       	jmp    80487c0 <_init+0x28>

080488d0 <strlen@plt>:
 80488d0:	ff 25 4c b0 05 08    	jmp    *0x805b04c
 80488d6:	68 80 00 00 00       	push   $0x80
 80488db:	e9 e0 fe ff ff       	jmp    80487c0 <_init+0x28>

080488e0 <vprintf@plt>:
 80488e0:	ff 25 50 b0 05 08    	jmp    *0x805b050
 80488e6:	68 88 00 00 00       	push   $0x88
 80488eb:	e9 d0 fe ff ff       	jmp    80487c0 <_init+0x28>

080488f0 <__libc_start_main@plt>:
 80488f0:	ff 25 54 b0 05 08    	jmp    *0x805b054
 80488f6:	68 90 00 00 00       	push   $0x90
 80488fb:	e9 c0 fe ff ff       	jmp    80487c0 <_init+0x28>

08048900 <fprintf@plt>:
 8048900:	ff 25 58 b0 05 08    	jmp    *0x805b058
 8048906:	68 98 00 00 00       	push   $0x98
 804890b:	e9 b0 fe ff ff       	jmp    80487c0 <_init+0x28>

08048910 <fopen@plt>:
 8048910:	ff 25 5c b0 05 08    	jmp    *0x805b05c
 8048916:	68 a0 00 00 00       	push   $0xa0
 804891b:	e9 a0 fe ff ff       	jmp    80487c0 <_init+0x28>

08048920 <memset@plt>:
 8048920:	ff 25 60 b0 05 08    	jmp    *0x805b060
 8048926:	68 a8 00 00 00       	push   $0xa8
 804892b:	e9 90 fe ff ff       	jmp    80487c0 <_init+0x28>

08048930 <putchar@plt>:
 8048930:	ff 25 64 b0 05 08    	jmp    *0x805b064
 8048936:	68 b0 00 00 00       	push   $0xb0
 804893b:	e9 80 fe ff ff       	jmp    80487c0 <_init+0x28>

08048940 <__errno_location@plt>:
 8048940:	ff 25 68 b0 05 08    	jmp    *0x805b068
 8048946:	68 b8 00 00 00       	push   $0xb8
 804894b:	e9 70 fe ff ff       	jmp    80487c0 <_init+0x28>

08048950 <strncpy@plt>:
 8048950:	ff 25 6c b0 05 08    	jmp    *0x805b06c
 8048956:	68 c0 00 00 00       	push   $0xc0
 804895b:	e9 60 fe ff ff       	jmp    80487c0 <_init+0x28>

08048960 <fileno@plt>:
 8048960:	ff 25 70 b0 05 08    	jmp    *0x805b070
 8048966:	68 c8 00 00 00       	push   $0xc8
 804896b:	e9 50 fe ff ff       	jmp    80487c0 <_init+0x28>

08048970 <vfprintf@plt>:
 8048970:	ff 25 74 b0 05 08    	jmp    *0x805b074
 8048976:	68 d0 00 00 00       	push   $0xd0
 804897b:	e9 40 fe ff ff       	jmp    80487c0 <_init+0x28>

08048980 <fputc@plt>:
 8048980:	ff 25 78 b0 05 08    	jmp    *0x805b078
 8048986:	68 d8 00 00 00       	push   $0xd8
 804898b:	e9 30 fe ff ff       	jmp    80487c0 <_init+0x28>

08048990 <clearerr@plt>:
 8048990:	ff 25 7c b0 05 08    	jmp    *0x805b07c
 8048996:	68 e0 00 00 00       	push   $0xe0
 804899b:	e9 20 fe ff ff       	jmp    80487c0 <_init+0x28>

080489a0 <atoi@plt>:
 80489a0:	ff 25 80 b0 05 08    	jmp    *0x805b080
 80489a6:	68 e8 00 00 00       	push   $0xe8
 80489ab:	e9 10 fe ff ff       	jmp    80487c0 <_init+0x28>

080489b0 <atof@plt>:
 80489b0:	ff 25 84 b0 05 08    	jmp    *0x805b084
 80489b6:	68 f0 00 00 00       	push   $0xf0
 80489bb:	e9 00 fe ff ff       	jmp    80487c0 <_init+0x28>

080489c0 <isatty@plt>:
 80489c0:	ff 25 88 b0 05 08    	jmp    *0x805b088
 80489c6:	68 f8 00 00 00       	push   $0xf8
 80489cb:	e9 f0 fd ff ff       	jmp    80487c0 <_init+0x28>

080489d0 <strtol@plt>:
 80489d0:	ff 25 8c b0 05 08    	jmp    *0x805b08c
 80489d6:	68 00 01 00 00       	push   $0x100
 80489db:	e9 e0 fd ff ff       	jmp    80487c0 <_init+0x28>

080489e0 <fputs@plt>:
 80489e0:	ff 25 90 b0 05 08    	jmp    *0x805b090
 80489e6:	68 08 01 00 00       	push   $0x108
 80489eb:	e9 d0 fd ff ff       	jmp    80487c0 <_init+0x28>

080489f0 <__assert_fail@plt>:
 80489f0:	ff 25 94 b0 05 08    	jmp    *0x805b094
 80489f6:	68 10 01 00 00       	push   $0x110
 80489fb:	e9 c0 fd ff ff       	jmp    80487c0 <_init+0x28>

Disassembly of section .plt.got:

08048a00 <.plt.got>:
 8048a00:	ff 25 fc af 05 08    	jmp    *0x805affc
 8048a06:	66 90                	xchg   %ax,%ax

Disassembly of section .text:

08048a10 <_start>:
 8048a10:	31 ed                	xor    %ebp,%ebp
 8048a12:	5e                   	pop    %esi
 8048a13:	89 e1                	mov    %esp,%ecx
 8048a15:	83 e4 f0             	and    $0xfffffff0,%esp
 8048a18:	50                   	push   %eax
 8048a19:	54                   	push   %esp
 8048a1a:	52                   	push   %edx
 8048a1b:	68 c0 57 05 08       	push   $0x80557c0
 8048a20:	68 60 57 05 08       	push   $0x8055760
 8048a25:	51                   	push   %ecx
 8048a26:	56                   	push   %esi
 8048a27:	68 38 c6 04 08       	push   $0x804c638
 8048a2c:	e8 bf fe ff ff       	call   80488f0 <__libc_start_main@plt>
 8048a31:	f4                   	hlt    
 8048a32:	66 90                	xchg   %ax,%ax
 8048a34:	66 90                	xchg   %ax,%ax
 8048a36:	66 90                	xchg   %ax,%ax
 8048a38:	66 90                	xchg   %ax,%ax
 8048a3a:	66 90                	xchg   %ax,%ax
 8048a3c:	66 90                	xchg   %ax,%ax
 8048a3e:	66 90                	xchg   %ax,%ax

08048a40 <__x86.get_pc_thunk.bx>:
 8048a40:	8b 1c 24             	mov    (%esp),%ebx
 8048a43:	c3                   	ret    
 8048a44:	66 90                	xchg   %ax,%ax
 8048a46:	66 90                	xchg   %ax,%ax
 8048a48:	66 90                	xchg   %ax,%ax
 8048a4a:	66 90                	xchg   %ax,%ax
 8048a4c:	66 90                	xchg   %ax,%ax
 8048a4e:	66 90                	xchg   %ax,%ax

08048a50 <deregister_tm_clones>:
 8048a50:	b8 cb b0 05 08       	mov    $0x805b0cb,%eax
 8048a55:	2d c8 b0 05 08       	sub    $0x805b0c8,%eax
 8048a5a:	83 f8 06             	cmp    $0x6,%eax
 8048a5d:	76 1a                	jbe    8048a79 <deregister_tm_clones+0x29>
 8048a5f:	b8 00 00 00 00       	mov    $0x0,%eax
 8048a64:	85 c0                	test   %eax,%eax
 8048a66:	74 11                	je     8048a79 <deregister_tm_clones+0x29>
 8048a68:	55                   	push   %ebp
 8048a69:	89 e5                	mov    %esp,%ebp
 8048a6b:	83 ec 14             	sub    $0x14,%esp
 8048a6e:	68 c8 b0 05 08       	push   $0x805b0c8
 8048a73:	ff d0                	call   *%eax
 8048a75:	83 c4 10             	add    $0x10,%esp
 8048a78:	c9                   	leave  
 8048a79:	f3 c3                	repz ret 
 8048a7b:	90                   	nop
 8048a7c:	8d 74 26 00          	lea    0x0(%esi,%eiz,1),%esi

08048a80 <register_tm_clones>:
 8048a80:	b8 c8 b0 05 08       	mov    $0x805b0c8,%eax
 8048a85:	2d c8 b0 05 08       	sub    $0x805b0c8,%eax
 8048a8a:	c1 f8 02             	sar    $0x2,%eax
 8048a8d:	89 c2                	mov    %eax,%edx
 8048a8f:	c1 ea 1f             	shr    $0x1f,%edx
 8048a92:	01 d0                	add    %edx,%eax
 8048a94:	d1 f8                	sar    %eax
 8048a96:	74 1b                	je     8048ab3 <register_tm_clones+0x33>
 8048a98:	ba 00 00 00 00       	mov    $0x0,%edx
 8048a9d:	85 d2                	test   %edx,%edx
 8048a9f:	74 12                	je     8048ab3 <register_tm_clones+0x33>
 8048aa1:	55                   	push   %ebp
 8048aa2:	89 e5                	mov    %esp,%ebp
 8048aa4:	83 ec 10             	sub    $0x10,%esp
 8048aa7:	50                   	push   %eax
 8048aa8:	68 c8 b0 05 08       	push   $0x805b0c8
 8048aad:	ff d2                	call   *%edx
 8048aaf:	83 c4 10             	add    $0x10,%esp
 8048ab2:	c9                   	leave  
 8048ab3:	f3 c3                	repz ret 
 8048ab5:	8d 74 26 00          	lea    0x0(%esi,%eiz,1),%esi
 8048ab9:	8d bc 27 00 00 00 00 	lea    0x0(%edi,%eiz,1),%edi

08048ac0 <__do_global_dtors_aux>:
 8048ac0:	80 3d 08 b1 05 08 00 	cmpb   $0x0,0x805b108
 8048ac7:	75 13                	jne    8048adc <__do_global_dtors_aux+0x1c>
 8048ac9:	55                   	push   %ebp
 8048aca:	89 e5                	mov    %esp,%ebp
 8048acc:	83 ec 08             	sub    $0x8,%esp
 8048acf:	e8 7c ff ff ff       	call   8048a50 <deregister_tm_clones>
 8048ad4:	c6 05 08 b1 05 08 01 	movb   $0x1,0x805b108
 8048adb:	c9                   	leave  
 8048adc:	f3 c3                	repz ret 
 8048ade:	66 90                	xchg   %ax,%ax

08048ae0 <frame_dummy>:
 8048ae0:	b8 10 af 05 08       	mov    $0x805af10,%eax
 8048ae5:	8b 10                	mov    (%eax),%edx
 8048ae7:	85 d2                	test   %edx,%edx
 8048ae9:	75 05                	jne    8048af0 <frame_dummy+0x10>
 8048aeb:	eb 93                	jmp    8048a80 <register_tm_clones>
 8048aed:	8d 76 00             	lea    0x0(%esi),%esi
 8048af0:	ba 00 00 00 00       	mov    $0x0,%edx
 8048af5:	85 d2                	test   %edx,%edx
 8048af7:	74 f2                	je     8048aeb <frame_dummy+0xb>
 8048af9:	55                   	push   %ebp
 8048afa:	89 e5                	mov    %esp,%ebp
 8048afc:	83 ec 14             	sub    $0x14,%esp
 8048aff:	50                   	push   %eax
 8048b00:	ff d2                	call   *%edx
 8048b02:	83 c4 10             	add    $0x10,%esp
 8048b05:	c9                   	leave  
 8048b06:	e9 75 ff ff ff       	jmp    8048a80 <register_tm_clones>

08048b0b <newNode>:
 8048b0b:	55                   	push   %ebp
 8048b0c:	89 e5                	mov    %esp,%ebp
 8048b0e:	83 ec 18             	sub    $0x18,%esp
 8048b11:	83 ec 0c             	sub    $0xc,%esp
 8048b14:	6a 34                	push   $0x34
 8048b16:	e8 85 fd ff ff       	call   80488a0 <malloc@plt>
 8048b1b:	83 c4 10             	add    $0x10,%esp
 8048b1e:	89 45 f4             	mov    %eax,-0xc(%ebp)
 8048b21:	83 ec 04             	sub    $0x4,%esp
 8048b24:	6a 34                	push   $0x34
 8048b26:	6a 00                	push   $0x0
 8048b28:	ff 75 f4             	pushl  -0xc(%ebp)
 8048b2b:	e8 f0 fd ff ff       	call   8048920 <memset@plt>
 8048b30:	83 c4 10             	add    $0x10,%esp
 8048b33:	8b 45 f4             	mov    -0xc(%ebp),%eax
 8048b36:	c9                   	leave  
 8048b37:	c3                   	ret    

08048b38 <createNode>:
 8048b38:	55                   	push   %ebp
 8048b39:	89 e5                	mov    %esp,%ebp
 8048b3b:	53                   	push   %ebx
 8048b3c:	83 ec 14             	sub    $0x14,%esp
 8048b3f:	e8 c7 ff ff ff       	call   8048b0b <newNode>
 8048b44:	89 45 f4             	mov    %eax,-0xc(%ebp)
 8048b47:	8b 45 f4             	mov    -0xc(%ebp),%eax
 8048b4a:	8b 55 0c             	mov    0xc(%ebp),%edx
 8048b4d:	89 10                	mov    %edx,(%eax)
 8048b4f:	83 ec 0c             	sub    $0xc,%esp
 8048b52:	ff 75 08             	pushl  0x8(%ebp)
 8048b55:	e8 76 fd ff ff       	call   80488d0 <strlen@plt>
 8048b5a:	83 c4 10             	add    $0x10,%esp
 8048b5d:	83 c0 01             	add    $0x1,%eax
 8048b60:	83 ec 0c             	sub    $0xc,%esp
 8048b63:	50                   	push   %eax
 8048b64:	e8 37 fd ff ff       	call   80488a0 <malloc@plt>
 8048b69:	83 c4 10             	add    $0x10,%esp
 8048b6c:	89 c2                	mov    %eax,%edx
 8048b6e:	8b 45 f4             	mov    -0xc(%ebp),%eax
 8048b71:	89 50 0c             	mov    %edx,0xc(%eax)
 8048b74:	83 ec 0c             	sub    $0xc,%esp
 8048b77:	ff 75 08             	pushl  0x8(%ebp)
 8048b7a:	e8 51 fd ff ff       	call   80488d0 <strlen@plt>
 8048b7f:	83 c4 10             	add    $0x10,%esp
 8048b82:	89 c2                	mov    %eax,%edx
 8048b84:	8b 45 f4             	mov    -0xc(%ebp),%eax
 8048b87:	8b 40 0c             	mov    0xc(%eax),%eax
 8048b8a:	83 ec 04             	sub    $0x4,%esp
 8048b8d:	52                   	push   %edx
 8048b8e:	ff 75 08             	pushl  0x8(%ebp)
 8048b91:	50                   	push   %eax
 8048b92:	e8 b9 fd ff ff       	call   8048950 <strncpy@plt>
 8048b97:	83 c4 10             	add    $0x10,%esp
 8048b9a:	8b 45 f4             	mov    -0xc(%ebp),%eax
 8048b9d:	8b 58 0c             	mov    0xc(%eax),%ebx
 8048ba0:	83 ec 0c             	sub    $0xc,%esp
 8048ba3:	ff 75 08             	pushl  0x8(%ebp)
 8048ba6:	e8 25 fd ff ff       	call   80488d0 <strlen@plt>
 8048bab:	83 c4 10             	add    $0x10,%esp
 8048bae:	01 d8                	add    %ebx,%eax
 8048bb0:	c6 00 00             	movb   $0x0,(%eax)
 8048bb3:	8b 45 f4             	mov    -0xc(%ebp),%eax
 8048bb6:	8b 5d fc             	mov    -0x4(%ebp),%ebx
 8048bb9:	c9                   	leave  
 8048bba:	c3                   	ret    

08048bbb <addChild>:
 8048bbb:	55                   	push   %ebp
 8048bbc:	89 e5                	mov    %esp,%ebp
 8048bbe:	83 7d 08 00          	cmpl   $0x0,0x8(%ebp)
 8048bc2:	74 1e                	je     8048be2 <addChild+0x27>
 8048bc4:	8b 45 08             	mov    0x8(%ebp),%eax
 8048bc7:	8b 40 10             	mov    0x10(%eax),%eax
 8048bca:	8d 48 01             	lea    0x1(%eax),%ecx
 8048bcd:	8b 55 08             	mov    0x8(%ebp),%edx
 8048bd0:	89 4a 10             	mov    %ecx,0x10(%edx)
 8048bd3:	8b 55 08             	mov    0x8(%ebp),%edx
 8048bd6:	8d 48 04             	lea    0x4(%eax),%ecx
 8048bd9:	8b 45 0c             	mov    0xc(%ebp),%eax
 8048bdc:	89 44 8a 04          	mov    %eax,0x4(%edx,%ecx,4)
 8048be0:	eb 01                	jmp    8048be3 <addChild+0x28>
 8048be2:	90                   	nop
 8048be3:	5d                   	pop    %ebp
 8048be4:	c3                   	ret    

08048be5 <printNode>:
 8048be5:	55                   	push   %ebp
 8048be6:	89 e5                	mov    %esp,%ebp
 8048be8:	83 ec 18             	sub    $0x18,%esp
 8048beb:	c7 45 f4 00 00 00 00 	movl   $0x0,-0xc(%ebp)
 8048bf2:	eb 14                	jmp    8048c08 <printNode+0x23>
 8048bf4:	83 ec 0c             	sub    $0xc,%esp
 8048bf7:	68 e8 57 05 08       	push   $0x80557e8
 8048bfc:	e8 df fb ff ff       	call   80487e0 <printf@plt>
 8048c01:	83 c4 10             	add    $0x10,%esp
 8048c04:	83 45 f4 01          	addl   $0x1,-0xc(%ebp)
 8048c08:	8b 45 f4             	mov    -0xc(%ebp),%eax
 8048c0b:	3b 45 0c             	cmp    0xc(%ebp),%eax
 8048c0e:	7c e4                	jl     8048bf4 <printNode+0xf>
 8048c10:	8b 45 08             	mov    0x8(%ebp),%eax
 8048c13:	8b 40 04             	mov    0x4(%eax),%eax
 8048c16:	83 f8 1e             	cmp    $0x1e,%eax
 8048c19:	76 22                	jbe    8048c3d <printNode+0x58>
 8048c1b:	8b 45 08             	mov    0x8(%ebp),%eax
 8048c1e:	8b 10                	mov    (%eax),%edx
 8048c20:	8b 45 08             	mov    0x8(%ebp),%eax
 8048c23:	8b 40 0c             	mov    0xc(%eax),%eax
 8048c26:	83 ec 04             	sub    $0x4,%esp
 8048c29:	52                   	push   %edx
 8048c2a:	50                   	push   %eax
 8048c2b:	68 eb 57 05 08       	push   $0x80557eb
 8048c30:	e8 ab fb ff ff       	call   80487e0 <printf@plt>
 8048c35:	83 c4 10             	add    $0x10,%esp
 8048c38:	e9 cd 00 00 00       	jmp    8048d0a <printNode+0x125>
 8048c3d:	8b 45 08             	mov    0x8(%ebp),%eax
 8048c40:	8b 40 04             	mov    0x4(%eax),%eax
 8048c43:	83 f8 04             	cmp    $0x4,%eax
 8048c46:	76 17                	jbe    8048c5f <printNode+0x7a>
 8048c48:	8b 45 08             	mov    0x8(%ebp),%eax
 8048c4b:	8b 40 0c             	mov    0xc(%eax),%eax
 8048c4e:	83 ec 0c             	sub    $0xc,%esp
 8048c51:	50                   	push   %eax
 8048c52:	e8 59 fc ff ff       	call   80488b0 <puts@plt>
 8048c57:	83 c4 10             	add    $0x10,%esp
 8048c5a:	e9 ab 00 00 00       	jmp    8048d0a <printNode+0x125>
 8048c5f:	8b 45 08             	mov    0x8(%ebp),%eax
 8048c62:	8b 40 04             	mov    0x4(%eax),%eax
 8048c65:	83 f8 02             	cmp    $0x2,%eax
 8048c68:	74 3e                	je     8048ca8 <printNode+0xc3>
 8048c6a:	83 f8 02             	cmp    $0x2,%eax
 8048c6d:	77 0a                	ja     8048c79 <printNode+0x94>
 8048c6f:	83 f8 01             	cmp    $0x1,%eax
 8048c72:	74 14                	je     8048c88 <printNode+0xa3>
 8048c74:	e9 91 00 00 00       	jmp    8048d0a <printNode+0x125>
 8048c79:	83 f8 03             	cmp    $0x3,%eax
 8048c7c:	74 4d                	je     8048ccb <printNode+0xe6>
 8048c7e:	83 f8 04             	cmp    $0x4,%eax
 8048c81:	74 68                	je     8048ceb <printNode+0x106>
 8048c83:	e9 82 00 00 00       	jmp    8048d0a <printNode+0x125>
 8048c88:	8b 45 08             	mov    0x8(%ebp),%eax
 8048c8b:	8b 50 08             	mov    0x8(%eax),%edx
 8048c8e:	8b 45 08             	mov    0x8(%ebp),%eax
 8048c91:	8b 40 0c             	mov    0xc(%eax),%eax
 8048c94:	83 ec 04             	sub    $0x4,%esp
 8048c97:	52                   	push   %edx
 8048c98:	50                   	push   %eax
 8048c99:	68 f4 57 05 08       	push   $0x80557f4
 8048c9e:	e8 3d fb ff ff       	call   80487e0 <printf@plt>
 8048ca3:	83 c4 10             	add    $0x10,%esp
 8048ca6:	eb 62                	jmp    8048d0a <printNode+0x125>
 8048ca8:	8b 45 08             	mov    0x8(%ebp),%eax
 8048cab:	d9 40 08             	flds   0x8(%eax)
 8048cae:	8b 45 08             	mov    0x8(%ebp),%eax
 8048cb1:	8b 40 0c             	mov    0xc(%eax),%eax
 8048cb4:	8d 64 24 f8          	lea    -0x8(%esp),%esp
 8048cb8:	dd 1c 24             	fstpl  (%esp)
 8048cbb:	50                   	push   %eax
 8048cbc:	68 fc 57 05 08       	push   $0x80557fc
 8048cc1:	e8 1a fb ff ff       	call   80487e0 <printf@plt>
 8048cc6:	83 c4 10             	add    $0x10,%esp
 8048cc9:	eb 3f                	jmp    8048d0a <printNode+0x125>
 8048ccb:	8b 45 08             	mov    0x8(%ebp),%eax
 8048cce:	8b 50 08             	mov    0x8(%eax),%edx
 8048cd1:	8b 45 08             	mov    0x8(%ebp),%eax
 8048cd4:	8b 40 0c             	mov    0xc(%eax),%eax
 8048cd7:	83 ec 04             	sub    $0x4,%esp
 8048cda:	52                   	push   %edx
 8048cdb:	50                   	push   %eax
 8048cdc:	68 04 58 05 08       	push   $0x8055804
 8048ce1:	e8 fa fa ff ff       	call   80487e0 <printf@plt>
 8048ce6:	83 c4 10             	add    $0x10,%esp
 8048ce9:	eb 1f                	jmp    8048d0a <printNode+0x125>
 8048ceb:	8b 45 08             	mov    0x8(%ebp),%eax
 8048cee:	8b 50 08             	mov    0x8(%eax),%edx
 8048cf1:	8b 45 08             	mov    0x8(%ebp),%eax
 8048cf4:	8b 40 0c             	mov    0xc(%eax),%eax
 8048cf7:	83 ec 04             	sub    $0x4,%esp
 8048cfa:	52                   	push   %edx
 8048cfb:	50                   	push   %eax
 8048cfc:	68 04 58 05 08       	push   $0x8055804
 8048d01:	e8 da fa ff ff       	call   80487e0 <printf@plt>
 8048d06:	83 c4 10             	add    $0x10,%esp
 8048d09:	90                   	nop
 8048d0a:	90                   	nop
 8048d0b:	c9                   	leave  
 8048d0c:	c3                   	ret    

08048d0d <preOrder>:
 8048d0d:	55                   	push   %ebp
 8048d0e:	89 e5                	mov    %esp,%ebp
 8048d10:	83 ec 18             	sub    $0x18,%esp
 8048d13:	83 7d 08 00          	cmpl   $0x0,0x8(%ebp)
 8048d17:	74 49                	je     8048d62 <preOrder+0x55>
 8048d19:	83 ec 08             	sub    $0x8,%esp
 8048d1c:	ff 75 0c             	pushl  0xc(%ebp)
 8048d1f:	ff 75 08             	pushl  0x8(%ebp)
 8048d22:	e8 be fe ff ff       	call   8048be5 <printNode>
 8048d27:	83 c4 10             	add    $0x10,%esp
 8048d2a:	c7 45 f4 00 00 00 00 	movl   $0x0,-0xc(%ebp)
 8048d31:	eb 24                	jmp    8048d57 <preOrder+0x4a>
 8048d33:	8b 45 0c             	mov    0xc(%ebp),%eax
 8048d36:	8d 50 01             	lea    0x1(%eax),%edx
 8048d39:	8b 45 08             	mov    0x8(%ebp),%eax
 8048d3c:	8b 4d f4             	mov    -0xc(%ebp),%ecx
 8048d3f:	83 c1 04             	add    $0x4,%ecx
 8048d42:	8b 44 88 04          	mov    0x4(%eax,%ecx,4),%eax
 8048d46:	83 ec 08             	sub    $0x8,%esp
 8048d49:	52                   	push   %edx
 8048d4a:	50                   	push   %eax
 8048d4b:	e8 bd ff ff ff       	call   8048d0d <preOrder>
 8048d50:	83 c4 10             	add    $0x10,%esp
 8048d53:	83 45 f4 01          	addl   $0x1,-0xc(%ebp)
 8048d57:	8b 45 08             	mov    0x8(%ebp),%eax
 8048d5a:	8b 40 10             	mov    0x10(%eax),%eax
 8048d5d:	3b 45 f4             	cmp    -0xc(%ebp),%eax
 8048d60:	7f d1                	jg     8048d33 <preOrder+0x26>
 8048d62:	90                   	nop
 8048d63:	c9                   	leave  
 8048d64:	c3                   	ret    

08048d65 <printTree>:
 8048d65:	55                   	push   %ebp
 8048d66:	89 e5                	mov    %esp,%ebp
 8048d68:	83 ec 08             	sub    $0x8,%esp
 8048d6b:	83 ec 08             	sub    $0x8,%esp
 8048d6e:	6a 00                	push   $0x0
 8048d70:	ff 75 08             	pushl  0x8(%ebp)
 8048d73:	e8 95 ff ff ff       	call   8048d0d <preOrder>
 8048d78:	83 c4 10             	add    $0x10,%esp
 8048d7b:	90                   	nop
 8048d7c:	c9                   	leave  
 8048d7d:	c3                   	ret    

08048d7e <deleteTree>:
 8048d7e:	55                   	push   %ebp
 8048d7f:	89 e5                	mov    %esp,%ebp
 8048d81:	83 ec 18             	sub    $0x18,%esp
 8048d84:	83 7d 08 00          	cmpl   $0x0,0x8(%ebp)
 8048d88:	74 3f                	je     8048dc9 <deleteTree+0x4b>
 8048d8a:	c7 45 f4 00 00 00 00 	movl   $0x0,-0xc(%ebp)
 8048d91:	eb 1d                	jmp    8048db0 <deleteTree+0x32>
 8048d93:	8b 45 08             	mov    0x8(%ebp),%eax
 8048d96:	8b 55 f4             	mov    -0xc(%ebp),%edx
 8048d99:	83 c2 04             	add    $0x4,%edx
 8048d9c:	8b 44 90 04          	mov    0x4(%eax,%edx,4),%eax
 8048da0:	83 ec 0c             	sub    $0xc,%esp
 8048da3:	50                   	push   %eax
 8048da4:	e8 d5 ff ff ff       	call   8048d7e <deleteTree>
 8048da9:	83 c4 10             	add    $0x10,%esp
 8048dac:	83 45 f4 01          	addl   $0x1,-0xc(%ebp)
 8048db0:	8b 45 08             	mov    0x8(%ebp),%eax
 8048db3:	8b 40 10             	mov    0x10(%eax),%eax
 8048db6:	3b 45 f4             	cmp    -0xc(%ebp),%eax
 8048db9:	7f d8                	jg     8048d93 <deleteTree+0x15>
 8048dbb:	83 ec 0c             	sub    $0xc,%esp
 8048dbe:	ff 75 08             	pushl  0x8(%ebp)
 8048dc1:	e8 2a fa ff ff       	call   80487f0 <free@plt>
 8048dc6:	83 c4 10             	add    $0x10,%esp
 8048dc9:	90                   	nop
 8048dca:	c9                   	leave  
 8048dcb:	c3                   	ret    

08048dcc <printMips>:
 8048dcc:	55                   	push   %ebp
 8048dcd:	89 e5                	mov    %esp,%ebp
 8048dcf:	83 ec 28             	sub    $0x28,%esp
 8048dd2:	8b 45 08             	mov    0x8(%ebp),%eax
 8048dd5:	89 45 e4             	mov    %eax,-0x1c(%ebp)
 8048dd8:	65 a1 14 00 00 00    	mov    %gs:0x14,%eax
 8048dde:	89 45 f4             	mov    %eax,-0xc(%ebp)
 8048de1:	31 c0                	xor    %eax,%eax
 8048de3:	8d 45 0c             	lea    0xc(%ebp),%eax
 8048de6:	89 45 f0             	mov    %eax,-0x10(%ebp)
 8048de9:	8b 55 f0             	mov    -0x10(%ebp),%edx
 8048dec:	a1 24 b1 05 08       	mov    0x805b124,%eax
 8048df1:	83 ec 04             	sub    $0x4,%esp
 8048df4:	52                   	push   %edx
 8048df5:	ff 75 e4             	pushl  -0x1c(%ebp)
 8048df8:	50                   	push   %eax
 8048df9:	e8 72 fb ff ff       	call   8048970 <vfprintf@plt>
 8048dfe:	83 c4 10             	add    $0x10,%esp
 8048e01:	a1 24 b1 05 08       	mov    0x805b124,%eax
 8048e06:	83 ec 08             	sub    $0x8,%esp
 8048e09:	50                   	push   %eax
 8048e0a:	6a 0a                	push   $0xa
 8048e0c:	e8 6f fb ff ff       	call   8048980 <fputc@plt>
 8048e11:	83 c4 10             	add    $0x10,%esp
 8048e14:	a1 14 b1 05 08       	mov    0x805b114,%eax
 8048e19:	83 c0 01             	add    $0x1,%eax
 8048e1c:	a3 14 b1 05 08       	mov    %eax,0x805b114
 8048e21:	90                   	nop
 8048e22:	8b 45 f4             	mov    -0xc(%ebp),%eax
 8048e25:	65 33 05 14 00 00 00 	xor    %gs:0x14,%eax
 8048e2c:	74 05                	je     8048e33 <printMips+0x67>
 8048e2e:	e8 fd f9 ff ff       	call   8048830 <__stack_chk_fail@plt>
 8048e33:	c9                   	leave  
 8048e34:	c3                   	ret    

08048e35 <initRegs>:
 8048e35:	55                   	push   %ebp
 8048e36:	89 e5                	mov    %esp,%ebp
 8048e38:	83 ec 18             	sub    $0x18,%esp
 8048e3b:	83 ec 04             	sub    $0x4,%esp
 8048e3e:	68 00 02 00 00       	push   $0x200
 8048e43:	6a 00                	push   $0x0
 8048e45:	68 80 b1 05 08       	push   $0x805b180
 8048e4a:	e8 d1 fa ff ff       	call   8048920 <memset@plt>
 8048e4f:	83 c4 10             	add    $0x10,%esp
 8048e52:	c7 45 f4 00 00 00 00 	movl   $0x0,-0xc(%ebp)
 8048e59:	eb 4c                	jmp    8048ea7 <initRegs+0x72>
 8048e5b:	8b 45 f4             	mov    -0xc(%ebp),%eax
 8048e5e:	83 c0 08             	add    $0x8,%eax
 8048e61:	c1 e0 04             	shl    $0x4,%eax
 8048e64:	05 80 b1 05 08       	add    $0x805b180,%eax
 8048e69:	c6 00 24             	movb   $0x24,(%eax)
 8048e6c:	8b 45 f4             	mov    -0xc(%ebp),%eax
 8048e6f:	c1 e0 04             	shl    $0x4,%eax
 8048e72:	05 01 b2 05 08       	add    $0x805b201,%eax
 8048e77:	c6 00 74             	movb   $0x74,(%eax)
 8048e7a:	8b 45 f4             	mov    -0xc(%ebp),%eax
 8048e7d:	83 c0 30             	add    $0x30,%eax
 8048e80:	89 c2                	mov    %eax,%edx
 8048e82:	8b 45 f4             	mov    -0xc(%ebp),%eax
 8048e85:	c1 e0 04             	shl    $0x4,%eax
 8048e88:	05 02 b2 05 08       	add    $0x805b202,%eax
 8048e8d:	88 10                	mov    %dl,(%eax)
 8048e8f:	8b 45 f4             	mov    -0xc(%ebp),%eax
 8048e92:	83 c0 08             	add    $0x8,%eax
 8048e95:	c1 e0 04             	shl    $0x4,%eax
 8048e98:	05 8c b1 05 08       	add    $0x805b18c,%eax
 8048e9d:	c7 00 01 00 00 00    	movl   $0x1,(%eax)
 8048ea3:	83 45 f4 01          	addl   $0x1,-0xc(%ebp)
 8048ea7:	83 7d f4 09          	cmpl   $0x9,-0xc(%ebp)
 8048eab:	7e ae                	jle    8048e5b <initRegs+0x26>
 8048ead:	c7 45 f4 00 00 00 00 	movl   $0x0,-0xc(%ebp)
 8048eb4:	eb 4c                	jmp    8048f02 <initRegs+0xcd>
 8048eb6:	8b 45 f4             	mov    -0xc(%ebp),%eax
 8048eb9:	83 c0 12             	add    $0x12,%eax
 8048ebc:	c1 e0 04             	shl    $0x4,%eax
 8048ebf:	05 80 b1 05 08       	add    $0x805b180,%eax
 8048ec4:	c6 00 24             	movb   $0x24,(%eax)
 8048ec7:	8b 45 f4             	mov    -0xc(%ebp),%eax
 8048eca:	c1 e0 04             	shl    $0x4,%eax
 8048ecd:	05 a1 b2 05 08       	add    $0x805b2a1,%eax
 8048ed2:	c6 00 73             	movb   $0x73,(%eax)
 8048ed5:	8b 45 f4             	mov    -0xc(%ebp),%eax
 8048ed8:	83 c0 30             	add    $0x30,%eax
 8048edb:	89 c2                	mov    %eax,%edx
 8048edd:	8b 45 f4             	mov    -0xc(%ebp),%eax
 8048ee0:	c1 e0 04             	shl    $0x4,%eax
 8048ee3:	05 a2 b2 05 08       	add    $0x805b2a2,%eax
 8048ee8:	88 10                	mov    %dl,(%eax)
 8048eea:	8b 45 f4             	mov    -0xc(%ebp),%eax
 8048eed:	83 c0 12             	add    $0x12,%eax
 8048ef0:	c1 e0 04             	shl    $0x4,%eax
 8048ef3:	05 8c b1 05 08       	add    $0x805b18c,%eax
 8048ef8:	c7 00 01 00 00 00    	movl   $0x1,(%eax)
 8048efe:	83 45 f4 01          	addl   $0x1,-0xc(%ebp)
 8048f02:	83 7d f4 07          	cmpl   $0x7,-0xc(%ebp)
 8048f06:	7e ae                	jle    8048eb6 <initRegs+0x81>
 8048f08:	c7 45 f4 00 00 00 00 	movl   $0x0,-0xc(%ebp)
 8048f0f:	eb 4c                	jmp    8048f5d <initRegs+0x128>
 8048f11:	8b 45 f4             	mov    -0xc(%ebp),%eax
 8048f14:	83 c0 04             	add    $0x4,%eax
 8048f17:	c1 e0 04             	shl    $0x4,%eax
 8048f1a:	05 80 b1 05 08       	add    $0x805b180,%eax
 8048f1f:	c6 00 24             	movb   $0x24,(%eax)
 8048f22:	8b 45 f4             	mov    -0xc(%ebp),%eax
 8048f25:	c1 e0 04             	shl    $0x4,%eax
 8048f28:	05 c1 b1 05 08       	add    $0x805b1c1,%eax
 8048f2d:	c6 00 61             	movb   $0x61,(%eax)
 8048f30:	8b 45 f4             	mov    -0xc(%ebp),%eax
 8048f33:	83 c0 30             	add    $0x30,%eax
 8048f36:	89 c2                	mov    %eax,%edx
 8048f38:	8b 45 f4             	mov    -0xc(%ebp),%eax
 8048f3b:	c1 e0 04             	shl    $0x4,%eax
 8048f3e:	05 c2 b1 05 08       	add    $0x805b1c2,%eax
 8048f43:	88 10                	mov    %dl,(%eax)
 8048f45:	8b 45 f4             	mov    -0xc(%ebp),%eax
 8048f48:	83 c0 08             	add    $0x8,%eax
 8048f4b:	c1 e0 04             	shl    $0x4,%eax
 8048f4e:	05 8c b1 05 08       	add    $0x805b18c,%eax
 8048f53:	c7 00 01 00 00 00    	movl   $0x1,(%eax)
 8048f59:	83 45 f4 01          	addl   $0x1,-0xc(%ebp)
 8048f5d:	83 7d f4 03          	cmpl   $0x3,-0xc(%ebp)
 8048f61:	7e ae                	jle    8048f11 <initRegs+0xdc>
 8048f63:	66 c7 05 80 b1 05 08 	movw   $0x3024,0x805b180
 8048f6a:	24 30 
 8048f6c:	c6 05 82 b1 05 08 00 	movb   $0x0,0x805b182
 8048f73:	c7 05 70 b3 05 08 24 	movl   $0x617224,0x805b370
 8048f7a:	72 61 00 
 8048f7d:	c7 05 40 b3 05 08 24 	movl   $0x616724,0x805b340
 8048f84:	67 61 00 
 8048f87:	c7 05 50 b3 05 08 24 	movl   $0x707324,0x805b350
 8048f8e:	73 70 00 
 8048f91:	c7 05 60 b3 05 08 24 	movl   $0x706624,0x805b360
 8048f98:	66 70 00 
 8048f9b:	90                   	nop
 8048f9c:	c9                   	leave  
 8048f9d:	c3                   	ret    

08048f9e <add_var>:
 8048f9e:	55                   	push   %ebp
 8048f9f:	89 e5                	mov    %esp,%ebp
 8048fa1:	a1 0c b1 05 08       	mov    0x805b10c,%eax
 8048fa6:	85 c0                	test   %eax,%eax
 8048fa8:	75 14                	jne    8048fbe <add_var+0x20>
 8048faa:	8b 45 08             	mov    0x8(%ebp),%eax
 8048fad:	c7 40 0c 00 00 00 00 	movl   $0x0,0xc(%eax)
 8048fb4:	8b 45 08             	mov    0x8(%ebp),%eax
 8048fb7:	a3 0c b1 05 08       	mov    %eax,0x805b10c
 8048fbc:	eb 14                	jmp    8048fd2 <add_var+0x34>
 8048fbe:	8b 15 0c b1 05 08    	mov    0x805b10c,%edx
 8048fc4:	8b 45 08             	mov    0x8(%ebp),%eax
 8048fc7:	89 50 0c             	mov    %edx,0xc(%eax)
 8048fca:	8b 45 08             	mov    0x8(%ebp),%eax
 8048fcd:	a3 0c b1 05 08       	mov    %eax,0x805b10c
 8048fd2:	90                   	nop
 8048fd3:	5d                   	pop    %ebp
 8048fd4:	c3                   	ret    

08048fd5 <get_var>:
 8048fd5:	55                   	push   %ebp
 8048fd6:	89 e5                	mov    %esp,%ebp
 8048fd8:	83 ec 18             	sub    $0x18,%esp
 8048fdb:	a1 0c b1 05 08       	mov    0x805b10c,%eax
 8048fe0:	89 45 f4             	mov    %eax,-0xc(%ebp)
 8048fe3:	eb 22                	jmp    8049007 <get_var+0x32>
 8048fe5:	8b 45 f4             	mov    -0xc(%ebp),%eax
 8048fe8:	8b 00                	mov    (%eax),%eax
 8048fea:	83 ec 08             	sub    $0x8,%esp
 8048fed:	50                   	push   %eax
 8048fee:	ff 75 08             	pushl  0x8(%ebp)
 8048ff1:	e8 8f 45 00 00       	call   804d585 <compareOperand>
 8048ff6:	83 c4 10             	add    $0x10,%esp
 8048ff9:	83 f8 01             	cmp    $0x1,%eax
 8048ffc:	74 11                	je     804900f <get_var+0x3a>
 8048ffe:	8b 45 f4             	mov    -0xc(%ebp),%eax
 8049001:	8b 40 0c             	mov    0xc(%eax),%eax
 8049004:	89 45 f4             	mov    %eax,-0xc(%ebp)
 8049007:	83 7d f4 00          	cmpl   $0x0,-0xc(%ebp)
 804900b:	75 d8                	jne    8048fe5 <get_var+0x10>
 804900d:	eb 01                	jmp    8049010 <get_var+0x3b>
 804900f:	90                   	nop
 8049010:	8b 45 f4             	mov    -0xc(%ebp),%eax
 8049013:	c9                   	leave  
 8049014:	c3                   	ret    

08049015 <alloc_var>:
 8049015:	55                   	push   %ebp
 8049016:	89 e5                	mov    %esp,%ebp
 8049018:	83 ec 18             	sub    $0x18,%esp
 804901b:	83 ec 0c             	sub    $0xc,%esp
 804901e:	6a 10                	push   $0x10
 8049020:	e8 7b f8 ff ff       	call   80488a0 <malloc@plt>
 8049025:	83 c4 10             	add    $0x10,%esp
 8049028:	89 45 f4             	mov    %eax,-0xc(%ebp)
 804902b:	83 ec 04             	sub    $0x4,%esp
 804902e:	6a 10                	push   $0x10
 8049030:	6a 00                	push   $0x0
 8049032:	ff 75 f4             	pushl  -0xc(%ebp)
 8049035:	e8 e6 f8 ff ff       	call   8048920 <memset@plt>
 804903a:	83 c4 10             	add    $0x10,%esp
 804903d:	8b 45 f4             	mov    -0xc(%ebp),%eax
 8049040:	8b 55 08             	mov    0x8(%ebp),%edx
 8049043:	89 10                	mov    %edx,(%eax)
 8049045:	a1 10 b1 05 08       	mov    0x805b110,%eax
 804904a:	83 e8 04             	sub    $0x4,%eax
 804904d:	a3 10 b1 05 08       	mov    %eax,0x805b110
 8049052:	8b 15 10 b1 05 08    	mov    0x805b110,%edx
 8049058:	8b 45 f4             	mov    -0xc(%ebp),%eax
 804905b:	89 50 08             	mov    %edx,0x8(%eax)
 804905e:	83 ec 0c             	sub    $0xc,%esp
 8049061:	ff 75 f4             	pushl  -0xc(%ebp)
 8049064:	e8 35 ff ff ff       	call   8048f9e <add_var>
 8049069:	83 c4 10             	add    $0x10,%esp
 804906c:	8b 45 08             	mov    0x8(%ebp),%eax
 804906f:	8b 00                	mov    (%eax),%eax
 8049071:	85 c0                	test   %eax,%eax
 8049073:	75 20                	jne    8049095 <alloc_var+0x80>
 8049075:	8b 45 08             	mov    0x8(%ebp),%eax
 8049078:	8b 50 04             	mov    0x4(%eax),%edx
 804907b:	8b 45 f4             	mov    -0xc(%ebp),%eax
 804907e:	8b 40 08             	mov    0x8(%eax),%eax
 8049081:	83 ec 04             	sub    $0x4,%esp
 8049084:	52                   	push   %edx
 8049085:	50                   	push   %eax
 8049086:	68 0c 58 05 08       	push   $0x805580c
 804908b:	e8 3c fd ff ff       	call   8048dcc <printMips>
 8049090:	83 c4 10             	add    $0x10,%esp
 8049093:	eb 41                	jmp    80490d6 <alloc_var+0xc1>
 8049095:	8b 45 08             	mov    0x8(%ebp),%eax
 8049098:	8b 00                	mov    (%eax),%eax
 804909a:	83 f8 03             	cmp    $0x3,%eax
 804909d:	75 20                	jne    80490bf <alloc_var+0xaa>
 804909f:	8b 45 08             	mov    0x8(%ebp),%eax
 80490a2:	8b 50 04             	mov    0x4(%eax),%edx
 80490a5:	8b 45 f4             	mov    -0xc(%ebp),%eax
 80490a8:	8b 40 08             	mov    0x8(%eax),%eax
 80490ab:	83 ec 04             	sub    $0x4,%esp
 80490ae:	52                   	push   %edx
 80490af:	50                   	push   %eax
 80490b0:	68 38 58 05 08       	push   $0x8055838
 80490b5:	e8 12 fd ff ff       	call   8048dcc <printMips>
 80490ba:	83 c4 10             	add    $0x10,%esp
 80490bd:	eb 17                	jmp    80490d6 <alloc_var+0xc1>
 80490bf:	8b 45 08             	mov    0x8(%ebp),%eax
 80490c2:	8b 40 04             	mov    0x4(%eax),%eax
 80490c5:	83 ec 08             	sub    $0x8,%esp
 80490c8:	50                   	push   %eax
 80490c9:	68 68 58 05 08       	push   $0x8055868
 80490ce:	e8 f9 fc ff ff       	call   8048dcc <printMips>
 80490d3:	83 c4 10             	add    $0x10,%esp
 80490d6:	8b 45 f4             	mov    -0xc(%ebp),%eax
 80490d9:	c9                   	leave  
 80490da:	c3                   	ret    

080490db <alloc_array>:
 80490db:	55                   	push   %ebp
 80490dc:	89 e5                	mov    %esp,%ebp
 80490de:	83 ec 18             	sub    $0x18,%esp
 80490e1:	83 ec 0c             	sub    $0xc,%esp
 80490e4:	6a 10                	push   $0x10
 80490e6:	e8 b5 f7 ff ff       	call   80488a0 <malloc@plt>
 80490eb:	83 c4 10             	add    $0x10,%esp
 80490ee:	89 45 f4             	mov    %eax,-0xc(%ebp)
 80490f1:	83 ec 04             	sub    $0x4,%esp
 80490f4:	6a 10                	push   $0x10
 80490f6:	6a 00                	push   $0x0
 80490f8:	ff 75 f4             	pushl  -0xc(%ebp)
 80490fb:	e8 20 f8 ff ff       	call   8048920 <memset@plt>
 8049100:	83 c4 10             	add    $0x10,%esp
 8049103:	8b 45 f4             	mov    -0xc(%ebp),%eax
 8049106:	8b 55 08             	mov    0x8(%ebp),%edx
 8049109:	89 10                	mov    %edx,(%eax)
 804910b:	a1 10 b1 05 08       	mov    0x805b110,%eax
 8049110:	2b 45 0c             	sub    0xc(%ebp),%eax
 8049113:	a3 10 b1 05 08       	mov    %eax,0x805b110
 8049118:	8b 15 10 b1 05 08    	mov    0x805b110,%edx
 804911e:	8b 45 f4             	mov    -0xc(%ebp),%eax
 8049121:	89 50 08             	mov    %edx,0x8(%eax)
 8049124:	83 ec 0c             	sub    $0xc,%esp
 8049127:	ff 75 f4             	pushl  -0xc(%ebp)
 804912a:	e8 6f fe ff ff       	call   8048f9e <add_var>
 804912f:	83 c4 10             	add    $0x10,%esp
 8049132:	8b 45 08             	mov    0x8(%ebp),%eax
 8049135:	8b 40 04             	mov    0x4(%eax),%eax
 8049138:	83 ec 04             	sub    $0x4,%esp
 804913b:	50                   	push   %eax
 804913c:	ff 75 0c             	pushl  0xc(%ebp)
 804913f:	68 8c 58 05 08       	push   $0x805588c
 8049144:	e8 83 fc ff ff       	call   8048dcc <printMips>
 8049149:	83 c4 10             	add    $0x10,%esp
 804914c:	8b 45 f4             	mov    -0xc(%ebp),%eax
 804914f:	c9                   	leave  
 8049150:	c3                   	ret    

08049151 <clear_reg>:
 8049151:	55                   	push   %ebp
 8049152:	89 e5                	mov    %esp,%ebp
 8049154:	83 7d 08 00          	cmpl   $0x0,0x8(%ebp)
 8049158:	74 2d                	je     8049187 <clear_reg+0x36>
 804915a:	8b 45 08             	mov    0x8(%ebp),%eax
 804915d:	c7 40 0c 01 00 00 00 	movl   $0x1,0xc(%eax)
 8049164:	8b 45 08             	mov    0x8(%ebp),%eax
 8049167:	8b 40 04             	mov    0x4(%eax),%eax
 804916a:	85 c0                	test   %eax,%eax
 804916c:	74 0d                	je     804917b <clear_reg+0x2a>
 804916e:	8b 45 08             	mov    0x8(%ebp),%eax
 8049171:	8b 40 04             	mov    0x4(%eax),%eax
 8049174:	c7 40 04 00 00 00 00 	movl   $0x0,0x4(%eax)
 804917b:	8b 45 08             	mov    0x8(%ebp),%eax
 804917e:	c7 40 04 00 00 00 00 	movl   $0x0,0x4(%eax)
 8049185:	eb 01                	jmp    8049188 <clear_reg+0x37>
 8049187:	90                   	nop
 8049188:	5d                   	pop    %ebp
 8049189:	c3                   	ret    

0804918a <spill_reg>:
 804918a:	55                   	push   %ebp
 804918b:	89 e5                	mov    %esp,%ebp
 804918d:	83 ec 18             	sub    $0x18,%esp
 8049190:	83 7d 08 00          	cmpl   $0x0,0x8(%ebp)
 8049194:	74 6b                	je     8049201 <spill_reg+0x77>
 8049196:	8b 45 08             	mov    0x8(%ebp),%eax
 8049199:	8b 40 04             	mov    0x4(%eax),%eax
 804919c:	89 45 f4             	mov    %eax,-0xc(%ebp)
 804919f:	83 7d f4 00          	cmpl   $0x0,-0xc(%ebp)
 80491a3:	74 4c                	je     80491f1 <spill_reg+0x67>
 80491a5:	8b 45 f4             	mov    -0xc(%ebp),%eax
 80491a8:	8b 00                	mov    (%eax),%eax
 80491aa:	8b 00                	mov    (%eax),%eax
 80491ac:	85 c0                	test   %eax,%eax
 80491ae:	74 0c                	je     80491bc <spill_reg+0x32>
 80491b0:	8b 45 f4             	mov    -0xc(%ebp),%eax
 80491b3:	8b 00                	mov    (%eax),%eax
 80491b5:	8b 00                	mov    (%eax),%eax
 80491b7:	83 f8 03             	cmp    $0x3,%eax
 80491ba:	75 1d                	jne    80491d9 <spill_reg+0x4f>
 80491bc:	8b 45 f4             	mov    -0xc(%ebp),%eax
 80491bf:	8b 50 08             	mov    0x8(%eax),%edx
 80491c2:	8b 45 08             	mov    0x8(%ebp),%eax
 80491c5:	83 ec 04             	sub    $0x4,%esp
 80491c8:	52                   	push   %edx
 80491c9:	50                   	push   %eax
 80491ca:	68 b3 58 05 08       	push   $0x80558b3
 80491cf:	e8 f8 fb ff ff       	call   8048dcc <printMips>
 80491d4:	83 c4 10             	add    $0x10,%esp
 80491d7:	eb 18                	jmp    80491f1 <spill_reg+0x67>
 80491d9:	8b 15 04 b1 05 08    	mov    0x805b104,%edx
 80491df:	8b 45 f4             	mov    -0xc(%ebp),%eax
 80491e2:	8b 00                	mov    (%eax),%eax
 80491e4:	83 ec 08             	sub    $0x8,%esp
 80491e7:	52                   	push   %edx
 80491e8:	50                   	push   %eax
 80491e9:	e8 36 38 00 00       	call   804ca24 <printOperand>
 80491ee:	83 c4 10             	add    $0x10,%esp
 80491f1:	83 ec 0c             	sub    $0xc,%esp
 80491f4:	ff 75 08             	pushl  0x8(%ebp)
 80491f7:	e8 55 ff ff ff       	call   8049151 <clear_reg>
 80491fc:	83 c4 10             	add    $0x10,%esp
 80491ff:	eb 01                	jmp    8049202 <spill_reg+0x78>
 8049201:	90                   	nop
 8049202:	c9                   	leave  
 8049203:	c3                   	ret    

08049204 <spill_allReg>:
 8049204:	55                   	push   %ebp
 8049205:	89 e5                	mov    %esp,%ebp
 8049207:	83 ec 18             	sub    $0x18,%esp
 804920a:	c7 45 f4 00 00 00 00 	movl   $0x0,-0xc(%ebp)
 8049211:	eb 1e                	jmp    8049231 <spill_allReg+0x2d>
 8049213:	8b 45 f4             	mov    -0xc(%ebp),%eax
 8049216:	83 c0 08             	add    $0x8,%eax
 8049219:	c1 e0 04             	shl    $0x4,%eax
 804921c:	05 80 b1 05 08       	add    $0x805b180,%eax
 8049221:	83 ec 0c             	sub    $0xc,%esp
 8049224:	50                   	push   %eax
 8049225:	e8 60 ff ff ff       	call   804918a <spill_reg>
 804922a:	83 c4 10             	add    $0x10,%esp
 804922d:	83 45 f4 01          	addl   $0x1,-0xc(%ebp)
 8049231:	83 7d f4 09          	cmpl   $0x9,-0xc(%ebp)
 8049235:	7e dc                	jle    8049213 <spill_allReg+0xf>
 8049237:	c7 45 f4 00 00 00 00 	movl   $0x0,-0xc(%ebp)
 804923e:	eb 1e                	jmp    804925e <spill_allReg+0x5a>
 8049240:	8b 45 f4             	mov    -0xc(%ebp),%eax
 8049243:	83 c0 12             	add    $0x12,%eax
 8049246:	c1 e0 04             	shl    $0x4,%eax
 8049249:	05 80 b1 05 08       	add    $0x805b180,%eax
 804924e:	83 ec 0c             	sub    $0xc,%esp
 8049251:	50                   	push   %eax
 8049252:	e8 33 ff ff ff       	call   804918a <spill_reg>
 8049257:	83 c4 10             	add    $0x10,%esp
 804925a:	83 45 f4 01          	addl   $0x1,-0xc(%ebp)
 804925e:	83 7d f4 07          	cmpl   $0x7,-0xc(%ebp)
 8049262:	7e dc                	jle    8049240 <spill_allReg+0x3c>
 8049264:	90                   	nop
 8049265:	c9                   	leave  
 8049266:	c3                   	ret    

08049267 <free_cReg>:
 8049267:	55                   	push   %ebp
 8049268:	89 e5                	mov    %esp,%ebp
 804926a:	83 7d 08 00          	cmpl   $0x0,0x8(%ebp)
 804926e:	74 2e                	je     804929e <free_cReg+0x37>
 8049270:	8b 45 08             	mov    0x8(%ebp),%eax
 8049273:	8b 40 04             	mov    0x4(%eax),%eax
 8049276:	85 c0                	test   %eax,%eax
 8049278:	74 19                	je     8049293 <free_cReg+0x2c>
 804927a:	8b 45 08             	mov    0x8(%ebp),%eax
 804927d:	8b 40 04             	mov    0x4(%eax),%eax
 8049280:	85 c0                	test   %eax,%eax
 8049282:	74 1a                	je     804929e <free_cReg+0x37>
 8049284:	8b 45 08             	mov    0x8(%ebp),%eax
 8049287:	8b 40 04             	mov    0x4(%eax),%eax
 804928a:	8b 00                	mov    (%eax),%eax
 804928c:	8b 00                	mov    (%eax),%eax
 804928e:	83 f8 01             	cmp    $0x1,%eax
 8049291:	75 0b                	jne    804929e <free_cReg+0x37>
 8049293:	ff 75 08             	pushl  0x8(%ebp)
 8049296:	e8 b6 fe ff ff       	call   8049151 <clear_reg>
 804929b:	83 c4 04             	add    $0x4,%esp
 804929e:	90                   	nop
 804929f:	c9                   	leave  
 80492a0:	c3                   	ret    

080492a1 <resetRegs>:
 80492a1:	55                   	push   %ebp
 80492a2:	89 e5                	mov    %esp,%ebp
 80492a4:	83 ec 10             	sub    $0x10,%esp
 80492a7:	c7 45 fc 00 00 00 00 	movl   $0x0,-0x4(%ebp)
 80492ae:	eb 2c                	jmp    80492dc <resetRegs+0x3b>
 80492b0:	8b 45 fc             	mov    -0x4(%ebp),%eax
 80492b3:	83 c0 08             	add    $0x8,%eax
 80492b6:	c1 e0 04             	shl    $0x4,%eax
 80492b9:	05 84 b1 05 08       	add    $0x805b184,%eax
 80492be:	c7 00 00 00 00 00    	movl   $0x0,(%eax)
 80492c4:	8b 45 fc             	mov    -0x4(%ebp),%eax
 80492c7:	83 c0 08             	add    $0x8,%eax
 80492ca:	c1 e0 04             	shl    $0x4,%eax
 80492cd:	05 8c b1 05 08       	add    $0x805b18c,%eax
 80492d2:	c7 00 01 00 00 00    	movl   $0x1,(%eax)
 80492d8:	83 45 fc 01          	addl   $0x1,-0x4(%ebp)
 80492dc:	83 7d fc 09          	cmpl   $0x9,-0x4(%ebp)
 80492e0:	7e ce                	jle    80492b0 <resetRegs+0xf>
 80492e2:	90                   	nop
 80492e3:	c9                   	leave  
 80492e4:	c3                   	ret    

080492e5 <clearVarList>:
 80492e5:	55                   	push   %ebp
 80492e6:	89 e5                	mov    %esp,%ebp
 80492e8:	83 ec 18             	sub    $0x18,%esp
 80492eb:	eb 23                	jmp    8049310 <clearVarList+0x2b>
 80492ed:	a1 0c b1 05 08       	mov    0x805b10c,%eax
 80492f2:	89 45 f4             	mov    %eax,-0xc(%ebp)
 80492f5:	a1 0c b1 05 08       	mov    0x805b10c,%eax
 80492fa:	8b 40 0c             	mov    0xc(%eax),%eax
 80492fd:	a3 0c b1 05 08       	mov    %eax,0x805b10c
 8049302:	83 ec 0c             	sub    $0xc,%esp
 8049305:	ff 75 f4             	pushl  -0xc(%ebp)
 8049308:	e8 e3 f4 ff ff       	call   80487f0 <free@plt>
 804930d:	83 c4 10             	add    $0x10,%esp
 8049310:	a1 0c b1 05 08       	mov    0x805b10c,%eax
 8049315:	85 c0                	test   %eax,%eax
 8049317:	75 d4                	jne    80492ed <clearVarList+0x8>
 8049319:	90                   	nop
 804931a:	c9                   	leave  
 804931b:	c3                   	ret    

0804931c <alloc_reg>:
 804931c:	55                   	push   %ebp
 804931d:	89 e5                	mov    %esp,%ebp
 804931f:	83 ec 18             	sub    $0x18,%esp
 8049322:	c7 45 ec 00 00 00 00 	movl   $0x0,-0x14(%ebp)
 8049329:	eb 57                	jmp    8049382 <alloc_reg+0x66>
 804932b:	8b 45 ec             	mov    -0x14(%ebp),%eax
 804932e:	83 c0 08             	add    $0x8,%eax
 8049331:	c1 e0 04             	shl    $0x4,%eax
 8049334:	05 8c b1 05 08       	add    $0x805b18c,%eax
 8049339:	8b 00                	mov    (%eax),%eax
 804933b:	85 c0                	test   %eax,%eax
 804933d:	75 06                	jne    8049345 <alloc_reg+0x29>
 804933f:	83 45 ec 01          	addl   $0x1,-0x14(%ebp)
 8049343:	eb 3d                	jmp    8049382 <alloc_reg+0x66>
 8049345:	8b 45 ec             	mov    -0x14(%ebp),%eax
 8049348:	83 c0 08             	add    $0x8,%eax
 804934b:	c1 e0 04             	shl    $0x4,%eax
 804934e:	05 8c b1 05 08       	add    $0x805b18c,%eax
 8049353:	c7 00 00 00 00 00    	movl   $0x0,(%eax)
 8049359:	a1 14 b1 05 08       	mov    0x805b114,%eax
 804935e:	8b 55 ec             	mov    -0x14(%ebp),%edx
 8049361:	83 c2 08             	add    $0x8,%edx
 8049364:	c1 e2 04             	shl    $0x4,%edx
 8049367:	81 c2 88 b1 05 08    	add    $0x805b188,%edx
 804936d:	89 02                	mov    %eax,(%edx)
 804936f:	8b 45 ec             	mov    -0x14(%ebp),%eax
 8049372:	83 c0 08             	add    $0x8,%eax
 8049375:	c1 e0 04             	shl    $0x4,%eax
 8049378:	05 80 b1 05 08       	add    $0x805b180,%eax
 804937d:	e9 20 01 00 00       	jmp    80494a2 <alloc_reg+0x186>
 8049382:	83 7d ec 09          	cmpl   $0x9,-0x14(%ebp)
 8049386:	7e a3                	jle    804932b <alloc_reg+0xf>
 8049388:	c7 45 ec 00 00 00 00 	movl   $0x0,-0x14(%ebp)
 804938f:	eb 57                	jmp    80493e8 <alloc_reg+0xcc>
 8049391:	8b 45 ec             	mov    -0x14(%ebp),%eax
 8049394:	83 c0 12             	add    $0x12,%eax
 8049397:	c1 e0 04             	shl    $0x4,%eax
 804939a:	05 8c b1 05 08       	add    $0x805b18c,%eax
 804939f:	8b 00                	mov    (%eax),%eax
 80493a1:	85 c0                	test   %eax,%eax
 80493a3:	75 06                	jne    80493ab <alloc_reg+0x8f>
 80493a5:	83 45 ec 01          	addl   $0x1,-0x14(%ebp)
 80493a9:	eb 3d                	jmp    80493e8 <alloc_reg+0xcc>
 80493ab:	8b 45 ec             	mov    -0x14(%ebp),%eax
 80493ae:	83 c0 12             	add    $0x12,%eax
 80493b1:	c1 e0 04             	shl    $0x4,%eax
 80493b4:	05 8c b1 05 08       	add    $0x805b18c,%eax
 80493b9:	c7 00 00 00 00 00    	movl   $0x0,(%eax)
 80493bf:	a1 14 b1 05 08       	mov    0x805b114,%eax
 80493c4:	8b 55 ec             	mov    -0x14(%ebp),%edx
 80493c7:	83 c2 12             	add    $0x12,%edx
 80493ca:	c1 e2 04             	shl    $0x4,%edx
 80493cd:	81 c2 88 b1 05 08    	add    $0x805b188,%edx
 80493d3:	89 02                	mov    %eax,(%edx)
 80493d5:	8b 45 ec             	mov    -0x14(%ebp),%eax
 80493d8:	83 c0 12             	add    $0x12,%eax
 80493db:	c1 e0 04             	shl    $0x4,%eax
 80493de:	05 80 b1 05 08       	add    $0x805b180,%eax
 80493e3:	e9 ba 00 00 00       	jmp    80494a2 <alloc_reg+0x186>
 80493e8:	83 7d ec 07          	cmpl   $0x7,-0x14(%ebp)
 80493ec:	7e a3                	jle    8049391 <alloc_reg+0x75>
 80493ee:	c7 45 f0 00 00 00 00 	movl   $0x0,-0x10(%ebp)
 80493f5:	c7 45 f4 ff ff ff 7f 	movl   $0x7fffffff,-0xc(%ebp)
 80493fc:	c7 45 ec 00 00 00 00 	movl   $0x0,-0x14(%ebp)
 8049403:	eb 32                	jmp    8049437 <alloc_reg+0x11b>
 8049405:	8b 45 ec             	mov    -0x14(%ebp),%eax
 8049408:	83 c0 08             	add    $0x8,%eax
 804940b:	c1 e0 04             	shl    $0x4,%eax
 804940e:	05 88 b1 05 08       	add    $0x805b188,%eax
 8049413:	8b 00                	mov    (%eax),%eax
 8049415:	3b 45 f4             	cmp    -0xc(%ebp),%eax
 8049418:	7d 19                	jge    8049433 <alloc_reg+0x117>
 804941a:	8b 45 ec             	mov    -0x14(%ebp),%eax
 804941d:	89 45 f0             	mov    %eax,-0x10(%ebp)
 8049420:	8b 45 ec             	mov    -0x14(%ebp),%eax
 8049423:	83 c0 08             	add    $0x8,%eax
 8049426:	c1 e0 04             	shl    $0x4,%eax
 8049429:	05 88 b1 05 08       	add    $0x805b188,%eax
 804942e:	8b 00                	mov    (%eax),%eax
 8049430:	89 45 f4             	mov    %eax,-0xc(%ebp)
 8049433:	83 45 ec 01          	addl   $0x1,-0x14(%ebp)
 8049437:	83 7d ec 09          	cmpl   $0x9,-0x14(%ebp)
 804943b:	7e c8                	jle    8049405 <alloc_reg+0xe9>
 804943d:	83 ec 08             	sub    $0x8,%esp
 8049440:	ff 75 f0             	pushl  -0x10(%ebp)
 8049443:	68 cc 58 05 08       	push   $0x80558cc
 8049448:	e8 7f f9 ff ff       	call   8048dcc <printMips>
 804944d:	83 c4 10             	add    $0x10,%esp
 8049450:	8b 45 f0             	mov    -0x10(%ebp),%eax
 8049453:	83 c0 08             	add    $0x8,%eax
 8049456:	c1 e0 04             	shl    $0x4,%eax
 8049459:	05 80 b1 05 08       	add    $0x805b180,%eax
 804945e:	83 ec 0c             	sub    $0xc,%esp
 8049461:	50                   	push   %eax
 8049462:	e8 23 fd ff ff       	call   804918a <spill_reg>
 8049467:	83 c4 10             	add    $0x10,%esp
 804946a:	a1 14 b1 05 08       	mov    0x805b114,%eax
 804946f:	8b 55 f0             	mov    -0x10(%ebp),%edx
 8049472:	83 c2 08             	add    $0x8,%edx
 8049475:	c1 e2 04             	shl    $0x4,%edx
 8049478:	81 c2 88 b1 05 08    	add    $0x805b188,%edx
 804947e:	89 02                	mov    %eax,(%edx)
 8049480:	8b 45 f0             	mov    -0x10(%ebp),%eax
 8049483:	83 c0 08             	add    $0x8,%eax
 8049486:	c1 e0 04             	shl    $0x4,%eax
 8049489:	05 8c b1 05 08       	add    $0x805b18c,%eax
 804948e:	c7 00 00 00 00 00    	movl   $0x0,(%eax)
 8049494:	8b 45 f0             	mov    -0x10(%ebp),%eax
 8049497:	83 c0 08             	add    $0x8,%eax
 804949a:	c1 e0 04             	shl    $0x4,%eax
 804949d:	05 80 b1 05 08       	add    $0x805b180,%eax
 80494a2:	c9                   	leave  
 80494a3:	c3                   	ret    

080494a4 <ensure>:
 80494a4:	55                   	push   %ebp
 80494a5:	89 e5                	mov    %esp,%ebp
 80494a7:	83 ec 18             	sub    $0x18,%esp
 80494aa:	c7 45 f0 00 00 00 00 	movl   $0x0,-0x10(%ebp)
 80494b1:	8b 45 08             	mov    0x8(%ebp),%eax
 80494b4:	8b 00                	mov    (%eax),%eax
 80494b6:	83 f8 01             	cmp    $0x1,%eax
 80494b9:	75 47                	jne    8049502 <ensure+0x5e>
 80494bb:	8b 45 08             	mov    0x8(%ebp),%eax
 80494be:	8b 40 04             	mov    0x4(%eax),%eax
 80494c1:	85 c0                	test   %eax,%eax
 80494c3:	75 0c                	jne    80494d1 <ensure+0x2d>
 80494c5:	c7 45 f0 80 b1 05 08 	movl   $0x805b180,-0x10(%ebp)
 80494cc:	e9 5c 01 00 00       	jmp    804962d <ensure+0x189>
 80494d1:	83 ec 0c             	sub    $0xc,%esp
 80494d4:	ff 75 08             	pushl  0x8(%ebp)
 80494d7:	e8 40 fe ff ff       	call   804931c <alloc_reg>
 80494dc:	83 c4 10             	add    $0x10,%esp
 80494df:	89 45 f0             	mov    %eax,-0x10(%ebp)
 80494e2:	8b 45 08             	mov    0x8(%ebp),%eax
 80494e5:	8b 50 04             	mov    0x4(%eax),%edx
 80494e8:	8b 45 f0             	mov    -0x10(%ebp),%eax
 80494eb:	83 ec 04             	sub    $0x4,%esp
 80494ee:	52                   	push   %edx
 80494ef:	50                   	push   %eax
 80494f0:	68 d8 58 05 08       	push   $0x80558d8
 80494f5:	e8 d2 f8 ff ff       	call   8048dcc <printMips>
 80494fa:	83 c4 10             	add    $0x10,%esp
 80494fd:	e9 2b 01 00 00       	jmp    804962d <ensure+0x189>
 8049502:	8b 45 08             	mov    0x8(%ebp),%eax
 8049505:	8b 00                	mov    (%eax),%eax
 8049507:	85 c0                	test   %eax,%eax
 8049509:	74 0e                	je     8049519 <ensure+0x75>
 804950b:	8b 45 08             	mov    0x8(%ebp),%eax
 804950e:	8b 00                	mov    (%eax),%eax
 8049510:	83 f8 03             	cmp    $0x3,%eax
 8049513:	0f 85 a5 00 00 00    	jne    80495be <ensure+0x11a>
 8049519:	83 ec 0c             	sub    $0xc,%esp
 804951c:	ff 75 08             	pushl  0x8(%ebp)
 804951f:	e8 b1 fa ff ff       	call   8048fd5 <get_var>
 8049524:	83 c4 10             	add    $0x10,%esp
 8049527:	89 45 f4             	mov    %eax,-0xc(%ebp)
 804952a:	83 7d f4 00          	cmpl   $0x0,-0xc(%ebp)
 804952e:	75 39                	jne    8049569 <ensure+0xc5>
 8049530:	83 ec 0c             	sub    $0xc,%esp
 8049533:	ff 75 08             	pushl  0x8(%ebp)
 8049536:	e8 da fa ff ff       	call   8049015 <alloc_var>
 804953b:	83 c4 10             	add    $0x10,%esp
 804953e:	89 45 f4             	mov    %eax,-0xc(%ebp)
 8049541:	83 ec 0c             	sub    $0xc,%esp
 8049544:	ff 75 08             	pushl  0x8(%ebp)
 8049547:	e8 d0 fd ff ff       	call   804931c <alloc_reg>
 804954c:	83 c4 10             	add    $0x10,%esp
 804954f:	89 45 f0             	mov    %eax,-0x10(%ebp)
 8049552:	8b 45 f4             	mov    -0xc(%ebp),%eax
 8049555:	8b 55 f0             	mov    -0x10(%ebp),%edx
 8049558:	89 50 04             	mov    %edx,0x4(%eax)
 804955b:	8b 45 f0             	mov    -0x10(%ebp),%eax
 804955e:	8b 55 f4             	mov    -0xc(%ebp),%edx
 8049561:	89 50 04             	mov    %edx,0x4(%eax)
 8049564:	e9 c4 00 00 00       	jmp    804962d <ensure+0x189>
 8049569:	8b 45 f4             	mov    -0xc(%ebp),%eax
 804956c:	8b 40 04             	mov    0x4(%eax),%eax
 804956f:	85 c0                	test   %eax,%eax
 8049571:	75 40                	jne    80495b3 <ensure+0x10f>
 8049573:	83 ec 0c             	sub    $0xc,%esp
 8049576:	ff 75 08             	pushl  0x8(%ebp)
 8049579:	e8 9e fd ff ff       	call   804931c <alloc_reg>
 804957e:	83 c4 10             	add    $0x10,%esp
 8049581:	89 45 f0             	mov    %eax,-0x10(%ebp)
 8049584:	8b 45 f4             	mov    -0xc(%ebp),%eax
 8049587:	8b 55 f0             	mov    -0x10(%ebp),%edx
 804958a:	89 50 04             	mov    %edx,0x4(%eax)
 804958d:	8b 45 f0             	mov    -0x10(%ebp),%eax
 8049590:	8b 55 f4             	mov    -0xc(%ebp),%edx
 8049593:	89 50 04             	mov    %edx,0x4(%eax)
 8049596:	8b 45 f4             	mov    -0xc(%ebp),%eax
 8049599:	8b 50 08             	mov    0x8(%eax),%edx
 804959c:	8b 45 f0             	mov    -0x10(%ebp),%eax
 804959f:	83 ec 04             	sub    $0x4,%esp
 80495a2:	52                   	push   %edx
 80495a3:	50                   	push   %eax
 80495a4:	68 e4 58 05 08       	push   $0x80558e4
 80495a9:	e8 1e f8 ff ff       	call   8048dcc <printMips>
 80495ae:	83 c4 10             	add    $0x10,%esp
 80495b1:	eb 7a                	jmp    804962d <ensure+0x189>
 80495b3:	8b 45 f4             	mov    -0xc(%ebp),%eax
 80495b6:	8b 40 04             	mov    0x4(%eax),%eax
 80495b9:	89 45 f0             	mov    %eax,-0x10(%ebp)
 80495bc:	eb 6f                	jmp    804962d <ensure+0x189>
 80495be:	8b 45 08             	mov    0x8(%ebp),%eax
 80495c1:	8b 00                	mov    (%eax),%eax
 80495c3:	83 f8 05             	cmp    $0x5,%eax
 80495c6:	75 17                	jne    80495df <ensure+0x13b>
 80495c8:	8b 45 08             	mov    0x8(%ebp),%eax
 80495cb:	8b 40 04             	mov    0x4(%eax),%eax
 80495ce:	83 ec 0c             	sub    $0xc,%esp
 80495d1:	50                   	push   %eax
 80495d2:	e8 5b 00 00 00       	call   8049632 <ensure_ref>
 80495d7:	83 c4 10             	add    $0x10,%esp
 80495da:	89 45 f0             	mov    %eax,-0x10(%ebp)
 80495dd:	eb 4e                	jmp    804962d <ensure+0x189>
 80495df:	8b 45 08             	mov    0x8(%ebp),%eax
 80495e2:	8b 00                	mov    (%eax),%eax
 80495e4:	83 f8 06             	cmp    $0x6,%eax
 80495e7:	75 17                	jne    8049600 <ensure+0x15c>
 80495e9:	8b 45 08             	mov    0x8(%ebp),%eax
 80495ec:	8b 40 04             	mov    0x4(%eax),%eax
 80495ef:	83 ec 0c             	sub    $0xc,%esp
 80495f2:	50                   	push   %eax
 80495f3:	e8 a0 00 00 00       	call   8049698 <ensure_rDeref>
 80495f8:	83 c4 10             	add    $0x10,%esp
 80495fb:	89 45 f0             	mov    %eax,-0x10(%ebp)
 80495fe:	eb 2d                	jmp    804962d <ensure+0x189>
 8049600:	a1 04 b1 05 08       	mov    0x805b104,%eax
 8049605:	83 ec 08             	sub    $0x8,%esp
 8049608:	50                   	push   %eax
 8049609:	ff 75 08             	pushl  0x8(%ebp)
 804960c:	e8 13 34 00 00       	call   804ca24 <printOperand>
 8049611:	83 c4 10             	add    $0x10,%esp
 8049614:	68 d0 5c 05 08       	push   $0x8055cd0
 8049619:	68 03 01 00 00       	push   $0x103
 804961e:	68 f5 58 05 08       	push   $0x80558f5
 8049623:	68 fc 58 05 08       	push   $0x80558fc
 8049628:	e8 c3 f3 ff ff       	call   80489f0 <__assert_fail@plt>
 804962d:	8b 45 f0             	mov    -0x10(%ebp),%eax
 8049630:	c9                   	leave  
 8049631:	c3                   	ret    

08049632 <ensure_ref>:
 8049632:	55                   	push   %ebp
 8049633:	89 e5                	mov    %esp,%ebp
 8049635:	83 ec 18             	sub    $0x18,%esp
 8049638:	83 ec 0c             	sub    $0xc,%esp
 804963b:	6a 00                	push   $0x0
 804963d:	e8 da fc ff ff       	call   804931c <alloc_reg>
 8049642:	83 c4 10             	add    $0x10,%esp
 8049645:	89 45 f0             	mov    %eax,-0x10(%ebp)
 8049648:	83 ec 0c             	sub    $0xc,%esp
 804964b:	ff 75 08             	pushl  0x8(%ebp)
 804964e:	e8 82 f9 ff ff       	call   8048fd5 <get_var>
 8049653:	83 c4 10             	add    $0x10,%esp
 8049656:	89 45 f4             	mov    %eax,-0xc(%ebp)
 8049659:	83 7d f4 00          	cmpl   $0x0,-0xc(%ebp)
 804965d:	75 19                	jne    8049678 <ensure_ref+0x46>
 804965f:	68 d8 5c 05 08       	push   $0x8055cd8
 8049664:	68 0e 01 00 00       	push   $0x10e
 8049669:	68 f5 58 05 08       	push   $0x80558f5
 804966e:	68 fe 58 05 08       	push   $0x80558fe
 8049673:	e8 78 f3 ff ff       	call   80489f0 <__assert_fail@plt>
 8049678:	8b 45 f4             	mov    -0xc(%ebp),%eax
 804967b:	8b 50 08             	mov    0x8(%eax),%edx
 804967e:	8b 45 f0             	mov    -0x10(%ebp),%eax
 8049681:	83 ec 04             	sub    $0x4,%esp
 8049684:	52                   	push   %edx
 8049685:	50                   	push   %eax
 8049686:	68 02 59 05 08       	push   $0x8055902
 804968b:	e8 3c f7 ff ff       	call   8048dcc <printMips>
 8049690:	83 c4 10             	add    $0x10,%esp
 8049693:	8b 45 f0             	mov    -0x10(%ebp),%eax
 8049696:	c9                   	leave  
 8049697:	c3                   	ret    

08049698 <ensure_rDeref>:
 8049698:	55                   	push   %ebp
 8049699:	89 e5                	mov    %esp,%ebp
 804969b:	83 ec 18             	sub    $0x18,%esp
 804969e:	83 ec 0c             	sub    $0xc,%esp
 80496a1:	6a 00                	push   $0x0
 80496a3:	e8 74 fc ff ff       	call   804931c <alloc_reg>
 80496a8:	83 c4 10             	add    $0x10,%esp
 80496ab:	89 45 f0             	mov    %eax,-0x10(%ebp)
 80496ae:	83 ec 0c             	sub    $0xc,%esp
 80496b1:	ff 75 08             	pushl  0x8(%ebp)
 80496b4:	e8 eb fd ff ff       	call   80494a4 <ensure>
 80496b9:	83 c4 10             	add    $0x10,%esp
 80496bc:	89 45 f4             	mov    %eax,-0xc(%ebp)
 80496bf:	8b 55 f4             	mov    -0xc(%ebp),%edx
 80496c2:	8b 45 f0             	mov    -0x10(%ebp),%eax
 80496c5:	83 ec 04             	sub    $0x4,%esp
 80496c8:	52                   	push   %edx
 80496c9:	50                   	push   %eax
 80496ca:	68 13 59 05 08       	push   $0x8055913
 80496cf:	e8 f8 f6 ff ff       	call   8048dcc <printMips>
 80496d4:	83 c4 10             	add    $0x10,%esp
 80496d7:	8b 45 f0             	mov    -0x10(%ebp),%eax
 80496da:	c9                   	leave  
 80496db:	c3                   	ret    

080496dc <ensure_lDeref>:
 80496dc:	55                   	push   %ebp
 80496dd:	89 e5                	mov    %esp,%ebp
 80496df:	83 ec 08             	sub    $0x8,%esp
 80496e2:	8b 55 08             	mov    0x8(%ebp),%edx
 80496e5:	8b 45 0c             	mov    0xc(%ebp),%eax
 80496e8:	83 ec 04             	sub    $0x4,%esp
 80496eb:	52                   	push   %edx
 80496ec:	50                   	push   %eax
 80496ed:	68 22 59 05 08       	push   $0x8055922
 80496f2:	e8 d5 f6 ff ff       	call   8048dcc <printMips>
 80496f7:	83 c4 10             	add    $0x10,%esp
 80496fa:	8b 45 08             	mov    0x8(%ebp),%eax
 80496fd:	c9                   	leave  
 80496fe:	c3                   	ret    

080496ff <gen_read_write>:
 80496ff:	55                   	push   %ebp
 8049700:	89 e5                	mov    %esp,%ebp
 8049702:	83 ec 08             	sub    $0x8,%esp
 8049705:	83 ec 0c             	sub    $0xc,%esp
 8049708:	68 31 59 05 08       	push   $0x8055931
 804970d:	e8 ba f6 ff ff       	call   8048dcc <printMips>
 8049712:	83 c4 10             	add    $0x10,%esp
 8049715:	83 ec 0c             	sub    $0xc,%esp
 8049718:	68 38 59 05 08       	push   $0x8055938
 804971d:	e8 aa f6 ff ff       	call   8048dcc <printMips>
 8049722:	83 c4 10             	add    $0x10,%esp
 8049725:	83 ec 0c             	sub    $0xc,%esp
 8049728:	68 5d 59 05 08       	push   $0x805595d
 804972d:	e8 9a f6 ff ff       	call   8048dcc <printMips>
 8049732:	83 c4 10             	add    $0x10,%esp
 8049735:	83 ec 0c             	sub    $0xc,%esp
 8049738:	68 70 59 05 08       	push   $0x8055970
 804973d:	e8 8a f6 ff ff       	call   8048dcc <printMips>
 8049742:	83 c4 10             	add    $0x10,%esp
 8049745:	83 ec 0c             	sub    $0xc,%esp
 8049748:	68 7c 59 05 08       	push   $0x805597c
 804974d:	e8 7a f6 ff ff       	call   8048dcc <printMips>
 8049752:	83 c4 10             	add    $0x10,%esp
 8049755:	83 ec 0c             	sub    $0xc,%esp
 8049758:	68 82 59 05 08       	push   $0x8055982
 804975d:	e8 6a f6 ff ff       	call   8048dcc <printMips>
 8049762:	83 c4 10             	add    $0x10,%esp
 8049765:	83 ec 0c             	sub    $0xc,%esp
 8049768:	68 88 59 05 08       	push   $0x8055988
 804976d:	e8 5a f6 ff ff       	call   8048dcc <printMips>
 8049772:	83 c4 10             	add    $0x10,%esp
 8049775:	83 ec 0c             	sub    $0xc,%esp
 8049778:	68 94 59 05 08       	push   $0x8055994
 804977d:	e8 4a f6 ff ff       	call   8048dcc <printMips>
 8049782:	83 c4 10             	add    $0x10,%esp
 8049785:	83 ec 0c             	sub    $0xc,%esp
 8049788:	68 a6 59 05 08       	push   $0x80559a6
 804978d:	e8 3a f6 ff ff       	call   8048dcc <printMips>
 8049792:	83 c4 10             	add    $0x10,%esp
 8049795:	83 ec 0c             	sub    $0xc,%esp
 8049798:	68 b0 59 05 08       	push   $0x80559b0
 804979d:	e8 2a f6 ff ff       	call   8048dcc <printMips>
 80497a2:	83 c4 10             	add    $0x10,%esp
 80497a5:	83 ec 0c             	sub    $0xc,%esp
 80497a8:	68 a6 59 05 08       	push   $0x80559a6
 80497ad:	e8 1a f6 ff ff       	call   8048dcc <printMips>
 80497b2:	83 c4 10             	add    $0x10,%esp
 80497b5:	83 ec 0c             	sub    $0xc,%esp
 80497b8:	68 bc 59 05 08       	push   $0x80559bc
 80497bd:	e8 0a f6 ff ff       	call   8048dcc <printMips>
 80497c2:	83 c4 10             	add    $0x10,%esp
 80497c5:	83 ec 0c             	sub    $0xc,%esp
 80497c8:	68 c5 59 05 08       	push   $0x80559c5
 80497cd:	e8 fa f5 ff ff       	call   8048dcc <printMips>
 80497d2:	83 c4 10             	add    $0x10,%esp
 80497d5:	83 ec 0c             	sub    $0xc,%esp
 80497d8:	68 cf 59 05 08       	push   $0x80559cf
 80497dd:	e8 ea f5 ff ff       	call   8048dcc <printMips>
 80497e2:	83 c4 10             	add    $0x10,%esp
 80497e5:	83 ec 0c             	sub    $0xc,%esp
 80497e8:	68 a6 59 05 08       	push   $0x80559a6
 80497ed:	e8 da f5 ff ff       	call   8048dcc <printMips>
 80497f2:	83 c4 10             	add    $0x10,%esp
 80497f5:	83 ec 0c             	sub    $0xc,%esp
 80497f8:	68 88 59 05 08       	push   $0x8055988
 80497fd:	e8 ca f5 ff ff       	call   8048dcc <printMips>
 8049802:	83 c4 10             	add    $0x10,%esp
 8049805:	83 ec 0c             	sub    $0xc,%esp
 8049808:	68 db 59 05 08       	push   $0x80559db
 804980d:	e8 ba f5 ff ff       	call   8048dcc <printMips>
 8049812:	83 c4 10             	add    $0x10,%esp
 8049815:	83 ec 0c             	sub    $0xc,%esp
 8049818:	68 a6 59 05 08       	push   $0x80559a6
 804981d:	e8 aa f5 ff ff       	call   8048dcc <printMips>
 8049822:	83 c4 10             	add    $0x10,%esp
 8049825:	83 ec 0c             	sub    $0xc,%esp
 8049828:	68 ea 59 05 08       	push   $0x80559ea
 804982d:	e8 9a f5 ff ff       	call   8048dcc <printMips>
 8049832:	83 c4 10             	add    $0x10,%esp
 8049835:	83 ec 0c             	sub    $0xc,%esp
 8049838:	68 bc 59 05 08       	push   $0x80559bc
 804983d:	e8 8a f5 ff ff       	call   8048dcc <printMips>
 8049842:	83 c4 10             	add    $0x10,%esp
 8049845:	90                   	nop
 8049846:	c9                   	leave  
 8049847:	c3                   	ret    

08049848 <prologue>:
 8049848:	55                   	push   %ebp
 8049849:	89 e5                	mov    %esp,%ebp
 804984b:	83 ec 08             	sub    $0x8,%esp
 804984e:	83 ec 0c             	sub    $0xc,%esp
 8049851:	68 f9 59 05 08       	push   $0x80559f9
 8049856:	e8 71 f5 ff ff       	call   8048dcc <printMips>
 804985b:	83 c4 10             	add    $0x10,%esp
 804985e:	83 ec 0c             	sub    $0xc,%esp
 8049861:	68 0c 5a 05 08       	push   $0x8055a0c
 8049866:	e8 61 f5 ff ff       	call   8048dcc <printMips>
 804986b:	83 c4 10             	add    $0x10,%esp
 804986e:	83 ec 0c             	sub    $0xc,%esp
 8049871:	68 1d 5a 05 08       	push   $0x8055a1d
 8049876:	e8 51 f5 ff ff       	call   8048dcc <printMips>
 804987b:	83 c4 10             	add    $0x10,%esp
 804987e:	83 ec 0c             	sub    $0xc,%esp
 8049881:	68 2e 5a 05 08       	push   $0x8055a2e
 8049886:	e8 41 f5 ff ff       	call   8048dcc <printMips>
 804988b:	83 c4 10             	add    $0x10,%esp
 804988e:	c7 05 10 b1 05 08 00 	movl   $0x0,0x805b110
 8049895:	00 00 00 
 8049898:	90                   	nop
 8049899:	c9                   	leave  
 804989a:	c3                   	ret    

0804989b <epilogue>:
 804989b:	55                   	push   %ebp
 804989c:	89 e5                	mov    %esp,%ebp
 804989e:	83 ec 08             	sub    $0x8,%esp
 80498a1:	83 ec 0c             	sub    $0xc,%esp
 80498a4:	68 42 5a 05 08       	push   $0x8055a42
 80498a9:	e8 1e f5 ff ff       	call   8048dcc <printMips>
 80498ae:	83 c4 10             	add    $0x10,%esp
 80498b1:	83 ec 0c             	sub    $0xc,%esp
 80498b4:	68 56 5a 05 08       	push   $0x8055a56
 80498b9:	e8 0e f5 ff ff       	call   8048dcc <printMips>
 80498be:	83 c4 10             	add    $0x10,%esp
 80498c1:	83 ec 0c             	sub    $0xc,%esp
 80498c4:	68 67 5a 05 08       	push   $0x8055a67
 80498c9:	e8 fe f4 ff ff       	call   8048dcc <printMips>
 80498ce:	83 c4 10             	add    $0x10,%esp
 80498d1:	83 ec 0c             	sub    $0xc,%esp
 80498d4:	68 78 5a 05 08       	push   $0x8055a78
 80498d9:	e8 ee f4 ff ff       	call   8048dcc <printMips>
 80498de:	83 c4 10             	add    $0x10,%esp
 80498e1:	83 ec 0c             	sub    $0xc,%esp
 80498e4:	68 bc 59 05 08       	push   $0x80559bc
 80498e9:	e8 de f4 ff ff       	call   8048dcc <printMips>
 80498ee:	83 c4 10             	add    $0x10,%esp
 80498f1:	90                   	nop
 80498f2:	c9                   	leave  
 80498f3:	c3                   	ret    

080498f4 <generate_mips>:
 80498f4:	55                   	push   %ebp
 80498f5:	89 e5                	mov    %esp,%ebp
 80498f7:	83 ec 58             	sub    $0x58,%esp
 80498fa:	e8 36 f5 ff ff       	call   8048e35 <initRegs>
 80498ff:	a1 04 b1 05 08       	mov    0x805b104,%eax
 8049904:	89 45 cc             	mov    %eax,-0x34(%ebp)
 8049907:	83 ec 0c             	sub    $0xc,%esp
 804990a:	ff 75 cc             	pushl  -0x34(%ebp)
 804990d:	e8 ed fd ff ff       	call   80496ff <gen_read_write>
 8049912:	83 c4 10             	add    $0x10,%esp
 8049915:	8b 45 08             	mov    0x8(%ebp),%eax
 8049918:	89 45 bc             	mov    %eax,-0x44(%ebp)
 804991b:	c7 45 c0 00 00 00 00 	movl   $0x0,-0x40(%ebp)
 8049922:	c7 45 c4 00 00 00 00 	movl   $0x0,-0x3c(%ebp)
 8049929:	c7 45 c8 00 00 00 00 	movl   $0x0,-0x38(%ebp)
 8049930:	e9 d3 09 00 00       	jmp    804a308 <generate_mips+0xa14>
 8049935:	8b 45 bc             	mov    -0x44(%ebp),%eax
 8049938:	8b 40 04             	mov    0x4(%eax),%eax
 804993b:	89 45 d0             	mov    %eax,-0x30(%ebp)
 804993e:	8b 45 bc             	mov    -0x44(%ebp),%eax
 8049941:	8b 40 08             	mov    0x8(%eax),%eax
 8049944:	89 45 d4             	mov    %eax,-0x2c(%ebp)
 8049947:	8b 45 bc             	mov    -0x44(%ebp),%eax
 804994a:	8b 40 0c             	mov    0xc(%eax),%eax
 804994d:	89 45 d8             	mov    %eax,-0x28(%ebp)
 8049950:	8b 45 bc             	mov    -0x44(%ebp),%eax
 8049953:	8b 00                	mov    (%eax),%eax
 8049955:	83 f8 17             	cmp    $0x17,%eax
 8049958:	0f 87 84 09 00 00    	ja     804a2e2 <generate_mips+0x9ee>
 804995e:	8b 04 85 70 5c 05 08 	mov    0x8055c70(,%eax,4),%eax
 8049965:	ff e0                	jmp    *%eax
 8049967:	e8 35 f9 ff ff       	call   80492a1 <resetRegs>
 804996c:	e8 74 f9 ff ff       	call   80492e5 <clearVarList>
 8049971:	8b 45 bc             	mov    -0x44(%ebp),%eax
 8049974:	8b 40 08             	mov    0x8(%eax),%eax
 8049977:	8b 40 04             	mov    0x4(%eax),%eax
 804997a:	83 ec 08             	sub    $0x8,%esp
 804997d:	50                   	push   %eax
 804997e:	68 8b 5a 05 08       	push   $0x8055a8b
 8049983:	e8 44 f4 ff ff       	call   8048dcc <printMips>
 8049988:	83 c4 10             	add    $0x10,%esp
 804998b:	e8 b8 fe ff ff       	call   8049848 <prologue>
 8049990:	c7 45 c4 00 00 00 00 	movl   $0x0,-0x3c(%ebp)
 8049997:	e9 8d 00 00 00       	jmp    8049a29 <generate_mips+0x135>
 804999c:	8b 45 bc             	mov    -0x44(%ebp),%eax
 804999f:	8b 40 14             	mov    0x14(%eax),%eax
 80499a2:	89 45 bc             	mov    %eax,-0x44(%ebp)
 80499a5:	83 7d c4 03          	cmpl   $0x3,-0x3c(%ebp)
 80499a9:	7f 2c                	jg     80499d7 <generate_mips+0xe3>
 80499ab:	8b 45 bc             	mov    -0x44(%ebp),%eax
 80499ae:	8b 40 08             	mov    0x8(%eax),%eax
 80499b1:	83 ec 0c             	sub    $0xc,%esp
 80499b4:	50                   	push   %eax
 80499b5:	e8 5b f6 ff ff       	call   8049015 <alloc_var>
 80499ba:	83 c4 10             	add    $0x10,%esp
 80499bd:	89 45 dc             	mov    %eax,-0x24(%ebp)
 80499c0:	8b 45 c4             	mov    -0x3c(%ebp),%eax
 80499c3:	83 c0 04             	add    $0x4,%eax
 80499c6:	c1 e0 04             	shl    $0x4,%eax
 80499c9:	8d 90 80 b1 05 08    	lea    0x805b180(%eax),%edx
 80499cf:	8b 45 dc             	mov    -0x24(%ebp),%eax
 80499d2:	89 50 04             	mov    %edx,0x4(%eax)
 80499d5:	eb 4e                	jmp    8049a25 <generate_mips+0x131>
 80499d7:	83 ec 0c             	sub    $0xc,%esp
 80499da:	6a 10                	push   $0x10
 80499dc:	e8 bf ee ff ff       	call   80488a0 <malloc@plt>
 80499e1:	83 c4 10             	add    $0x10,%esp
 80499e4:	89 45 e0             	mov    %eax,-0x20(%ebp)
 80499e7:	83 ec 04             	sub    $0x4,%esp
 80499ea:	6a 10                	push   $0x10
 80499ec:	6a 00                	push   $0x0
 80499ee:	ff 75 e0             	pushl  -0x20(%ebp)
 80499f1:	e8 2a ef ff ff       	call   8048920 <memset@plt>
 80499f6:	83 c4 10             	add    $0x10,%esp
 80499f9:	8b 45 bc             	mov    -0x44(%ebp),%eax
 80499fc:	8b 50 08             	mov    0x8(%eax),%edx
 80499ff:	8b 45 e0             	mov    -0x20(%ebp),%eax
 8049a02:	89 10                	mov    %edx,(%eax)
 8049a04:	8b 45 c4             	mov    -0x3c(%ebp),%eax
 8049a07:	83 e8 01             	sub    $0x1,%eax
 8049a0a:	8d 14 85 00 00 00 00 	lea    0x0(,%eax,4),%edx
 8049a11:	8b 45 e0             	mov    -0x20(%ebp),%eax
 8049a14:	89 50 08             	mov    %edx,0x8(%eax)
 8049a17:	83 ec 0c             	sub    $0xc,%esp
 8049a1a:	ff 75 e0             	pushl  -0x20(%ebp)
 8049a1d:	e8 7c f5 ff ff       	call   8048f9e <add_var>
 8049a22:	83 c4 10             	add    $0x10,%esp
 8049a25:	83 45 c4 01          	addl   $0x1,-0x3c(%ebp)
 8049a29:	8b 45 bc             	mov    -0x44(%ebp),%eax
 8049a2c:	8b 40 14             	mov    0x14(%eax),%eax
 8049a2f:	85 c0                	test   %eax,%eax
 8049a31:	0f 84 c7 08 00 00    	je     804a2fe <generate_mips+0xa0a>
 8049a37:	8b 45 bc             	mov    -0x44(%ebp),%eax
 8049a3a:	8b 40 14             	mov    0x14(%eax),%eax
 8049a3d:	8b 00                	mov    (%eax),%eax
 8049a3f:	83 f8 08             	cmp    $0x8,%eax
 8049a42:	0f 84 54 ff ff ff    	je     804999c <generate_mips+0xa8>
 8049a48:	e9 b1 08 00 00       	jmp    804a2fe <generate_mips+0xa0a>
 8049a4d:	8b 45 bc             	mov    -0x44(%ebp),%eax
 8049a50:	8b 40 08             	mov    0x8(%eax),%eax
 8049a53:	83 ec 0c             	sub    $0xc,%esp
 8049a56:	50                   	push   %eax
 8049a57:	e8 48 fa ff ff       	call   80494a4 <ensure>
 8049a5c:	83 c4 10             	add    $0x10,%esp
 8049a5f:	89 45 e4             	mov    %eax,-0x1c(%ebp)
 8049a62:	8b 45 e4             	mov    -0x1c(%ebp),%eax
 8049a65:	83 ec 08             	sub    $0x8,%esp
 8049a68:	50                   	push   %eax
 8049a69:	68 90 5a 05 08       	push   $0x8055a90
 8049a6e:	e8 59 f3 ff ff       	call   8048dcc <printMips>
 8049a73:	83 c4 10             	add    $0x10,%esp
 8049a76:	83 ec 0c             	sub    $0xc,%esp
 8049a79:	68 9f 5a 05 08       	push   $0x8055a9f
 8049a7e:	e8 49 f3 ff ff       	call   8048dcc <printMips>
 8049a83:	83 c4 10             	add    $0x10,%esp
 8049a86:	83 ec 0c             	sub    $0xc,%esp
 8049a89:	68 b3 5a 05 08       	push   $0x8055ab3
 8049a8e:	e8 39 f3 ff ff       	call   8048dcc <printMips>
 8049a93:	83 c4 10             	add    $0x10,%esp
 8049a96:	83 ec 0c             	sub    $0xc,%esp
 8049a99:	68 c4 5a 05 08       	push   $0x8055ac4
 8049a9e:	e8 29 f3 ff ff       	call   8048dcc <printMips>
 8049aa3:	83 c4 10             	add    $0x10,%esp
 8049aa6:	83 ec 0c             	sub    $0xc,%esp
 8049aa9:	68 d0 5a 05 08       	push   $0x8055ad0
 8049aae:	e8 19 f3 ff ff       	call   8048dcc <printMips>
 8049ab3:	83 c4 10             	add    $0x10,%esp
 8049ab6:	83 ec 0c             	sub    $0xc,%esp
 8049ab9:	68 e1 5a 05 08       	push   $0x8055ae1
 8049abe:	e8 09 f3 ff ff       	call   8048dcc <printMips>
 8049ac3:	83 c4 10             	add    $0x10,%esp
 8049ac6:	e9 34 08 00 00       	jmp    804a2ff <generate_mips+0xa0b>
 8049acb:	83 ec 0c             	sub    $0xc,%esp
 8049ace:	ff 75 d0             	pushl  -0x30(%ebp)
 8049ad1:	e8 ce f9 ff ff       	call   80494a4 <ensure>
 8049ad6:	83 c4 10             	add    $0x10,%esp
 8049ad9:	89 45 e4             	mov    %eax,-0x1c(%ebp)
 8049adc:	83 ec 0c             	sub    $0xc,%esp
 8049adf:	68 9f 5a 05 08       	push   $0x8055a9f
 8049ae4:	e8 e3 f2 ff ff       	call   8048dcc <printMips>
 8049ae9:	83 c4 10             	add    $0x10,%esp
 8049aec:	83 ec 0c             	sub    $0xc,%esp
 8049aef:	68 b3 5a 05 08       	push   $0x8055ab3
 8049af4:	e8 d3 f2 ff ff       	call   8048dcc <printMips>
 8049af9:	83 c4 10             	add    $0x10,%esp
 8049afc:	83 ec 0c             	sub    $0xc,%esp
 8049aff:	68 f4 5a 05 08       	push   $0x8055af4
 8049b04:	e8 c3 f2 ff ff       	call   8048dcc <printMips>
 8049b09:	83 c4 10             	add    $0x10,%esp
 8049b0c:	83 ec 0c             	sub    $0xc,%esp
 8049b0f:	68 d0 5a 05 08       	push   $0x8055ad0
 8049b14:	e8 b3 f2 ff ff       	call   8048dcc <printMips>
 8049b19:	83 c4 10             	add    $0x10,%esp
 8049b1c:	83 ec 0c             	sub    $0xc,%esp
 8049b1f:	68 e1 5a 05 08       	push   $0x8055ae1
 8049b24:	e8 a3 f2 ff ff       	call   8048dcc <printMips>
 8049b29:	83 c4 10             	add    $0x10,%esp
 8049b2c:	8b 45 e4             	mov    -0x1c(%ebp),%eax
 8049b2f:	83 ec 08             	sub    $0x8,%esp
 8049b32:	50                   	push   %eax
 8049b33:	68 ff 5a 05 08       	push   $0x8055aff
 8049b38:	e8 8f f2 ff ff       	call   8048dcc <printMips>
 8049b3d:	83 c4 10             	add    $0x10,%esp
 8049b40:	e9 ba 07 00 00       	jmp    804a2ff <generate_mips+0xa0b>
 8049b45:	8b 45 bc             	mov    -0x44(%ebp),%eax
 8049b48:	8b 40 08             	mov    0x8(%eax),%eax
 8049b4b:	83 ec 0c             	sub    $0xc,%esp
 8049b4e:	50                   	push   %eax
 8049b4f:	e8 50 f9 ff ff       	call   80494a4 <ensure>
 8049b54:	83 c4 10             	add    $0x10,%esp
 8049b57:	89 45 e4             	mov    %eax,-0x1c(%ebp)
 8049b5a:	8b 45 e4             	mov    -0x1c(%ebp),%eax
 8049b5d:	83 ec 08             	sub    $0x8,%esp
 8049b60:	50                   	push   %eax
 8049b61:	68 0e 5b 05 08       	push   $0x8055b0e
 8049b66:	e8 61 f2 ff ff       	call   8048dcc <printMips>
 8049b6b:	83 c4 10             	add    $0x10,%esp
 8049b6e:	e8 28 fd ff ff       	call   804989b <epilogue>
 8049b73:	e9 87 07 00 00       	jmp    804a2ff <generate_mips+0xa0b>
 8049b78:	8b 45 d0             	mov    -0x30(%ebp),%eax
 8049b7b:	8b 00                	mov    (%eax),%eax
 8049b7d:	83 f8 06             	cmp    $0x6,%eax
 8049b80:	75 3c                	jne    8049bbe <generate_mips+0x2ca>
 8049b82:	8b 45 d0             	mov    -0x30(%ebp),%eax
 8049b85:	8b 40 04             	mov    0x4(%eax),%eax
 8049b88:	83 ec 0c             	sub    $0xc,%esp
 8049b8b:	50                   	push   %eax
 8049b8c:	e8 13 f9 ff ff       	call   80494a4 <ensure>
 8049b91:	83 c4 10             	add    $0x10,%esp
 8049b94:	89 45 e4             	mov    %eax,-0x1c(%ebp)
 8049b97:	83 ec 0c             	sub    $0xc,%esp
 8049b9a:	ff 75 d4             	pushl  -0x2c(%ebp)
 8049b9d:	e8 02 f9 ff ff       	call   80494a4 <ensure>
 8049ba2:	83 c4 10             	add    $0x10,%esp
 8049ba5:	89 45 b4             	mov    %eax,-0x4c(%ebp)
 8049ba8:	83 ec 08             	sub    $0x8,%esp
 8049bab:	ff 75 b4             	pushl  -0x4c(%ebp)
 8049bae:	ff 75 e4             	pushl  -0x1c(%ebp)
 8049bb1:	e8 26 fb ff ff       	call   80496dc <ensure_lDeref>
 8049bb6:	83 c4 10             	add    $0x10,%esp
 8049bb9:	e9 41 07 00 00       	jmp    804a2ff <generate_mips+0xa0b>
 8049bbe:	83 ec 0c             	sub    $0xc,%esp
 8049bc1:	ff 75 d0             	pushl  -0x30(%ebp)
 8049bc4:	e8 db f8 ff ff       	call   80494a4 <ensure>
 8049bc9:	83 c4 10             	add    $0x10,%esp
 8049bcc:	89 45 e4             	mov    %eax,-0x1c(%ebp)
 8049bcf:	83 ec 0c             	sub    $0xc,%esp
 8049bd2:	ff 75 d4             	pushl  -0x2c(%ebp)
 8049bd5:	e8 ca f8 ff ff       	call   80494a4 <ensure>
 8049bda:	83 c4 10             	add    $0x10,%esp
 8049bdd:	89 45 b4             	mov    %eax,-0x4c(%ebp)
 8049be0:	8b 55 b4             	mov    -0x4c(%ebp),%edx
 8049be3:	8b 45 e4             	mov    -0x1c(%ebp),%eax
 8049be6:	83 ec 04             	sub    $0x4,%esp
 8049be9:	52                   	push   %edx
 8049bea:	50                   	push   %eax
 8049beb:	68 1d 5b 05 08       	push   $0x8055b1d
 8049bf0:	e8 d7 f1 ff ff       	call   8048dcc <printMips>
 8049bf5:	83 c4 10             	add    $0x10,%esp
 8049bf8:	83 ec 0c             	sub    $0xc,%esp
 8049bfb:	ff 75 b4             	pushl  -0x4c(%ebp)
 8049bfe:	e8 64 f6 ff ff       	call   8049267 <free_cReg>
 8049c03:	83 c4 10             	add    $0x10,%esp
 8049c06:	e9 f4 06 00 00       	jmp    804a2ff <generate_mips+0xa0b>
 8049c0b:	8b 45 d0             	mov    -0x30(%ebp),%eax
 8049c0e:	8b 00                	mov    (%eax),%eax
 8049c10:	83 f8 06             	cmp    $0x6,%eax
 8049c13:	0f 85 81 00 00 00    	jne    8049c9a <generate_mips+0x3a6>
 8049c19:	83 ec 0c             	sub    $0xc,%esp
 8049c1c:	6a 00                	push   $0x0
 8049c1e:	e8 f9 f6 ff ff       	call   804931c <alloc_reg>
 8049c23:	83 c4 10             	add    $0x10,%esp
 8049c26:	89 45 e4             	mov    %eax,-0x1c(%ebp)
 8049c29:	83 ec 0c             	sub    $0xc,%esp
 8049c2c:	ff 75 d4             	pushl  -0x2c(%ebp)
 8049c2f:	e8 70 f8 ff ff       	call   80494a4 <ensure>
 8049c34:	83 c4 10             	add    $0x10,%esp
 8049c37:	89 45 b4             	mov    %eax,-0x4c(%ebp)
 8049c3a:	83 ec 0c             	sub    $0xc,%esp
 8049c3d:	ff 75 d8             	pushl  -0x28(%ebp)
 8049c40:	e8 5f f8 ff ff       	call   80494a4 <ensure>
 8049c45:	83 c4 10             	add    $0x10,%esp
 8049c48:	89 45 b8             	mov    %eax,-0x48(%ebp)
 8049c4b:	8b 4d b8             	mov    -0x48(%ebp),%ecx
 8049c4e:	8b 55 b4             	mov    -0x4c(%ebp),%edx
 8049c51:	8b 45 e4             	mov    -0x1c(%ebp),%eax
 8049c54:	51                   	push   %ecx
 8049c55:	52                   	push   %edx
 8049c56:	50                   	push   %eax
 8049c57:	68 2b 5b 05 08       	push   $0x8055b2b
 8049c5c:	e8 6b f1 ff ff       	call   8048dcc <printMips>
 8049c61:	83 c4 10             	add    $0x10,%esp
 8049c64:	8b 45 d0             	mov    -0x30(%ebp),%eax
 8049c67:	8b 40 04             	mov    0x4(%eax),%eax
 8049c6a:	83 ec 0c             	sub    $0xc,%esp
 8049c6d:	50                   	push   %eax
 8049c6e:	e8 31 f8 ff ff       	call   80494a4 <ensure>
 8049c73:	83 c4 10             	add    $0x10,%esp
 8049c76:	89 45 e8             	mov    %eax,-0x18(%ebp)
 8049c79:	83 ec 08             	sub    $0x8,%esp
 8049c7c:	ff 75 e4             	pushl  -0x1c(%ebp)
 8049c7f:	ff 75 e8             	pushl  -0x18(%ebp)
 8049c82:	e8 55 fa ff ff       	call   80496dc <ensure_lDeref>
 8049c87:	83 c4 10             	add    $0x10,%esp
 8049c8a:	83 ec 0c             	sub    $0xc,%esp
 8049c8d:	ff 75 e4             	pushl  -0x1c(%ebp)
 8049c90:	e8 d2 f5 ff ff       	call   8049267 <free_cReg>
 8049c95:	83 c4 10             	add    $0x10,%esp
 8049c98:	eb 4c                	jmp    8049ce6 <generate_mips+0x3f2>
 8049c9a:	83 ec 0c             	sub    $0xc,%esp
 8049c9d:	ff 75 d0             	pushl  -0x30(%ebp)
 8049ca0:	e8 ff f7 ff ff       	call   80494a4 <ensure>
 8049ca5:	83 c4 10             	add    $0x10,%esp
 8049ca8:	89 45 e4             	mov    %eax,-0x1c(%ebp)
 8049cab:	83 ec 0c             	sub    $0xc,%esp
 8049cae:	ff 75 d4             	pushl  -0x2c(%ebp)
 8049cb1:	e8 ee f7 ff ff       	call   80494a4 <ensure>
 8049cb6:	83 c4 10             	add    $0x10,%esp
 8049cb9:	89 45 b4             	mov    %eax,-0x4c(%ebp)
 8049cbc:	83 ec 0c             	sub    $0xc,%esp
 8049cbf:	ff 75 d8             	pushl  -0x28(%ebp)
 8049cc2:	e8 dd f7 ff ff       	call   80494a4 <ensure>
 8049cc7:	83 c4 10             	add    $0x10,%esp
 8049cca:	89 45 b8             	mov    %eax,-0x48(%ebp)
 8049ccd:	8b 4d b8             	mov    -0x48(%ebp),%ecx
 8049cd0:	8b 55 b4             	mov    -0x4c(%ebp),%edx
 8049cd3:	8b 45 e4             	mov    -0x1c(%ebp),%eax
 8049cd6:	51                   	push   %ecx
 8049cd7:	52                   	push   %edx
 8049cd8:	50                   	push   %eax
 8049cd9:	68 2b 5b 05 08       	push   $0x8055b2b
 8049cde:	e8 e9 f0 ff ff       	call   8048dcc <printMips>
 8049ce3:	83 c4 10             	add    $0x10,%esp
 8049ce6:	83 ec 0c             	sub    $0xc,%esp
 8049ce9:	ff 75 b4             	pushl  -0x4c(%ebp)
 8049cec:	e8 76 f5 ff ff       	call   8049267 <free_cReg>
 8049cf1:	83 c4 10             	add    $0x10,%esp
 8049cf4:	83 ec 0c             	sub    $0xc,%esp
 8049cf7:	ff 75 b8             	pushl  -0x48(%ebp)
 8049cfa:	e8 68 f5 ff ff       	call   8049267 <free_cReg>
 8049cff:	83 c4 10             	add    $0x10,%esp
 8049d02:	e9 f8 05 00 00       	jmp    804a2ff <generate_mips+0xa0b>
 8049d07:	83 ec 0c             	sub    $0xc,%esp
 8049d0a:	ff 75 d0             	pushl  -0x30(%ebp)
 8049d0d:	e8 92 f7 ff ff       	call   80494a4 <ensure>
 8049d12:	83 c4 10             	add    $0x10,%esp
 8049d15:	89 45 e4             	mov    %eax,-0x1c(%ebp)
 8049d18:	83 ec 0c             	sub    $0xc,%esp
 8049d1b:	ff 75 d4             	pushl  -0x2c(%ebp)
 8049d1e:	e8 81 f7 ff ff       	call   80494a4 <ensure>
 8049d23:	83 c4 10             	add    $0x10,%esp
 8049d26:	89 45 b4             	mov    %eax,-0x4c(%ebp)
 8049d29:	83 ec 0c             	sub    $0xc,%esp
 8049d2c:	ff 75 d8             	pushl  -0x28(%ebp)
 8049d2f:	e8 70 f7 ff ff       	call   80494a4 <ensure>
 8049d34:	83 c4 10             	add    $0x10,%esp
 8049d37:	89 45 b8             	mov    %eax,-0x48(%ebp)
 8049d3a:	8b 4d b8             	mov    -0x48(%ebp),%ecx
 8049d3d:	8b 55 b4             	mov    -0x4c(%ebp),%edx
 8049d40:	8b 45 e4             	mov    -0x1c(%ebp),%eax
 8049d43:	51                   	push   %ecx
 8049d44:	52                   	push   %edx
 8049d45:	50                   	push   %eax
 8049d46:	68 3c 5b 05 08       	push   $0x8055b3c
 8049d4b:	e8 7c f0 ff ff       	call   8048dcc <printMips>
 8049d50:	83 c4 10             	add    $0x10,%esp
 8049d53:	83 ec 0c             	sub    $0xc,%esp
 8049d56:	ff 75 b4             	pushl  -0x4c(%ebp)
 8049d59:	e8 09 f5 ff ff       	call   8049267 <free_cReg>
 8049d5e:	83 c4 10             	add    $0x10,%esp
 8049d61:	83 ec 0c             	sub    $0xc,%esp
 8049d64:	ff 75 b8             	pushl  -0x48(%ebp)
 8049d67:	e8 fb f4 ff ff       	call   8049267 <free_cReg>
 8049d6c:	83 c4 10             	add    $0x10,%esp
 8049d6f:	e9 8b 05 00 00       	jmp    804a2ff <generate_mips+0xa0b>
 8049d74:	83 ec 0c             	sub    $0xc,%esp
 8049d77:	ff 75 d0             	pushl  -0x30(%ebp)
 8049d7a:	e8 25 f7 ff ff       	call   80494a4 <ensure>
 8049d7f:	83 c4 10             	add    $0x10,%esp
 8049d82:	89 45 e4             	mov    %eax,-0x1c(%ebp)
 8049d85:	83 ec 0c             	sub    $0xc,%esp
 8049d88:	ff 75 d4             	pushl  -0x2c(%ebp)
 8049d8b:	e8 14 f7 ff ff       	call   80494a4 <ensure>
 8049d90:	83 c4 10             	add    $0x10,%esp
 8049d93:	89 45 b4             	mov    %eax,-0x4c(%ebp)
 8049d96:	83 ec 0c             	sub    $0xc,%esp
 8049d99:	ff 75 d8             	pushl  -0x28(%ebp)
 8049d9c:	e8 03 f7 ff ff       	call   80494a4 <ensure>
 8049da1:	83 c4 10             	add    $0x10,%esp
 8049da4:	89 45 b8             	mov    %eax,-0x48(%ebp)
 8049da7:	8b 4d b8             	mov    -0x48(%ebp),%ecx
 8049daa:	8b 55 b4             	mov    -0x4c(%ebp),%edx
 8049dad:	8b 45 e4             	mov    -0x1c(%ebp),%eax
 8049db0:	51                   	push   %ecx
 8049db1:	52                   	push   %edx
 8049db2:	50                   	push   %eax
 8049db3:	68 4d 5b 05 08       	push   $0x8055b4d
 8049db8:	e8 0f f0 ff ff       	call   8048dcc <printMips>
 8049dbd:	83 c4 10             	add    $0x10,%esp
 8049dc0:	83 ec 0c             	sub    $0xc,%esp
 8049dc3:	ff 75 b4             	pushl  -0x4c(%ebp)
 8049dc6:	e8 9c f4 ff ff       	call   8049267 <free_cReg>
 8049dcb:	83 c4 10             	add    $0x10,%esp
 8049dce:	83 ec 0c             	sub    $0xc,%esp
 8049dd1:	ff 75 b8             	pushl  -0x48(%ebp)
 8049dd4:	e8 8e f4 ff ff       	call   8049267 <free_cReg>
 8049dd9:	83 c4 10             	add    $0x10,%esp
 8049ddc:	e9 1e 05 00 00       	jmp    804a2ff <generate_mips+0xa0b>
 8049de1:	83 ec 0c             	sub    $0xc,%esp
 8049de4:	ff 75 d0             	pushl  -0x30(%ebp)
 8049de7:	e8 b8 f6 ff ff       	call   80494a4 <ensure>
 8049dec:	83 c4 10             	add    $0x10,%esp
 8049def:	89 45 e4             	mov    %eax,-0x1c(%ebp)
 8049df2:	83 ec 0c             	sub    $0xc,%esp
 8049df5:	ff 75 d4             	pushl  -0x2c(%ebp)
 8049df8:	e8 a7 f6 ff ff       	call   80494a4 <ensure>
 8049dfd:	83 c4 10             	add    $0x10,%esp
 8049e00:	89 45 b4             	mov    %eax,-0x4c(%ebp)
 8049e03:	83 ec 0c             	sub    $0xc,%esp
 8049e06:	ff 75 d8             	pushl  -0x28(%ebp)
 8049e09:	e8 96 f6 ff ff       	call   80494a4 <ensure>
 8049e0e:	83 c4 10             	add    $0x10,%esp
 8049e11:	89 45 b8             	mov    %eax,-0x48(%ebp)
 8049e14:	8b 55 b8             	mov    -0x48(%ebp),%edx
 8049e17:	8b 45 b4             	mov    -0x4c(%ebp),%eax
 8049e1a:	83 ec 04             	sub    $0x4,%esp
 8049e1d:	52                   	push   %edx
 8049e1e:	50                   	push   %eax
 8049e1f:	68 5e 5b 05 08       	push   $0x8055b5e
 8049e24:	e8 a3 ef ff ff       	call   8048dcc <printMips>
 8049e29:	83 c4 10             	add    $0x10,%esp
 8049e2c:	8b 45 e4             	mov    -0x1c(%ebp),%eax
 8049e2f:	83 ec 08             	sub    $0x8,%esp
 8049e32:	50                   	push   %eax
 8049e33:	68 6b 5b 05 08       	push   $0x8055b6b
 8049e38:	e8 8f ef ff ff       	call   8048dcc <printMips>
 8049e3d:	83 c4 10             	add    $0x10,%esp
 8049e40:	83 ec 0c             	sub    $0xc,%esp
 8049e43:	ff 75 b4             	pushl  -0x4c(%ebp)
 8049e46:	e8 1c f4 ff ff       	call   8049267 <free_cReg>
 8049e4b:	83 c4 10             	add    $0x10,%esp
 8049e4e:	83 ec 0c             	sub    $0xc,%esp
 8049e51:	ff 75 b8             	pushl  -0x48(%ebp)
 8049e54:	e8 0e f4 ff ff       	call   8049267 <free_cReg>
 8049e59:	83 c4 10             	add    $0x10,%esp
 8049e5c:	e9 9e 04 00 00       	jmp    804a2ff <generate_mips+0xa0b>
 8049e61:	e8 9e f3 ff ff       	call   8049204 <spill_allReg>
 8049e66:	8b 45 d4             	mov    -0x2c(%ebp),%eax
 8049e69:	8b 40 04             	mov    0x4(%eax),%eax
 8049e6c:	83 ec 08             	sub    $0x8,%esp
 8049e6f:	50                   	push   %eax
 8049e70:	68 75 5b 05 08       	push   $0x8055b75
 8049e75:	e8 52 ef ff ff       	call   8048dcc <printMips>
 8049e7a:	83 c4 10             	add    $0x10,%esp
 8049e7d:	e9 7d 04 00 00       	jmp    804a2ff <generate_mips+0xa0b>
 8049e82:	e8 7d f3 ff ff       	call   8049204 <spill_allReg>
 8049e87:	8b 45 d4             	mov    -0x2c(%ebp),%eax
 8049e8a:	8b 40 04             	mov    0x4(%eax),%eax
 8049e8d:	83 ec 08             	sub    $0x8,%esp
 8049e90:	50                   	push   %eax
 8049e91:	68 7e 5b 05 08       	push   $0x8055b7e
 8049e96:	e8 31 ef ff ff       	call   8048dcc <printMips>
 8049e9b:	83 c4 10             	add    $0x10,%esp
 8049e9e:	e9 5c 04 00 00       	jmp    804a2ff <generate_mips+0xa0b>
 8049ea3:	e8 5c f3 ff ff       	call   8049204 <spill_allReg>
 8049ea8:	83 ec 0c             	sub    $0xc,%esp
 8049eab:	ff 75 d4             	pushl  -0x2c(%ebp)
 8049eae:	e8 f1 f5 ff ff       	call   80494a4 <ensure>
 8049eb3:	83 c4 10             	add    $0x10,%esp
 8049eb6:	89 45 e4             	mov    %eax,-0x1c(%ebp)
 8049eb9:	83 ec 0c             	sub    $0xc,%esp
 8049ebc:	ff 75 d8             	pushl  -0x28(%ebp)
 8049ebf:	e8 e0 f5 ff ff       	call   80494a4 <ensure>
 8049ec4:	83 c4 10             	add    $0x10,%esp
 8049ec7:	89 45 b4             	mov    %eax,-0x4c(%ebp)
 8049eca:	8b 45 d0             	mov    -0x30(%ebp),%eax
 8049ecd:	8b 48 04             	mov    0x4(%eax),%ecx
 8049ed0:	8b 55 b4             	mov    -0x4c(%ebp),%edx
 8049ed3:	8b 45 e4             	mov    -0x1c(%ebp),%eax
 8049ed6:	51                   	push   %ecx
 8049ed7:	52                   	push   %edx
 8049ed8:	50                   	push   %eax
 8049ed9:	68 8a 5b 05 08       	push   $0x8055b8a
 8049ede:	e8 e9 ee ff ff       	call   8048dcc <printMips>
 8049ee3:	83 c4 10             	add    $0x10,%esp
 8049ee6:	e9 14 04 00 00       	jmp    804a2ff <generate_mips+0xa0b>
 8049eeb:	e8 14 f3 ff ff       	call   8049204 <spill_allReg>
 8049ef0:	83 ec 0c             	sub    $0xc,%esp
 8049ef3:	ff 75 d4             	pushl  -0x2c(%ebp)
 8049ef6:	e8 a9 f5 ff ff       	call   80494a4 <ensure>
 8049efb:	83 c4 10             	add    $0x10,%esp
 8049efe:	89 45 e4             	mov    %eax,-0x1c(%ebp)
 8049f01:	83 ec 0c             	sub    $0xc,%esp
 8049f04:	ff 75 d8             	pushl  -0x28(%ebp)
 8049f07:	e8 98 f5 ff ff       	call   80494a4 <ensure>
 8049f0c:	83 c4 10             	add    $0x10,%esp
 8049f0f:	89 45 b4             	mov    %eax,-0x4c(%ebp)
 8049f12:	8b 45 d0             	mov    -0x30(%ebp),%eax
 8049f15:	8b 48 04             	mov    0x4(%eax),%ecx
 8049f18:	8b 55 b4             	mov    -0x4c(%ebp),%edx
 8049f1b:	8b 45 e4             	mov    -0x1c(%ebp),%eax
 8049f1e:	51                   	push   %ecx
 8049f1f:	52                   	push   %edx
 8049f20:	50                   	push   %eax
 8049f21:	68 a0 5b 05 08       	push   $0x8055ba0
 8049f26:	e8 a1 ee ff ff       	call   8048dcc <printMips>
 8049f2b:	83 c4 10             	add    $0x10,%esp
 8049f2e:	83 ec 0c             	sub    $0xc,%esp
 8049f31:	ff 75 e4             	pushl  -0x1c(%ebp)
 8049f34:	e8 2e f3 ff ff       	call   8049267 <free_cReg>
 8049f39:	83 c4 10             	add    $0x10,%esp
 8049f3c:	83 ec 0c             	sub    $0xc,%esp
 8049f3f:	ff 75 b4             	pushl  -0x4c(%ebp)
 8049f42:	e8 20 f3 ff ff       	call   8049267 <free_cReg>
 8049f47:	83 c4 10             	add    $0x10,%esp
 8049f4a:	e9 b0 03 00 00       	jmp    804a2ff <generate_mips+0xa0b>
 8049f4f:	e8 b0 f2 ff ff       	call   8049204 <spill_allReg>
 8049f54:	83 ec 0c             	sub    $0xc,%esp
 8049f57:	ff 75 d4             	pushl  -0x2c(%ebp)
 8049f5a:	e8 45 f5 ff ff       	call   80494a4 <ensure>
 8049f5f:	83 c4 10             	add    $0x10,%esp
 8049f62:	89 45 e4             	mov    %eax,-0x1c(%ebp)
 8049f65:	83 ec 0c             	sub    $0xc,%esp
 8049f68:	ff 75 d8             	pushl  -0x28(%ebp)
 8049f6b:	e8 34 f5 ff ff       	call   80494a4 <ensure>
 8049f70:	83 c4 10             	add    $0x10,%esp
 8049f73:	89 45 b4             	mov    %eax,-0x4c(%ebp)
 8049f76:	8b 45 d0             	mov    -0x30(%ebp),%eax
 8049f79:	8b 48 04             	mov    0x4(%eax),%ecx
 8049f7c:	8b 55 b4             	mov    -0x4c(%ebp),%edx
 8049f7f:	8b 45 e4             	mov    -0x1c(%ebp),%eax
 8049f82:	51                   	push   %ecx
 8049f83:	52                   	push   %edx
 8049f84:	50                   	push   %eax
 8049f85:	68 b6 5b 05 08       	push   $0x8055bb6
 8049f8a:	e8 3d ee ff ff       	call   8048dcc <printMips>
 8049f8f:	83 c4 10             	add    $0x10,%esp
 8049f92:	83 ec 0c             	sub    $0xc,%esp
 8049f95:	ff 75 e4             	pushl  -0x1c(%ebp)
 8049f98:	e8 ca f2 ff ff       	call   8049267 <free_cReg>
 8049f9d:	83 c4 10             	add    $0x10,%esp
 8049fa0:	83 ec 0c             	sub    $0xc,%esp
 8049fa3:	ff 75 b4             	pushl  -0x4c(%ebp)
 8049fa6:	e8 bc f2 ff ff       	call   8049267 <free_cReg>
 8049fab:	83 c4 10             	add    $0x10,%esp
 8049fae:	e9 4c 03 00 00       	jmp    804a2ff <generate_mips+0xa0b>
 8049fb3:	e8 4c f2 ff ff       	call   8049204 <spill_allReg>
 8049fb8:	83 ec 0c             	sub    $0xc,%esp
 8049fbb:	ff 75 d4             	pushl  -0x2c(%ebp)
 8049fbe:	e8 e1 f4 ff ff       	call   80494a4 <ensure>
 8049fc3:	83 c4 10             	add    $0x10,%esp
 8049fc6:	89 45 e4             	mov    %eax,-0x1c(%ebp)
 8049fc9:	83 ec 0c             	sub    $0xc,%esp
 8049fcc:	ff 75 d8             	pushl  -0x28(%ebp)
 8049fcf:	e8 d0 f4 ff ff       	call   80494a4 <ensure>
 8049fd4:	83 c4 10             	add    $0x10,%esp
 8049fd7:	89 45 b4             	mov    %eax,-0x4c(%ebp)
 8049fda:	8b 45 d0             	mov    -0x30(%ebp),%eax
 8049fdd:	8b 48 04             	mov    0x4(%eax),%ecx
 8049fe0:	8b 55 b4             	mov    -0x4c(%ebp),%edx
 8049fe3:	8b 45 e4             	mov    -0x1c(%ebp),%eax
 8049fe6:	51                   	push   %ecx
 8049fe7:	52                   	push   %edx
 8049fe8:	50                   	push   %eax
 8049fe9:	68 cc 5b 05 08       	push   $0x8055bcc
 8049fee:	e8 d9 ed ff ff       	call   8048dcc <printMips>
 8049ff3:	83 c4 10             	add    $0x10,%esp
 8049ff6:	83 ec 0c             	sub    $0xc,%esp
 8049ff9:	ff 75 e4             	pushl  -0x1c(%ebp)
 8049ffc:	e8 66 f2 ff ff       	call   8049267 <free_cReg>
 804a001:	83 c4 10             	add    $0x10,%esp
 804a004:	83 ec 0c             	sub    $0xc,%esp
 804a007:	ff 75 b4             	pushl  -0x4c(%ebp)
 804a00a:	e8 58 f2 ff ff       	call   8049267 <free_cReg>
 804a00f:	83 c4 10             	add    $0x10,%esp
 804a012:	e9 e8 02 00 00       	jmp    804a2ff <generate_mips+0xa0b>
 804a017:	e8 e8 f1 ff ff       	call   8049204 <spill_allReg>
 804a01c:	83 ec 0c             	sub    $0xc,%esp
 804a01f:	ff 75 d4             	pushl  -0x2c(%ebp)
 804a022:	e8 7d f4 ff ff       	call   80494a4 <ensure>
 804a027:	83 c4 10             	add    $0x10,%esp
 804a02a:	89 45 e4             	mov    %eax,-0x1c(%ebp)
 804a02d:	83 ec 0c             	sub    $0xc,%esp
 804a030:	ff 75 d8             	pushl  -0x28(%ebp)
 804a033:	e8 6c f4 ff ff       	call   80494a4 <ensure>
 804a038:	83 c4 10             	add    $0x10,%esp
 804a03b:	89 45 b4             	mov    %eax,-0x4c(%ebp)
 804a03e:	8b 45 d0             	mov    -0x30(%ebp),%eax
 804a041:	8b 48 04             	mov    0x4(%eax),%ecx
 804a044:	8b 55 b4             	mov    -0x4c(%ebp),%edx
 804a047:	8b 45 e4             	mov    -0x1c(%ebp),%eax
 804a04a:	51                   	push   %ecx
 804a04b:	52                   	push   %edx
 804a04c:	50                   	push   %eax
 804a04d:	68 e2 5b 05 08       	push   $0x8055be2
 804a052:	e8 75 ed ff ff       	call   8048dcc <printMips>
 804a057:	83 c4 10             	add    $0x10,%esp
 804a05a:	83 ec 0c             	sub    $0xc,%esp
 804a05d:	ff 75 e4             	pushl  -0x1c(%ebp)
 804a060:	e8 02 f2 ff ff       	call   8049267 <free_cReg>
 804a065:	83 c4 10             	add    $0x10,%esp
 804a068:	83 ec 0c             	sub    $0xc,%esp
 804a06b:	ff 75 b4             	pushl  -0x4c(%ebp)
 804a06e:	e8 f4 f1 ff ff       	call   8049267 <free_cReg>
 804a073:	83 c4 10             	add    $0x10,%esp
 804a076:	e9 84 02 00 00       	jmp    804a2ff <generate_mips+0xa0b>
 804a07b:	e8 84 f1 ff ff       	call   8049204 <spill_allReg>
 804a080:	83 ec 0c             	sub    $0xc,%esp
 804a083:	ff 75 d4             	pushl  -0x2c(%ebp)
 804a086:	e8 19 f4 ff ff       	call   80494a4 <ensure>
 804a08b:	83 c4 10             	add    $0x10,%esp
 804a08e:	89 45 e4             	mov    %eax,-0x1c(%ebp)
 804a091:	83 ec 0c             	sub    $0xc,%esp
 804a094:	ff 75 d8             	pushl  -0x28(%ebp)
 804a097:	e8 08 f4 ff ff       	call   80494a4 <ensure>
 804a09c:	83 c4 10             	add    $0x10,%esp
 804a09f:	89 45 b4             	mov    %eax,-0x4c(%ebp)
 804a0a2:	8b 45 d0             	mov    -0x30(%ebp),%eax
 804a0a5:	8b 48 04             	mov    0x4(%eax),%ecx
 804a0a8:	8b 55 b4             	mov    -0x4c(%ebp),%edx
 804a0ab:	8b 45 e4             	mov    -0x1c(%ebp),%eax
 804a0ae:	51                   	push   %ecx
 804a0af:	52                   	push   %edx
 804a0b0:	50                   	push   %eax
 804a0b1:	68 f8 5b 05 08       	push   $0x8055bf8
 804a0b6:	e8 11 ed ff ff       	call   8048dcc <printMips>
 804a0bb:	83 c4 10             	add    $0x10,%esp
 804a0be:	83 ec 0c             	sub    $0xc,%esp
 804a0c1:	ff 75 e4             	pushl  -0x1c(%ebp)
 804a0c4:	e8 9e f1 ff ff       	call   8049267 <free_cReg>
 804a0c9:	83 c4 10             	add    $0x10,%esp
 804a0cc:	83 ec 0c             	sub    $0xc,%esp
 804a0cf:	ff 75 b4             	pushl  -0x4c(%ebp)
 804a0d2:	e8 90 f1 ff ff       	call   8049267 <free_cReg>
 804a0d7:	83 c4 10             	add    $0x10,%esp
 804a0da:	e9 20 02 00 00       	jmp    804a2ff <generate_mips+0xa0b>
 804a0df:	c7 45 c8 00 00 00 00 	movl   $0x0,-0x38(%ebp)
 804a0e6:	8b 45 bc             	mov    -0x44(%ebp),%eax
 804a0e9:	8b 40 10             	mov    0x10(%eax),%eax
 804a0ec:	89 45 c0             	mov    %eax,-0x40(%ebp)
 804a0ef:	eb 0d                	jmp    804a0fe <generate_mips+0x80a>
 804a0f1:	83 45 c8 01          	addl   $0x1,-0x38(%ebp)
 804a0f5:	8b 45 c0             	mov    -0x40(%ebp),%eax
 804a0f8:	8b 40 14             	mov    0x14(%eax),%eax
 804a0fb:	89 45 c0             	mov    %eax,-0x40(%ebp)
 804a0fe:	83 7d c0 00          	cmpl   $0x0,-0x40(%ebp)
 804a102:	74 0a                	je     804a10e <generate_mips+0x81a>
 804a104:	8b 45 c0             	mov    -0x40(%ebp),%eax
 804a107:	8b 00                	mov    (%eax),%eax
 804a109:	83 f8 0d             	cmp    $0xd,%eax
 804a10c:	74 e3                	je     804a0f1 <generate_mips+0x7fd>
 804a10e:	c7 45 c4 00 00 00 00 	movl   $0x0,-0x3c(%ebp)
 804a115:	8b 45 bc             	mov    -0x44(%ebp),%eax
 804a118:	8b 40 10             	mov    0x10(%eax),%eax
 804a11b:	89 45 c0             	mov    %eax,-0x40(%ebp)
 804a11e:	e9 c6 00 00 00       	jmp    804a1e9 <generate_mips+0x8f5>
 804a123:	83 7d c4 03          	cmpl   $0x3,-0x3c(%ebp)
 804a127:	7f 31                	jg     804a15a <generate_mips+0x866>
 804a129:	8b 45 c0             	mov    -0x40(%ebp),%eax
 804a12c:	8b 40 08             	mov    0x8(%eax),%eax
 804a12f:	83 ec 0c             	sub    $0xc,%esp
 804a132:	50                   	push   %eax
 804a133:	e8 6c f3 ff ff       	call   80494a4 <ensure>
 804a138:	83 c4 10             	add    $0x10,%esp
 804a13b:	89 45 ec             	mov    %eax,-0x14(%ebp)
 804a13e:	8b 45 ec             	mov    -0x14(%ebp),%eax
 804a141:	83 ec 04             	sub    $0x4,%esp
 804a144:	50                   	push   %eax
 804a145:	ff 75 c4             	pushl  -0x3c(%ebp)
 804a148:	68 0e 5c 05 08       	push   $0x8055c0e
 804a14d:	e8 7a ec ff ff       	call   8048dcc <printMips>
 804a152:	83 c4 10             	add    $0x10,%esp
 804a155:	e9 82 00 00 00       	jmp    804a1dc <generate_mips+0x8e8>
 804a15a:	83 7d c4 04          	cmpl   $0x4,-0x3c(%ebp)
 804a15e:	75 45                	jne    804a1a5 <generate_mips+0x8b1>
 804a160:	8b 45 c8             	mov    -0x38(%ebp),%eax
 804a163:	83 e8 03             	sub    $0x3,%eax
 804a166:	c1 e0 02             	shl    $0x2,%eax
 804a169:	83 ec 08             	sub    $0x8,%esp
 804a16c:	50                   	push   %eax
 804a16d:	68 20 5c 05 08       	push   $0x8055c20
 804a172:	e8 55 ec ff ff       	call   8048dcc <printMips>
 804a177:	83 c4 10             	add    $0x10,%esp
 804a17a:	8b 45 c0             	mov    -0x40(%ebp),%eax
 804a17d:	8b 40 08             	mov    0x8(%eax),%eax
 804a180:	83 ec 0c             	sub    $0xc,%esp
 804a183:	50                   	push   %eax
 804a184:	e8 1b f3 ff ff       	call   80494a4 <ensure>
 804a189:	83 c4 10             	add    $0x10,%esp
 804a18c:	89 45 f0             	mov    %eax,-0x10(%ebp)
 804a18f:	8b 45 f0             	mov    -0x10(%ebp),%eax
 804a192:	83 ec 08             	sub    $0x8,%esp
 804a195:	50                   	push   %eax
 804a196:	68 46 5c 05 08       	push   $0x8055c46
 804a19b:	e8 2c ec ff ff       	call   8048dcc <printMips>
 804a1a0:	83 c4 10             	add    $0x10,%esp
 804a1a3:	eb 37                	jmp    804a1dc <generate_mips+0x8e8>
 804a1a5:	8b 45 c0             	mov    -0x40(%ebp),%eax
 804a1a8:	8b 40 08             	mov    0x8(%eax),%eax
 804a1ab:	83 ec 0c             	sub    $0xc,%esp
 804a1ae:	50                   	push   %eax
 804a1af:	e8 f0 f2 ff ff       	call   80494a4 <ensure>
 804a1b4:	83 c4 10             	add    $0x10,%esp
 804a1b7:	89 45 f4             	mov    %eax,-0xc(%ebp)
 804a1ba:	8b 45 c4             	mov    -0x3c(%ebp),%eax
 804a1bd:	83 e8 04             	sub    $0x4,%eax
 804a1c0:	8d 14 85 00 00 00 00 	lea    0x0(,%eax,4),%edx
 804a1c7:	8b 45 f4             	mov    -0xc(%ebp),%eax
 804a1ca:	83 ec 04             	sub    $0x4,%esp
 804a1cd:	52                   	push   %edx
 804a1ce:	50                   	push   %eax
 804a1cf:	68 56 5c 05 08       	push   $0x8055c56
 804a1d4:	e8 f3 eb ff ff       	call   8048dcc <printMips>
 804a1d9:	83 c4 10             	add    $0x10,%esp
 804a1dc:	8b 45 c0             	mov    -0x40(%ebp),%eax
 804a1df:	8b 40 10             	mov    0x10(%eax),%eax
 804a1e2:	89 45 c0             	mov    %eax,-0x40(%ebp)
 804a1e5:	83 45 c4 01          	addl   $0x1,-0x3c(%ebp)
 804a1e9:	83 7d c0 00          	cmpl   $0x0,-0x40(%ebp)
 804a1ed:	74 0e                	je     804a1fd <generate_mips+0x909>
 804a1ef:	8b 45 c0             	mov    -0x40(%ebp),%eax
 804a1f2:	8b 00                	mov    (%eax),%eax
 804a1f4:	83 f8 0d             	cmp    $0xd,%eax
 804a1f7:	0f 84 26 ff ff ff    	je     804a123 <generate_mips+0x82f>
 804a1fd:	e8 02 f0 ff ff       	call   8049204 <spill_allReg>
 804a202:	83 ec 0c             	sub    $0xc,%esp
 804a205:	68 9f 5a 05 08       	push   $0x8055a9f
 804a20a:	e8 bd eb ff ff       	call   8048dcc <printMips>
 804a20f:	83 c4 10             	add    $0x10,%esp
 804a212:	83 ec 0c             	sub    $0xc,%esp
 804a215:	68 b3 5a 05 08       	push   $0x8055ab3
 804a21a:	e8 ad eb ff ff       	call   8048dcc <printMips>
 804a21f:	83 c4 10             	add    $0x10,%esp
 804a222:	8b 45 d4             	mov    -0x2c(%ebp),%eax
 804a225:	8b 40 04             	mov    0x4(%eax),%eax
 804a228:	83 ec 08             	sub    $0x8,%esp
 804a22b:	50                   	push   %eax
 804a22c:	68 67 5c 05 08       	push   $0x8055c67
 804a231:	e8 96 eb ff ff       	call   8048dcc <printMips>
 804a236:	83 c4 10             	add    $0x10,%esp
 804a239:	83 ec 0c             	sub    $0xc,%esp
 804a23c:	68 d0 5a 05 08       	push   $0x8055ad0
 804a241:	e8 86 eb ff ff       	call   8048dcc <printMips>
 804a246:	83 c4 10             	add    $0x10,%esp
 804a249:	83 ec 0c             	sub    $0xc,%esp
 804a24c:	68 e1 5a 05 08       	push   $0x8055ae1
 804a251:	e8 76 eb ff ff       	call   8048dcc <printMips>
 804a256:	83 c4 10             	add    $0x10,%esp
 804a259:	83 ec 0c             	sub    $0xc,%esp
 804a25c:	ff 75 d0             	pushl  -0x30(%ebp)
 804a25f:	e8 40 f2 ff ff       	call   80494a4 <ensure>
 804a264:	83 c4 10             	add    $0x10,%esp
 804a267:	89 45 e4             	mov    %eax,-0x1c(%ebp)
 804a26a:	8b 45 e4             	mov    -0x1c(%ebp),%eax
 804a26d:	83 ec 08             	sub    $0x8,%esp
 804a270:	50                   	push   %eax
 804a271:	68 ff 5a 05 08       	push   $0x8055aff
 804a276:	e8 51 eb ff ff       	call   8048dcc <printMips>
 804a27b:	83 c4 10             	add    $0x10,%esp
 804a27e:	eb 7f                	jmp    804a2ff <generate_mips+0xa0b>
 804a280:	68 e4 5c 05 08       	push   $0x8055ce4
 804a285:	68 4d 02 00 00       	push   $0x24d
 804a28a:	68 f5 58 05 08       	push   $0x80558f5
 804a28f:	68 fc 58 05 08       	push   $0x80558fc
 804a294:	e8 57 e7 ff ff       	call   80489f0 <__assert_fail@plt>
 804a299:	8b 45 d8             	mov    -0x28(%ebp),%eax
 804a29c:	8b 40 04             	mov    0x4(%eax),%eax
 804a29f:	83 ec 08             	sub    $0x8,%esp
 804a2a2:	50                   	push   %eax
 804a2a3:	ff 75 d4             	pushl  -0x2c(%ebp)
 804a2a6:	e8 30 ee ff ff       	call   80490db <alloc_array>
 804a2ab:	83 c4 10             	add    $0x10,%esp
 804a2ae:	eb 4f                	jmp    804a2ff <generate_mips+0xa0b>
 804a2b0:	68 e4 5c 05 08       	push   $0x8055ce4
 804a2b5:	68 57 02 00 00       	push   $0x257
 804a2ba:	68 f5 58 05 08       	push   $0x80558f5
 804a2bf:	68 fc 58 05 08       	push   $0x80558fc
 804a2c4:	e8 27 e7 ff ff       	call   80489f0 <__assert_fail@plt>
 804a2c9:	68 e4 5c 05 08       	push   $0x8055ce4
 804a2ce:	68 5e 02 00 00       	push   $0x25e
 804a2d3:	68 f5 58 05 08       	push   $0x80558f5
 804a2d8:	68 fc 58 05 08       	push   $0x80558fc
 804a2dd:	e8 0e e7 ff ff       	call   80489f0 <__assert_fail@plt>
 804a2e2:	68 e4 5c 05 08       	push   $0x8055ce4
 804a2e7:	68 60 02 00 00       	push   $0x260
 804a2ec:	68 f5 58 05 08       	push   $0x80558f5
 804a2f1:	68 fc 58 05 08       	push   $0x80558fc
 804a2f6:	e8 f5 e6 ff ff       	call   80489f0 <__assert_fail@plt>
 804a2fb:	90                   	nop
 804a2fc:	eb 01                	jmp    804a2ff <generate_mips+0xa0b>
 804a2fe:	90                   	nop
 804a2ff:	8b 45 bc             	mov    -0x44(%ebp),%eax
 804a302:	8b 40 14             	mov    0x14(%eax),%eax
 804a305:	89 45 bc             	mov    %eax,-0x44(%ebp)
 804a308:	83 7d bc 00          	cmpl   $0x0,-0x44(%ebp)
 804a30c:	0f 85 23 f6 ff ff    	jne    8049935 <generate_mips+0x41>
 804a312:	90                   	nop
 804a313:	c9                   	leave  
 804a314:	c3                   	ret    

0804a315 <sematicCheck>:
 804a315:	55                   	push   %ebp
 804a316:	89 e5                	mov    %esp,%ebp
 804a318:	83 ec 08             	sub    $0x8,%esp
 804a31b:	83 ec 0c             	sub    $0xc,%esp
 804a31e:	ff 75 08             	pushl  0x8(%ebp)
 804a321:	e8 0b 00 00 00       	call   804a331 <Program>
 804a326:	83 c4 10             	add    $0x10,%esp
 804a329:	e8 02 16 00 00       	call   804b930 <checkFunc>
 804a32e:	90                   	nop
 804a32f:	c9                   	leave  
 804a330:	c3                   	ret    

0804a331 <Program>:
 804a331:	55                   	push   %ebp
 804a332:	89 e5                	mov    %esp,%ebp
 804a334:	83 ec 08             	sub    $0x8,%esp
 804a337:	83 7d 08 00          	cmpl   $0x0,0x8(%ebp)
 804a33b:	74 14                	je     804a351 <Program+0x20>
 804a33d:	8b 45 08             	mov    0x8(%ebp),%eax
 804a340:	8b 40 14             	mov    0x14(%eax),%eax
 804a343:	83 ec 0c             	sub    $0xc,%esp
 804a346:	50                   	push   %eax
 804a347:	e8 08 00 00 00       	call   804a354 <ExtDefList>
 804a34c:	83 c4 10             	add    $0x10,%esp
 804a34f:	eb 01                	jmp    804a352 <Program+0x21>
 804a351:	90                   	nop
 804a352:	c9                   	leave  
 804a353:	c3                   	ret    

0804a354 <ExtDefList>:
 804a354:	55                   	push   %ebp
 804a355:	89 e5                	mov    %esp,%ebp
 804a357:	83 ec 18             	sub    $0x18,%esp
 804a35a:	83 7d 08 00          	cmpl   $0x0,0x8(%ebp)
 804a35e:	74 31                	je     804a391 <ExtDefList+0x3d>
 804a360:	8b 45 08             	mov    0x8(%ebp),%eax
 804a363:	8b 40 14             	mov    0x14(%eax),%eax
 804a366:	89 45 f4             	mov    %eax,-0xc(%ebp)
 804a369:	83 7d f4 00          	cmpl   $0x0,-0xc(%ebp)
 804a36d:	74 23                	je     804a392 <ExtDefList+0x3e>
 804a36f:	83 ec 0c             	sub    $0xc,%esp
 804a372:	ff 75 f4             	pushl  -0xc(%ebp)
 804a375:	e8 1a 00 00 00       	call   804a394 <ExtDef>
 804a37a:	83 c4 10             	add    $0x10,%esp
 804a37d:	8b 45 08             	mov    0x8(%ebp),%eax
 804a380:	8b 40 18             	mov    0x18(%eax),%eax
 804a383:	83 ec 0c             	sub    $0xc,%esp
 804a386:	50                   	push   %eax
 804a387:	e8 c8 ff ff ff       	call   804a354 <ExtDefList>
 804a38c:	83 c4 10             	add    $0x10,%esp
 804a38f:	eb 01                	jmp    804a392 <ExtDefList+0x3e>
 804a391:	90                   	nop
 804a392:	c9                   	leave  
 804a393:	c3                   	ret    

0804a394 <ExtDef>:
 804a394:	55                   	push   %ebp
 804a395:	89 e5                	mov    %esp,%ebp
 804a397:	83 ec 28             	sub    $0x28,%esp
 804a39a:	83 7d 08 00          	cmpl   $0x0,0x8(%ebp)
 804a39e:	0f 84 1a 02 00 00    	je     804a5be <ExtDef+0x22a>
 804a3a4:	8b 45 08             	mov    0x8(%ebp),%eax
 804a3a7:	8b 40 10             	mov    0x10(%eax),%eax
 804a3aa:	83 f8 01             	cmp    $0x1,%eax
 804a3ad:	0f 8e 0e 02 00 00    	jle    804a5c1 <ExtDef+0x22d>
 804a3b3:	8b 45 08             	mov    0x8(%ebp),%eax
 804a3b6:	8b 40 14             	mov    0x14(%eax),%eax
 804a3b9:	89 45 dc             	mov    %eax,-0x24(%ebp)
 804a3bc:	8b 45 08             	mov    0x8(%ebp),%eax
 804a3bf:	8b 40 18             	mov    0x18(%eax),%eax
 804a3c2:	89 45 e0             	mov    %eax,-0x20(%ebp)
 804a3c5:	83 ec 0c             	sub    $0xc,%esp
 804a3c8:	ff 75 dc             	pushl  -0x24(%ebp)
 804a3cb:	e8 7c 02 00 00       	call   804a64c <Specifier>
 804a3d0:	83 c4 10             	add    $0x10,%esp
 804a3d3:	89 45 e4             	mov    %eax,-0x1c(%ebp)
 804a3d6:	8b 45 e0             	mov    -0x20(%ebp),%eax
 804a3d9:	8b 40 04             	mov    0x4(%eax),%eax
 804a3dc:	83 f8 28             	cmp    $0x28,%eax
 804a3df:	0f 85 bb 01 00 00    	jne    804a5a0 <ExtDef+0x20c>
 804a3e5:	8b 45 e0             	mov    -0x20(%ebp),%eax
 804a3e8:	89 45 e8             	mov    %eax,-0x18(%ebp)
 804a3eb:	8b 45 08             	mov    0x8(%ebp),%eax
 804a3ee:	8b 40 1c             	mov    0x1c(%eax),%eax
 804a3f1:	89 45 ec             	mov    %eax,-0x14(%ebp)
 804a3f4:	c7 45 d8 00 00 00 00 	movl   $0x0,-0x28(%ebp)
 804a3fb:	8b 45 08             	mov    0x8(%ebp),%eax
 804a3fe:	8b 40 1c             	mov    0x1c(%eax),%eax
 804a401:	8b 40 04             	mov    0x4(%eax),%eax
 804a404:	83 f8 2b             	cmp    $0x2b,%eax
 804a407:	75 18                	jne    804a421 <ExtDef+0x8d>
 804a409:	83 ec 04             	sub    $0x4,%esp
 804a40c:	6a 01                	push   $0x1
 804a40e:	ff 75 e4             	pushl  -0x1c(%ebp)
 804a411:	ff 75 e8             	pushl  -0x18(%ebp)
 804a414:	e8 73 05 00 00       	call   804a98c <FunDec>
 804a419:	83 c4 10             	add    $0x10,%esp
 804a41c:	89 45 d8             	mov    %eax,-0x28(%ebp)
 804a41f:	eb 16                	jmp    804a437 <ExtDef+0xa3>
 804a421:	83 ec 04             	sub    $0x4,%esp
 804a424:	6a 00                	push   $0x0
 804a426:	ff 75 e4             	pushl  -0x1c(%ebp)
 804a429:	ff 75 e8             	pushl  -0x18(%ebp)
 804a42c:	e8 5b 05 00 00       	call   804a98c <FunDec>
 804a431:	83 c4 10             	add    $0x10,%esp
 804a434:	89 45 d8             	mov    %eax,-0x28(%ebp)
 804a437:	8b 45 08             	mov    0x8(%ebp),%eax
 804a43a:	8b 10                	mov    (%eax),%edx
 804a43c:	8b 45 d8             	mov    -0x28(%ebp),%eax
 804a43f:	89 50 08             	mov    %edx,0x8(%eax)
 804a442:	8b 45 d8             	mov    -0x28(%ebp),%eax
 804a445:	8b 40 04             	mov    0x4(%eax),%eax
 804a448:	83 ec 0c             	sub    $0xc,%esp
 804a44b:	50                   	push   %eax
 804a44c:	e8 00 aa 00 00       	call   8054e51 <searchTable>
 804a451:	83 c4 10             	add    $0x10,%esp
 804a454:	89 45 f0             	mov    %eax,-0x10(%ebp)
 804a457:	83 7d f0 00          	cmpl   $0x0,-0x10(%ebp)
 804a45b:	0f 84 c7 00 00 00    	je     804a528 <ExtDef+0x194>
 804a461:	8b 45 f0             	mov    -0x10(%ebp),%eax
 804a464:	8b 00                	mov    (%eax),%eax
 804a466:	83 f8 01             	cmp    $0x1,%eax
 804a469:	0f 85 fa 00 00 00    	jne    804a569 <ExtDef+0x1d5>
 804a46f:	8b 45 f0             	mov    -0x10(%ebp),%eax
 804a472:	8b 40 0c             	mov    0xc(%eax),%eax
 804a475:	8b 40 08             	mov    0x8(%eax),%eax
 804a478:	83 f8 01             	cmp    $0x1,%eax
 804a47b:	75 3d                	jne    804a4ba <ExtDef+0x126>
 804a47d:	8b 45 d8             	mov    -0x28(%ebp),%eax
 804a480:	8b 40 0c             	mov    0xc(%eax),%eax
 804a483:	8b 40 08             	mov    0x8(%eax),%eax
 804a486:	83 f8 01             	cmp    $0x1,%eax
 804a489:	75 2f                	jne    804a4ba <ExtDef+0x126>
 804a48b:	a1 3c b1 05 08       	mov    0x805b13c,%eax
 804a490:	83 c0 01             	add    $0x1,%eax
 804a493:	a3 3c b1 05 08       	mov    %eax,0x805b13c
 804a498:	8b 45 d8             	mov    -0x28(%ebp),%eax
 804a49b:	8b 50 04             	mov    0x4(%eax),%edx
 804a49e:	8b 45 e8             	mov    -0x18(%ebp),%eax
 804a4a1:	8b 00                	mov    (%eax),%eax
 804a4a3:	83 ec 04             	sub    $0x4,%esp
 804a4a6:	52                   	push   %edx
 804a4a7:	50                   	push   %eax
 804a4a8:	68 f4 5c 05 08       	push   $0x8055cf4
 804a4ad:	e8 2e e3 ff ff       	call   80487e0 <printf@plt>
 804a4b2:	83 c4 10             	add    $0x10,%esp
 804a4b5:	e9 af 00 00 00       	jmp    804a569 <ExtDef+0x1d5>
 804a4ba:	83 ec 08             	sub    $0x8,%esp
 804a4bd:	ff 75 d8             	pushl  -0x28(%ebp)
 804a4c0:	ff 75 f0             	pushl  -0x10(%ebp)
 804a4c3:	e8 69 ae 00 00       	call   8055331 <compareFunction>
 804a4c8:	83 c4 10             	add    $0x10,%esp
 804a4cb:	85 c0                	test   %eax,%eax
 804a4cd:	75 2f                	jne    804a4fe <ExtDef+0x16a>
 804a4cf:	a1 3c b1 05 08       	mov    0x805b13c,%eax
 804a4d4:	83 c0 01             	add    $0x1,%eax
 804a4d7:	a3 3c b1 05 08       	mov    %eax,0x805b13c
 804a4dc:	8b 45 d8             	mov    -0x28(%ebp),%eax
 804a4df:	8b 50 04             	mov    0x4(%eax),%edx
 804a4e2:	8b 45 e8             	mov    -0x18(%ebp),%eax
 804a4e5:	8b 00                	mov    (%eax),%eax
 804a4e7:	83 ec 04             	sub    $0x4,%esp
 804a4ea:	52                   	push   %edx
 804a4eb:	50                   	push   %eax
 804a4ec:	68 28 5d 05 08       	push   $0x8055d28
 804a4f1:	e8 ea e2 ff ff       	call   80487e0 <printf@plt>
 804a4f6:	83 c4 10             	add    $0x10,%esp
 804a4f9:	e9 c4 00 00 00       	jmp    804a5c2 <ExtDef+0x22e>
 804a4fe:	8b 45 f0             	mov    -0x10(%ebp),%eax
 804a501:	8b 40 0c             	mov    0xc(%eax),%eax
 804a504:	8b 40 08             	mov    0x8(%eax),%eax
 804a507:	85 c0                	test   %eax,%eax
 804a509:	75 5e                	jne    804a569 <ExtDef+0x1d5>
 804a50b:	8b 45 d8             	mov    -0x28(%ebp),%eax
 804a50e:	8b 40 0c             	mov    0xc(%eax),%eax
 804a511:	8b 40 08             	mov    0x8(%eax),%eax
 804a514:	83 f8 01             	cmp    $0x1,%eax
 804a517:	75 50                	jne    804a569 <ExtDef+0x1d5>
 804a519:	8b 45 f0             	mov    -0x10(%ebp),%eax
 804a51c:	8b 40 0c             	mov    0xc(%eax),%eax
 804a51f:	c7 40 08 01 00 00 00 	movl   $0x1,0x8(%eax)
 804a526:	eb 41                	jmp    804a569 <ExtDef+0x1d5>
 804a528:	83 ec 0c             	sub    $0xc,%esp
 804a52b:	ff 75 d8             	pushl  -0x28(%ebp)
 804a52e:	e8 96 a9 00 00       	call   8054ec9 <insertTable>
 804a533:	83 c4 10             	add    $0x10,%esp
 804a536:	89 45 f4             	mov    %eax,-0xc(%ebp)
 804a539:	83 7d f4 01          	cmpl   $0x1,-0xc(%ebp)
 804a53d:	75 2a                	jne    804a569 <ExtDef+0x1d5>
 804a53f:	a1 3c b1 05 08       	mov    0x805b13c,%eax
 804a544:	83 c0 01             	add    $0x1,%eax
 804a547:	a3 3c b1 05 08       	mov    %eax,0x805b13c
 804a54c:	8b 45 d8             	mov    -0x28(%ebp),%eax
 804a54f:	8b 50 04             	mov    0x4(%eax),%edx
 804a552:	8b 45 e8             	mov    -0x18(%ebp),%eax
 804a555:	8b 00                	mov    (%eax),%eax
 804a557:	83 ec 04             	sub    $0x4,%esp
 804a55a:	52                   	push   %edx
 804a55b:	50                   	push   %eax
 804a55c:	68 f4 5c 05 08       	push   $0x8055cf4
 804a561:	e8 7a e2 ff ff       	call   80487e0 <printf@plt>
 804a566:	83 c4 10             	add    $0x10,%esp
 804a569:	8b 45 08             	mov    0x8(%ebp),%eax
 804a56c:	8b 40 1c             	mov    0x1c(%eax),%eax
 804a56f:	8b 40 04             	mov    0x4(%eax),%eax
 804a572:	83 f8 2b             	cmp    $0x2b,%eax
 804a575:	75 4b                	jne    804a5c2 <ExtDef+0x22e>
 804a577:	8b 45 d8             	mov    -0x28(%ebp),%eax
 804a57a:	8b 40 0c             	mov    0xc(%eax),%eax
 804a57d:	a3 70 b1 05 08       	mov    %eax,0x805b170
 804a582:	8b 45 08             	mov    0x8(%ebp),%eax
 804a585:	8b 40 1c             	mov    0x1c(%eax),%eax
 804a588:	83 ec 0c             	sub    $0xc,%esp
 804a58b:	50                   	push   %eax
 804a58c:	e8 c3 05 00 00       	call   804ab54 <CompSt>
 804a591:	83 c4 10             	add    $0x10,%esp
 804a594:	c7 05 70 b1 05 08 00 	movl   $0x0,0x805b170
 804a59b:	00 00 00 
 804a59e:	eb 22                	jmp    804a5c2 <ExtDef+0x22e>
 804a5a0:	8b 45 e0             	mov    -0x20(%ebp),%eax
 804a5a3:	8b 40 04             	mov    0x4(%eax),%eax
 804a5a6:	83 f8 22             	cmp    $0x22,%eax
 804a5a9:	75 17                	jne    804a5c2 <ExtDef+0x22e>
 804a5ab:	83 ec 08             	sub    $0x8,%esp
 804a5ae:	ff 75 e0             	pushl  -0x20(%ebp)
 804a5b1:	ff 75 e4             	pushl  -0x1c(%ebp)
 804a5b4:	e8 0b 00 00 00       	call   804a5c4 <ExtDecList>
 804a5b9:	83 c4 10             	add    $0x10,%esp
 804a5bc:	eb 04                	jmp    804a5c2 <ExtDef+0x22e>
 804a5be:	90                   	nop
 804a5bf:	eb 01                	jmp    804a5c2 <ExtDef+0x22e>
 804a5c1:	90                   	nop
 804a5c2:	c9                   	leave  
 804a5c3:	c3                   	ret    

0804a5c4 <ExtDecList>:
 804a5c4:	55                   	push   %ebp
 804a5c5:	89 e5                	mov    %esp,%ebp
 804a5c7:	83 ec 18             	sub    $0x18,%esp
 804a5ca:	8b 45 0c             	mov    0xc(%ebp),%eax
 804a5cd:	8b 40 14             	mov    0x14(%eax),%eax
 804a5d0:	89 45 ec             	mov    %eax,-0x14(%ebp)
 804a5d3:	83 ec 08             	sub    $0x8,%esp
 804a5d6:	ff 75 ec             	pushl  -0x14(%ebp)
 804a5d9:	ff 75 08             	pushl  0x8(%ebp)
 804a5dc:	e8 f3 02 00 00       	call   804a8d4 <VarDec>
 804a5e1:	83 c4 10             	add    $0x10,%esp
 804a5e4:	89 45 f0             	mov    %eax,-0x10(%ebp)
 804a5e7:	83 ec 0c             	sub    $0xc,%esp
 804a5ea:	ff 75 f0             	pushl  -0x10(%ebp)
 804a5ed:	e8 d7 a8 00 00       	call   8054ec9 <insertTable>
 804a5f2:	83 c4 10             	add    $0x10,%esp
 804a5f5:	89 45 f4             	mov    %eax,-0xc(%ebp)
 804a5f8:	83 7d f4 01          	cmpl   $0x1,-0xc(%ebp)
 804a5fc:	75 2b                	jne    804a629 <ExtDecList+0x65>
 804a5fe:	a1 3c b1 05 08       	mov    0x805b13c,%eax
 804a603:	83 c0 01             	add    $0x1,%eax
 804a606:	a3 3c b1 05 08       	mov    %eax,0x805b13c
 804a60b:	8b 45 f0             	mov    -0x10(%ebp),%eax
 804a60e:	8b 50 04             	mov    0x4(%eax),%edx
 804a611:	8b 45 f0             	mov    -0x10(%ebp),%eax
 804a614:	8b 40 08             	mov    0x8(%eax),%eax
 804a617:	83 ec 04             	sub    $0x4,%esp
 804a61a:	52                   	push   %edx
 804a61b:	50                   	push   %eax
 804a61c:	68 70 5d 05 08       	push   $0x8055d70
 804a621:	e8 ba e1 ff ff       	call   80487e0 <printf@plt>
 804a626:	83 c4 10             	add    $0x10,%esp
 804a629:	8b 45 0c             	mov    0xc(%ebp),%eax
 804a62c:	8b 40 10             	mov    0x10(%eax),%eax
 804a62f:	83 f8 01             	cmp    $0x1,%eax
 804a632:	7e 15                	jle    804a649 <ExtDecList+0x85>
 804a634:	8b 45 0c             	mov    0xc(%ebp),%eax
 804a637:	8b 40 1c             	mov    0x1c(%eax),%eax
 804a63a:	83 ec 08             	sub    $0x8,%esp
 804a63d:	50                   	push   %eax
 804a63e:	ff 75 08             	pushl  0x8(%ebp)
 804a641:	e8 7e ff ff ff       	call   804a5c4 <ExtDecList>
 804a646:	83 c4 10             	add    $0x10,%esp
 804a649:	90                   	nop
 804a64a:	c9                   	leave  
 804a64b:	c3                   	ret    

0804a64c <Specifier>:
 804a64c:	55                   	push   %ebp
 804a64d:	89 e5                	mov    %esp,%ebp
 804a64f:	83 ec 18             	sub    $0x18,%esp
 804a652:	8b 45 08             	mov    0x8(%ebp),%eax
 804a655:	8b 40 14             	mov    0x14(%eax),%eax
 804a658:	89 45 f4             	mov    %eax,-0xc(%ebp)
 804a65b:	c7 45 f0 00 00 00 00 	movl   $0x0,-0x10(%ebp)
 804a662:	8b 45 f4             	mov    -0xc(%ebp),%eax
 804a665:	8b 40 04             	mov    0x4(%eax),%eax
 804a668:	83 f8 04             	cmp    $0x4,%eax
 804a66b:	75 7d                	jne    804a6ea <Specifier+0x9e>
 804a66d:	83 ec 0c             	sub    $0xc,%esp
 804a670:	6a 0c                	push   $0xc
 804a672:	e8 29 e2 ff ff       	call   80488a0 <malloc@plt>
 804a677:	83 c4 10             	add    $0x10,%esp
 804a67a:	89 45 f0             	mov    %eax,-0x10(%ebp)
 804a67d:	8b 45 f0             	mov    -0x10(%ebp),%eax
 804a680:	c7 00 00 00 00 00    	movl   $0x0,(%eax)
 804a686:	8b 45 f4             	mov    -0xc(%ebp),%eax
 804a689:	8b 40 08             	mov    0x8(%eax),%eax
 804a68c:	83 ec 08             	sub    $0x8,%esp
 804a68f:	68 a3 5d 05 08       	push   $0x8055da3
 804a694:	50                   	push   %eax
 804a695:	e8 36 e1 ff ff       	call   80487d0 <strcmp@plt>
 804a69a:	83 c4 10             	add    $0x10,%esp
 804a69d:	85 c0                	test   %eax,%eax
 804a69f:	75 0c                	jne    804a6ad <Specifier+0x61>
 804a6a1:	8b 45 f0             	mov    -0x10(%ebp),%eax
 804a6a4:	c7 40 04 00 00 00 00 	movl   $0x0,0x4(%eax)
 804a6ab:	eb 78                	jmp    804a725 <Specifier+0xd9>
 804a6ad:	8b 45 f4             	mov    -0xc(%ebp),%eax
 804a6b0:	8b 40 08             	mov    0x8(%eax),%eax
 804a6b3:	83 ec 08             	sub    $0x8,%esp
 804a6b6:	68 a7 5d 05 08       	push   $0x8055da7
 804a6bb:	50                   	push   %eax
 804a6bc:	e8 0f e1 ff ff       	call   80487d0 <strcmp@plt>
 804a6c1:	83 c4 10             	add    $0x10,%esp
 804a6c4:	85 c0                	test   %eax,%eax
 804a6c6:	75 0c                	jne    804a6d4 <Specifier+0x88>
 804a6c8:	8b 45 f0             	mov    -0x10(%ebp),%eax
 804a6cb:	c7 40 04 01 00 00 00 	movl   $0x1,0x4(%eax)
 804a6d2:	eb 51                	jmp    804a725 <Specifier+0xd9>
 804a6d4:	68 78 62 05 08       	push   $0x8056278
 804a6d9:	6a 7c                	push   $0x7c
 804a6db:	68 ad 5d 05 08       	push   $0x8055dad
 804a6e0:	68 b7 5d 05 08       	push   $0x8055db7
 804a6e5:	e8 06 e3 ff ff       	call   80489f0 <__assert_fail@plt>
 804a6ea:	8b 45 f4             	mov    -0xc(%ebp),%eax
 804a6ed:	8b 40 04             	mov    0x4(%eax),%eax
 804a6f0:	83 f8 24             	cmp    $0x24,%eax
 804a6f3:	75 17                	jne    804a70c <Specifier+0xc0>
 804a6f5:	8b 45 08             	mov    0x8(%ebp),%eax
 804a6f8:	8b 40 14             	mov    0x14(%eax),%eax
 804a6fb:	83 ec 0c             	sub    $0xc,%esp
 804a6fe:	50                   	push   %eax
 804a6ff:	e8 26 00 00 00       	call   804a72a <StructSpecifier>
 804a704:	83 c4 10             	add    $0x10,%esp
 804a707:	89 45 f0             	mov    %eax,-0x10(%ebp)
 804a70a:	eb 19                	jmp    804a725 <Specifier+0xd9>
 804a70c:	68 78 62 05 08       	push   $0x8056278
 804a711:	68 84 00 00 00       	push   $0x84
 804a716:	68 ad 5d 05 08       	push   $0x8055dad
 804a71b:	68 b7 5d 05 08       	push   $0x8055db7
 804a720:	e8 cb e2 ff ff       	call   80489f0 <__assert_fail@plt>
 804a725:	8b 45 f0             	mov    -0x10(%ebp),%eax
 804a728:	c9                   	leave  
 804a729:	c3                   	ret    

0804a72a <StructSpecifier>:
 804a72a:	55                   	push   %ebp
 804a72b:	89 e5                	mov    %esp,%ebp
 804a72d:	83 ec 28             	sub    $0x28,%esp
 804a730:	83 ec 0c             	sub    $0xc,%esp
 804a733:	6a 0c                	push   $0xc
 804a735:	e8 66 e1 ff ff       	call   80488a0 <malloc@plt>
 804a73a:	83 c4 10             	add    $0x10,%esp
 804a73d:	89 45 dc             	mov    %eax,-0x24(%ebp)
 804a740:	8b 45 dc             	mov    -0x24(%ebp),%eax
 804a743:	c7 00 00 00 00 00    	movl   $0x0,(%eax)
 804a749:	8b 45 dc             	mov    -0x24(%ebp),%eax
 804a74c:	c7 40 08 00 00 00 00 	movl   $0x0,0x8(%eax)
 804a753:	8b 45 dc             	mov    -0x24(%ebp),%eax
 804a756:	c7 40 04 00 00 00 00 	movl   $0x0,0x4(%eax)
 804a75d:	8b 45 08             	mov    0x8(%ebp),%eax
 804a760:	8b 40 18             	mov    0x18(%eax),%eax
 804a763:	8b 40 04             	mov    0x4(%eax),%eax
 804a766:	83 f8 26             	cmp    $0x26,%eax
 804a769:	75 76                	jne    804a7e1 <StructSpecifier+0xb7>
 804a76b:	8b 45 08             	mov    0x8(%ebp),%eax
 804a76e:	8b 40 18             	mov    0x18(%eax),%eax
 804a771:	8b 40 14             	mov    0x14(%eax),%eax
 804a774:	8b 40 08             	mov    0x8(%eax),%eax
 804a777:	83 ec 0c             	sub    $0xc,%esp
 804a77a:	50                   	push   %eax
 804a77b:	e8 d1 a6 00 00       	call   8054e51 <searchTable>
 804a780:	83 c4 10             	add    $0x10,%esp
 804a783:	89 45 e0             	mov    %eax,-0x20(%ebp)
 804a786:	83 7d e0 00          	cmpl   $0x0,-0x20(%ebp)
 804a78a:	74 0a                	je     804a796 <StructSpecifier+0x6c>
 804a78c:	8b 45 e0             	mov    -0x20(%ebp),%eax
 804a78f:	8b 00                	mov    (%eax),%eax
 804a791:	83 f8 02             	cmp    $0x2,%eax
 804a794:	74 40                	je     804a7d6 <StructSpecifier+0xac>
 804a796:	a1 3c b1 05 08       	mov    0x805b13c,%eax
 804a79b:	83 c0 01             	add    $0x1,%eax
 804a79e:	a3 3c b1 05 08       	mov    %eax,0x805b13c
 804a7a3:	8b 45 08             	mov    0x8(%ebp),%eax
 804a7a6:	8b 40 18             	mov    0x18(%eax),%eax
 804a7a9:	8b 40 14             	mov    0x14(%eax),%eax
 804a7ac:	8b 50 08             	mov    0x8(%eax),%edx
 804a7af:	8b 45 08             	mov    0x8(%ebp),%eax
 804a7b2:	8b 40 18             	mov    0x18(%eax),%eax
 804a7b5:	8b 40 14             	mov    0x14(%eax),%eax
 804a7b8:	8b 00                	mov    (%eax),%eax
 804a7ba:	83 ec 04             	sub    $0x4,%esp
 804a7bd:	52                   	push   %edx
 804a7be:	50                   	push   %eax
 804a7bf:	68 bc 5d 05 08       	push   $0x8055dbc
 804a7c4:	e8 17 e0 ff ff       	call   80487e0 <printf@plt>
 804a7c9:	83 c4 10             	add    $0x10,%esp
 804a7cc:	b8 00 00 00 00       	mov    $0x0,%eax
 804a7d1:	e9 fc 00 00 00       	jmp    804a8d2 <StructSpecifier+0x1a8>
 804a7d6:	8b 45 e0             	mov    -0x20(%ebp),%eax
 804a7d9:	8b 40 0c             	mov    0xc(%eax),%eax
 804a7dc:	e9 f1 00 00 00       	jmp    804a8d2 <StructSpecifier+0x1a8>
 804a7e1:	8b 45 08             	mov    0x8(%ebp),%eax
 804a7e4:	8b 40 18             	mov    0x18(%eax),%eax
 804a7e7:	89 45 e4             	mov    %eax,-0x1c(%ebp)
 804a7ea:	83 7d e4 00          	cmpl   $0x0,-0x1c(%ebp)
 804a7ee:	74 4c                	je     804a83c <StructSpecifier+0x112>
 804a7f0:	8b 45 e4             	mov    -0x1c(%ebp),%eax
 804a7f3:	8b 40 14             	mov    0x14(%eax),%eax
 804a7f6:	8b 40 08             	mov    0x8(%eax),%eax
 804a7f9:	83 ec 0c             	sub    $0xc,%esp
 804a7fc:	50                   	push   %eax
 804a7fd:	e8 ce e0 ff ff       	call   80488d0 <strlen@plt>
 804a802:	83 c4 10             	add    $0x10,%esp
 804a805:	89 45 e8             	mov    %eax,-0x18(%ebp)
 804a808:	8b 45 e8             	mov    -0x18(%ebp),%eax
 804a80b:	83 c0 01             	add    $0x1,%eax
 804a80e:	83 ec 0c             	sub    $0xc,%esp
 804a811:	50                   	push   %eax
 804a812:	e8 89 e0 ff ff       	call   80488a0 <malloc@plt>
 804a817:	83 c4 10             	add    $0x10,%esp
 804a81a:	89 c2                	mov    %eax,%edx
 804a81c:	8b 45 dc             	mov    -0x24(%ebp),%eax
 804a81f:	89 10                	mov    %edx,(%eax)
 804a821:	8b 45 e4             	mov    -0x1c(%ebp),%eax
 804a824:	8b 40 14             	mov    0x14(%eax),%eax
 804a827:	8b 50 08             	mov    0x8(%eax),%edx
 804a82a:	8b 45 dc             	mov    -0x24(%ebp),%eax
 804a82d:	8b 00                	mov    (%eax),%eax
 804a82f:	83 ec 08             	sub    $0x8,%esp
 804a832:	52                   	push   %edx
 804a833:	50                   	push   %eax
 804a834:	e8 47 e0 ff ff       	call   8048880 <strcpy@plt>
 804a839:	83 c4 10             	add    $0x10,%esp
 804a83c:	8b 45 08             	mov    0x8(%ebp),%eax
 804a83f:	8b 40 20             	mov    0x20(%eax),%eax
 804a842:	83 ec 04             	sub    $0x4,%esp
 804a845:	ff 75 dc             	pushl  -0x24(%ebp)
 804a848:	6a 00                	push   $0x0
 804a84a:	50                   	push   %eax
 804a84b:	e8 cf 05 00 00       	call   804ae1f <DefList>
 804a850:	83 c4 10             	add    $0x10,%esp
 804a853:	83 ec 0c             	sub    $0xc,%esp
 804a856:	6a 0c                	push   $0xc
 804a858:	e8 43 e0 ff ff       	call   80488a0 <malloc@plt>
 804a85d:	83 c4 10             	add    $0x10,%esp
 804a860:	89 45 ec             	mov    %eax,-0x14(%ebp)
 804a863:	8b 45 ec             	mov    -0x14(%ebp),%eax
 804a866:	c7 00 02 00 00 00    	movl   $0x2,(%eax)
 804a86c:	8b 45 ec             	mov    -0x14(%ebp),%eax
 804a86f:	8b 55 dc             	mov    -0x24(%ebp),%edx
 804a872:	89 50 04             	mov    %edx,0x4(%eax)
 804a875:	8b 45 dc             	mov    -0x24(%ebp),%eax
 804a878:	8b 00                	mov    (%eax),%eax
 804a87a:	83 ec 04             	sub    $0x4,%esp
 804a87d:	ff 75 ec             	pushl  -0x14(%ebp)
 804a880:	50                   	push   %eax
 804a881:	6a 02                	push   $0x2
 804a883:	e8 ef a3 00 00       	call   8054c77 <newTypeSymbol>
 804a888:	83 c4 10             	add    $0x10,%esp
 804a88b:	89 45 f0             	mov    %eax,-0x10(%ebp)
 804a88e:	83 ec 0c             	sub    $0xc,%esp
 804a891:	ff 75 f0             	pushl  -0x10(%ebp)
 804a894:	e8 30 a6 00 00       	call   8054ec9 <insertTable>
 804a899:	83 c4 10             	add    $0x10,%esp
 804a89c:	89 45 f4             	mov    %eax,-0xc(%ebp)
 804a89f:	83 7d f4 01          	cmpl   $0x1,-0xc(%ebp)
 804a8a3:	75 2a                	jne    804a8cf <StructSpecifier+0x1a5>
 804a8a5:	a1 3c b1 05 08       	mov    0x805b13c,%eax
 804a8aa:	83 c0 01             	add    $0x1,%eax
 804a8ad:	a3 3c b1 05 08       	mov    %eax,0x805b13c
 804a8b2:	8b 45 f0             	mov    -0x10(%ebp),%eax
 804a8b5:	8b 50 04             	mov    0x4(%eax),%edx
 804a8b8:	8b 45 08             	mov    0x8(%ebp),%eax
 804a8bb:	8b 00                	mov    (%eax),%eax
 804a8bd:	83 ec 04             	sub    $0x4,%esp
 804a8c0:	52                   	push   %edx
 804a8c1:	50                   	push   %eax
 804a8c2:	68 f4 5d 05 08       	push   $0x8055df4
 804a8c7:	e8 14 df ff ff       	call   80487e0 <printf@plt>
 804a8cc:	83 c4 10             	add    $0x10,%esp
 804a8cf:	8b 45 ec             	mov    -0x14(%ebp),%eax
 804a8d2:	c9                   	leave  
 804a8d3:	c3                   	ret    

0804a8d4 <VarDec>:
 804a8d4:	55                   	push   %ebp
 804a8d5:	89 e5                	mov    %esp,%ebp
 804a8d7:	83 ec 18             	sub    $0x18,%esp
 804a8da:	8b 45 0c             	mov    0xc(%ebp),%eax
 804a8dd:	8b 40 14             	mov    0x14(%eax),%eax
 804a8e0:	89 45 f0             	mov    %eax,-0x10(%ebp)
 804a8e3:	c7 45 ec 00 00 00 00 	movl   $0x0,-0x14(%ebp)
 804a8ea:	8b 45 f0             	mov    -0x10(%ebp),%eax
 804a8ed:	8b 40 04             	mov    0x4(%eax),%eax
 804a8f0:	83 f8 03             	cmp    $0x3,%eax
 804a8f3:	75 27                	jne    804a91c <VarDec+0x48>
 804a8f5:	8b 45 f0             	mov    -0x10(%ebp),%eax
 804a8f8:	8b 40 08             	mov    0x8(%eax),%eax
 804a8fb:	83 ec 04             	sub    $0x4,%esp
 804a8fe:	ff 75 08             	pushl  0x8(%ebp)
 804a901:	50                   	push   %eax
 804a902:	6a 00                	push   $0x0
 804a904:	e8 6e a3 00 00       	call   8054c77 <newTypeSymbol>
 804a909:	83 c4 10             	add    $0x10,%esp
 804a90c:	89 45 ec             	mov    %eax,-0x14(%ebp)
 804a90f:	8b 45 0c             	mov    0xc(%ebp),%eax
 804a912:	8b 10                	mov    (%eax),%edx
 804a914:	8b 45 ec             	mov    -0x14(%ebp),%eax
 804a917:	89 50 08             	mov    %edx,0x8(%eax)
 804a91a:	eb 6b                	jmp    804a987 <VarDec+0xb3>
 804a91c:	8b 45 f0             	mov    -0x10(%ebp),%eax
 804a91f:	8b 40 04             	mov    0x4(%eax),%eax
 804a922:	83 f8 27             	cmp    $0x27,%eax
 804a925:	75 47                	jne    804a96e <VarDec+0x9a>
 804a927:	83 ec 0c             	sub    $0xc,%esp
 804a92a:	6a 0c                	push   $0xc
 804a92c:	e8 6f df ff ff       	call   80488a0 <malloc@plt>
 804a931:	83 c4 10             	add    $0x10,%esp
 804a934:	89 45 f4             	mov    %eax,-0xc(%ebp)
 804a937:	8b 45 f4             	mov    -0xc(%ebp),%eax
 804a93a:	c7 00 01 00 00 00    	movl   $0x1,(%eax)
 804a940:	8b 45 f4             	mov    -0xc(%ebp),%eax
 804a943:	8b 55 08             	mov    0x8(%ebp),%edx
 804a946:	89 50 04             	mov    %edx,0x4(%eax)
 804a949:	8b 45 0c             	mov    0xc(%ebp),%eax
 804a94c:	8b 40 1c             	mov    0x1c(%eax),%eax
 804a94f:	8b 50 08             	mov    0x8(%eax),%edx
 804a952:	8b 45 f4             	mov    -0xc(%ebp),%eax
 804a955:	89 50 08             	mov    %edx,0x8(%eax)
 804a958:	83 ec 08             	sub    $0x8,%esp
 804a95b:	ff 75 f0             	pushl  -0x10(%ebp)
 804a95e:	ff 75 f4             	pushl  -0xc(%ebp)
 804a961:	e8 6e ff ff ff       	call   804a8d4 <VarDec>
 804a966:	83 c4 10             	add    $0x10,%esp
 804a969:	89 45 ec             	mov    %eax,-0x14(%ebp)
 804a96c:	eb 19                	jmp    804a987 <VarDec+0xb3>
 804a96e:	68 84 62 05 08       	push   $0x8056284
 804a973:	68 d8 00 00 00       	push   $0xd8
 804a978:	68 ad 5d 05 08       	push   $0x8055dad
 804a97d:	68 b7 5d 05 08       	push   $0x8055db7
 804a982:	e8 69 e0 ff ff       	call   80489f0 <__assert_fail@plt>
 804a987:	8b 45 ec             	mov    -0x14(%ebp),%eax
 804a98a:	c9                   	leave  
 804a98b:	c3                   	ret    

0804a98c <FunDec>:
 804a98c:	55                   	push   %ebp
 804a98d:	89 e5                	mov    %esp,%ebp
 804a98f:	83 ec 18             	sub    $0x18,%esp
 804a992:	83 ec 0c             	sub    $0xc,%esp
 804a995:	6a 0c                	push   $0xc
 804a997:	e8 04 df ff ff       	call   80488a0 <malloc@plt>
 804a99c:	83 c4 10             	add    $0x10,%esp
 804a99f:	89 45 f0             	mov    %eax,-0x10(%ebp)
 804a9a2:	8b 45 f0             	mov    -0x10(%ebp),%eax
 804a9a5:	8b 55 0c             	mov    0xc(%ebp),%edx
 804a9a8:	89 10                	mov    %edx,(%eax)
 804a9aa:	8b 45 f0             	mov    -0x10(%ebp),%eax
 804a9ad:	c7 40 04 00 00 00 00 	movl   $0x0,0x4(%eax)
 804a9b4:	83 7d 10 01          	cmpl   $0x1,0x10(%ebp)
 804a9b8:	75 0c                	jne    804a9c6 <FunDec+0x3a>
 804a9ba:	8b 45 f0             	mov    -0x10(%ebp),%eax
 804a9bd:	c7 40 08 01 00 00 00 	movl   $0x1,0x8(%eax)
 804a9c4:	eb 0a                	jmp    804a9d0 <FunDec+0x44>
 804a9c6:	8b 45 f0             	mov    -0x10(%ebp),%eax
 804a9c9:	c7 40 08 00 00 00 00 	movl   $0x0,0x8(%eax)
 804a9d0:	8b 45 08             	mov    0x8(%ebp),%eax
 804a9d3:	8b 40 1c             	mov    0x1c(%eax),%eax
 804a9d6:	8b 40 04             	mov    0x4(%eax),%eax
 804a9d9:	83 f8 29             	cmp    $0x29,%eax
 804a9dc:	75 1d                	jne    804a9fb <FunDec+0x6f>
 804a9de:	8b 45 08             	mov    0x8(%ebp),%eax
 804a9e1:	8b 40 1c             	mov    0x1c(%eax),%eax
 804a9e4:	83 ec 08             	sub    $0x8,%esp
 804a9e7:	ff 75 10             	pushl  0x10(%ebp)
 804a9ea:	50                   	push   %eax
 804a9eb:	e8 2d 00 00 00       	call   804aa1d <VarList>
 804a9f0:	83 c4 10             	add    $0x10,%esp
 804a9f3:	89 c2                	mov    %eax,%edx
 804a9f5:	8b 45 f0             	mov    -0x10(%ebp),%eax
 804a9f8:	89 50 04             	mov    %edx,0x4(%eax)
 804a9fb:	8b 45 08             	mov    0x8(%ebp),%eax
 804a9fe:	8b 40 14             	mov    0x14(%eax),%eax
 804aa01:	8b 40 08             	mov    0x8(%eax),%eax
 804aa04:	83 ec 04             	sub    $0x4,%esp
 804aa07:	ff 75 f0             	pushl  -0x10(%ebp)
 804aa0a:	50                   	push   %eax
 804aa0b:	6a 01                	push   $0x1
 804aa0d:	e8 e9 a2 00 00       	call   8054cfb <newFuncSymbol>
 804aa12:	83 c4 10             	add    $0x10,%esp
 804aa15:	89 45 f4             	mov    %eax,-0xc(%ebp)
 804aa18:	8b 45 f4             	mov    -0xc(%ebp),%eax
 804aa1b:	c9                   	leave  
 804aa1c:	c3                   	ret    

0804aa1d <VarList>:
 804aa1d:	55                   	push   %ebp
 804aa1e:	89 e5                	mov    %esp,%ebp
 804aa20:	83 ec 18             	sub    $0x18,%esp
 804aa23:	8b 45 08             	mov    0x8(%ebp),%eax
 804aa26:	8b 40 14             	mov    0x14(%eax),%eax
 804aa29:	83 ec 08             	sub    $0x8,%esp
 804aa2c:	ff 75 0c             	pushl  0xc(%ebp)
 804aa2f:	50                   	push   %eax
 804aa30:	e8 33 00 00 00       	call   804aa68 <ParamDec>
 804aa35:	83 c4 10             	add    $0x10,%esp
 804aa38:	89 45 f4             	mov    %eax,-0xc(%ebp)
 804aa3b:	8b 45 08             	mov    0x8(%ebp),%eax
 804aa3e:	8b 40 10             	mov    0x10(%eax),%eax
 804aa41:	83 f8 01             	cmp    $0x1,%eax
 804aa44:	7e 1d                	jle    804aa63 <VarList+0x46>
 804aa46:	8b 45 08             	mov    0x8(%ebp),%eax
 804aa49:	8b 40 1c             	mov    0x1c(%eax),%eax
 804aa4c:	83 ec 08             	sub    $0x8,%esp
 804aa4f:	ff 75 0c             	pushl  0xc(%ebp)
 804aa52:	50                   	push   %eax
 804aa53:	e8 c5 ff ff ff       	call   804aa1d <VarList>
 804aa58:	83 c4 10             	add    $0x10,%esp
 804aa5b:	89 c2                	mov    %eax,%edx
 804aa5d:	8b 45 f4             	mov    -0xc(%ebp),%eax
 804aa60:	89 50 08             	mov    %edx,0x8(%eax)
 804aa63:	8b 45 f4             	mov    -0xc(%ebp),%eax
 804aa66:	c9                   	leave  
 804aa67:	c3                   	ret    

0804aa68 <ParamDec>:
 804aa68:	55                   	push   %ebp
 804aa69:	89 e5                	mov    %esp,%ebp
 804aa6b:	83 ec 28             	sub    $0x28,%esp
 804aa6e:	8b 45 08             	mov    0x8(%ebp),%eax
 804aa71:	8b 40 14             	mov    0x14(%eax),%eax
 804aa74:	83 ec 0c             	sub    $0xc,%esp
 804aa77:	50                   	push   %eax
 804aa78:	e8 cf fb ff ff       	call   804a64c <Specifier>
 804aa7d:	83 c4 10             	add    $0x10,%esp
 804aa80:	89 45 e4             	mov    %eax,-0x1c(%ebp)
 804aa83:	8b 45 08             	mov    0x8(%ebp),%eax
 804aa86:	8b 40 18             	mov    0x18(%eax),%eax
 804aa89:	83 ec 08             	sub    $0x8,%esp
 804aa8c:	50                   	push   %eax
 804aa8d:	ff 75 e4             	pushl  -0x1c(%ebp)
 804aa90:	e8 3f fe ff ff       	call   804a8d4 <VarDec>
 804aa95:	83 c4 10             	add    $0x10,%esp
 804aa98:	89 45 e8             	mov    %eax,-0x18(%ebp)
 804aa9b:	83 7d 0c 01          	cmpl   $0x1,0xc(%ebp)
 804aa9f:	75 42                	jne    804aae3 <ParamDec+0x7b>
 804aaa1:	83 ec 0c             	sub    $0xc,%esp
 804aaa4:	ff 75 e8             	pushl  -0x18(%ebp)
 804aaa7:	e8 1d a4 00 00       	call   8054ec9 <insertTable>
 804aaac:	83 c4 10             	add    $0x10,%esp
 804aaaf:	89 45 ec             	mov    %eax,-0x14(%ebp)
 804aab2:	83 7d ec 01          	cmpl   $0x1,-0x14(%ebp)
 804aab6:	75 2b                	jne    804aae3 <ParamDec+0x7b>
 804aab8:	a1 3c b1 05 08       	mov    0x805b13c,%eax
 804aabd:	83 c0 01             	add    $0x1,%eax
 804aac0:	a3 3c b1 05 08       	mov    %eax,0x805b13c
 804aac5:	8b 45 e8             	mov    -0x18(%ebp),%eax
 804aac8:	8b 50 04             	mov    0x4(%eax),%edx
 804aacb:	8b 45 e8             	mov    -0x18(%ebp),%eax
 804aace:	8b 40 08             	mov    0x8(%eax),%eax
 804aad1:	83 ec 04             	sub    $0x4,%esp
 804aad4:	52                   	push   %edx
 804aad5:	50                   	push   %eax
 804aad6:	68 70 5d 05 08       	push   $0x8055d70
 804aadb:	e8 00 dd ff ff       	call   80487e0 <printf@plt>
 804aae0:	83 c4 10             	add    $0x10,%esp
 804aae3:	83 ec 0c             	sub    $0xc,%esp
 804aae6:	6a 0c                	push   $0xc
 804aae8:	e8 b3 dd ff ff       	call   80488a0 <malloc@plt>
 804aaed:	83 c4 10             	add    $0x10,%esp
 804aaf0:	89 45 f0             	mov    %eax,-0x10(%ebp)
 804aaf3:	8b 45 e8             	mov    -0x18(%ebp),%eax
 804aaf6:	8b 40 04             	mov    0x4(%eax),%eax
 804aaf9:	83 ec 0c             	sub    $0xc,%esp
 804aafc:	50                   	push   %eax
 804aafd:	e8 ce dd ff ff       	call   80488d0 <strlen@plt>
 804ab02:	83 c4 10             	add    $0x10,%esp
 804ab05:	89 45 f4             	mov    %eax,-0xc(%ebp)
 804ab08:	8b 45 f4             	mov    -0xc(%ebp),%eax
 804ab0b:	83 c0 01             	add    $0x1,%eax
 804ab0e:	83 ec 0c             	sub    $0xc,%esp
 804ab11:	50                   	push   %eax
 804ab12:	e8 89 dd ff ff       	call   80488a0 <malloc@plt>
 804ab17:	83 c4 10             	add    $0x10,%esp
 804ab1a:	89 c2                	mov    %eax,%edx
 804ab1c:	8b 45 f0             	mov    -0x10(%ebp),%eax
 804ab1f:	89 10                	mov    %edx,(%eax)
 804ab21:	8b 45 e8             	mov    -0x18(%ebp),%eax
 804ab24:	8b 50 04             	mov    0x4(%eax),%edx
 804ab27:	8b 45 f0             	mov    -0x10(%ebp),%eax
 804ab2a:	8b 00                	mov    (%eax),%eax
 804ab2c:	83 ec 08             	sub    $0x8,%esp
 804ab2f:	52                   	push   %edx
 804ab30:	50                   	push   %eax
 804ab31:	e8 4a dd ff ff       	call   8048880 <strcpy@plt>
 804ab36:	83 c4 10             	add    $0x10,%esp
 804ab39:	8b 45 e8             	mov    -0x18(%ebp),%eax
 804ab3c:	8b 50 0c             	mov    0xc(%eax),%edx
 804ab3f:	8b 45 f0             	mov    -0x10(%ebp),%eax
 804ab42:	89 50 04             	mov    %edx,0x4(%eax)
 804ab45:	8b 45 f0             	mov    -0x10(%ebp),%eax
 804ab48:	c7 40 08 00 00 00 00 	movl   $0x0,0x8(%eax)
 804ab4f:	8b 45 f0             	mov    -0x10(%ebp),%eax
 804ab52:	c9                   	leave  
 804ab53:	c3                   	ret    

0804ab54 <CompSt>:
 804ab54:	55                   	push   %ebp
 804ab55:	89 e5                	mov    %esp,%ebp
 804ab57:	83 ec 18             	sub    $0x18,%esp
 804ab5a:	83 ec 0c             	sub    $0xc,%esp
 804ab5d:	6a 0c                	push   $0xc
 804ab5f:	e8 3c dd ff ff       	call   80488a0 <malloc@plt>
 804ab64:	83 c4 10             	add    $0x10,%esp
 804ab67:	89 45 f4             	mov    %eax,-0xc(%ebp)
 804ab6a:	8b 45 f4             	mov    -0xc(%ebp),%eax
 804ab6d:	c7 40 08 00 00 00 00 	movl   $0x0,0x8(%eax)
 804ab74:	8b 45 f4             	mov    -0xc(%ebp),%eax
 804ab77:	c7 40 04 00 00 00 00 	movl   $0x0,0x4(%eax)
 804ab7e:	8b 45 f4             	mov    -0xc(%ebp),%eax
 804ab81:	c7 00 00 00 00 00    	movl   $0x0,(%eax)
 804ab87:	8b 45 08             	mov    0x8(%ebp),%eax
 804ab8a:	8b 40 18             	mov    0x18(%eax),%eax
 804ab8d:	83 ec 04             	sub    $0x4,%esp
 804ab90:	ff 75 f4             	pushl  -0xc(%ebp)
 804ab93:	6a 01                	push   $0x1
 804ab95:	50                   	push   %eax
 804ab96:	e8 84 02 00 00       	call   804ae1f <DefList>
 804ab9b:	83 c4 10             	add    $0x10,%esp
 804ab9e:	8b 45 08             	mov    0x8(%ebp),%eax
 804aba1:	8b 40 1c             	mov    0x1c(%eax),%eax
 804aba4:	83 ec 0c             	sub    $0xc,%esp
 804aba7:	50                   	push   %eax
 804aba8:	e8 06 00 00 00       	call   804abb3 <StmtList>
 804abad:	83 c4 10             	add    $0x10,%esp
 804abb0:	90                   	nop
 804abb1:	c9                   	leave  
 804abb2:	c3                   	ret    

0804abb3 <StmtList>:
 804abb3:	55                   	push   %ebp
 804abb4:	89 e5                	mov    %esp,%ebp
 804abb6:	83 ec 08             	sub    $0x8,%esp
 804abb9:	83 7d 08 00          	cmpl   $0x0,0x8(%ebp)
 804abbd:	74 31                	je     804abf0 <StmtList+0x3d>
 804abbf:	8b 45 08             	mov    0x8(%ebp),%eax
 804abc2:	8b 40 10             	mov    0x10(%eax),%eax
 804abc5:	83 f8 02             	cmp    $0x2,%eax
 804abc8:	75 27                	jne    804abf1 <StmtList+0x3e>
 804abca:	8b 45 08             	mov    0x8(%ebp),%eax
 804abcd:	8b 40 14             	mov    0x14(%eax),%eax
 804abd0:	83 ec 0c             	sub    $0xc,%esp
 804abd3:	50                   	push   %eax
 804abd4:	e8 1a 00 00 00       	call   804abf3 <Stmt>
 804abd9:	83 c4 10             	add    $0x10,%esp
 804abdc:	8b 45 08             	mov    0x8(%ebp),%eax
 804abdf:	8b 40 18             	mov    0x18(%eax),%eax
 804abe2:	83 ec 0c             	sub    $0xc,%esp
 804abe5:	50                   	push   %eax
 804abe6:	e8 c8 ff ff ff       	call   804abb3 <StmtList>
 804abeb:	83 c4 10             	add    $0x10,%esp
 804abee:	eb 01                	jmp    804abf1 <StmtList+0x3e>
 804abf0:	90                   	nop
 804abf1:	c9                   	leave  
 804abf2:	c3                   	ret    

0804abf3 <Stmt>:
 804abf3:	55                   	push   %ebp
 804abf4:	89 e5                	mov    %esp,%ebp
 804abf6:	83 ec 18             	sub    $0x18,%esp
 804abf9:	8b 45 08             	mov    0x8(%ebp),%eax
 804abfc:	8b 40 14             	mov    0x14(%eax),%eax
 804abff:	89 45 f0             	mov    %eax,-0x10(%ebp)
 804ac02:	c7 45 f4 00 00 00 00 	movl   $0x0,-0xc(%ebp)
 804ac09:	8b 45 f0             	mov    -0x10(%ebp),%eax
 804ac0c:	8b 40 04             	mov    0x4(%eax),%eax
 804ac0f:	83 e8 1b             	sub    $0x1b,%eax
 804ac12:	83 f8 17             	cmp    $0x17,%eax
 804ac15:	0f 87 e4 01 00 00    	ja     804adff <Stmt+0x20c>
 804ac1b:	8b 04 85 80 5e 05 08 	mov    0x8055e80(,%eax,4),%eax
 804ac22:	ff e0                	jmp    *%eax
 804ac24:	83 ec 0c             	sub    $0xc,%esp
 804ac27:	ff 75 f0             	pushl  -0x10(%ebp)
 804ac2a:	e8 7d 04 00 00       	call   804b0ac <Exp>
 804ac2f:	83 c4 10             	add    $0x10,%esp
 804ac32:	e9 e5 01 00 00       	jmp    804ae1c <Stmt+0x229>
 804ac37:	83 ec 0c             	sub    $0xc,%esp
 804ac3a:	ff 75 f0             	pushl  -0x10(%ebp)
 804ac3d:	e8 12 ff ff ff       	call   804ab54 <CompSt>
 804ac42:	83 c4 10             	add    $0x10,%esp
 804ac45:	e9 d2 01 00 00       	jmp    804ae1c <Stmt+0x229>
 804ac4a:	a1 70 b1 05 08       	mov    0x805b170,%eax
 804ac4f:	85 c0                	test   %eax,%eax
 804ac51:	75 40                	jne    804ac93 <Stmt+0xa0>
 804ac53:	a1 3c b1 05 08       	mov    0x805b13c,%eax
 804ac58:	83 c0 01             	add    $0x1,%eax
 804ac5b:	a3 3c b1 05 08       	mov    %eax,0x805b13c
 804ac60:	8b 45 08             	mov    0x8(%ebp),%eax
 804ac63:	8b 00                	mov    (%eax),%eax
 804ac65:	68 25 5e 05 08       	push   $0x8055e25
 804ac6a:	50                   	push   %eax
 804ac6b:	6a 08                	push   $0x8
 804ac6d:	68 41 5e 05 08       	push   $0x8055e41
 804ac72:	e8 69 db ff ff       	call   80487e0 <printf@plt>
 804ac77:	83 c4 10             	add    $0x10,%esp
 804ac7a:	68 8c 62 05 08       	push   $0x805628c
 804ac7f:	68 44 01 00 00       	push   $0x144
 804ac84:	68 ad 5d 05 08       	push   $0x8055dad
 804ac89:	68 b7 5d 05 08       	push   $0x8055db7
 804ac8e:	e8 5d dd ff ff       	call   80489f0 <__assert_fail@plt>
 804ac93:	8b 45 08             	mov    0x8(%ebp),%eax
 804ac96:	8b 40 18             	mov    0x18(%eax),%eax
 804ac99:	83 ec 0c             	sub    $0xc,%esp
 804ac9c:	50                   	push   %eax
 804ac9d:	e8 0a 04 00 00       	call   804b0ac <Exp>
 804aca2:	83 c4 10             	add    $0x10,%esp
 804aca5:	89 45 f4             	mov    %eax,-0xc(%ebp)
 804aca8:	a1 70 b1 05 08       	mov    0x805b170,%eax
 804acad:	8b 00                	mov    (%eax),%eax
 804acaf:	83 ec 08             	sub    $0x8,%esp
 804acb2:	ff 75 f4             	pushl  -0xc(%ebp)
 804acb5:	50                   	push   %eax
 804acb6:	e8 03 a5 00 00       	call   80551be <compareType>
 804acbb:	83 c4 10             	add    $0x10,%esp
 804acbe:	85 c0                	test   %eax,%eax
 804acc0:	0f 85 52 01 00 00    	jne    804ae18 <Stmt+0x225>
 804acc6:	a1 3c b1 05 08       	mov    0x805b13c,%eax
 804accb:	83 c0 01             	add    $0x1,%eax
 804acce:	a3 3c b1 05 08       	mov    %eax,0x805b13c
 804acd3:	8b 45 08             	mov    0x8(%ebp),%eax
 804acd6:	8b 00                	mov    (%eax),%eax
 804acd8:	68 25 5e 05 08       	push   $0x8055e25
 804acdd:	50                   	push   %eax
 804acde:	6a 08                	push   $0x8
 804ace0:	68 41 5e 05 08       	push   $0x8055e41
 804ace5:	e8 f6 da ff ff       	call   80487e0 <printf@plt>
 804acea:	83 c4 10             	add    $0x10,%esp
 804aced:	e9 26 01 00 00       	jmp    804ae18 <Stmt+0x225>
 804acf2:	8b 45 08             	mov    0x8(%ebp),%eax
 804acf5:	8b 40 1c             	mov    0x1c(%eax),%eax
 804acf8:	83 ec 0c             	sub    $0xc,%esp
 804acfb:	50                   	push   %eax
 804acfc:	e8 ab 03 00 00       	call   804b0ac <Exp>
 804ad01:	83 c4 10             	add    $0x10,%esp
 804ad04:	89 45 f4             	mov    %eax,-0xc(%ebp)
 804ad07:	83 7d f4 00          	cmpl   $0x0,-0xc(%ebp)
 804ad0b:	74 3d                	je     804ad4a <Stmt+0x157>
 804ad0d:	8b 45 f4             	mov    -0xc(%ebp),%eax
 804ad10:	8b 00                	mov    (%eax),%eax
 804ad12:	85 c0                	test   %eax,%eax
 804ad14:	75 0a                	jne    804ad20 <Stmt+0x12d>
 804ad16:	8b 45 f4             	mov    -0xc(%ebp),%eax
 804ad19:	8b 40 04             	mov    0x4(%eax),%eax
 804ad1c:	85 c0                	test   %eax,%eax
 804ad1e:	74 2a                	je     804ad4a <Stmt+0x157>
 804ad20:	a1 3c b1 05 08       	mov    0x805b13c,%eax
 804ad25:	83 c0 01             	add    $0x1,%eax
 804ad28:	a3 3c b1 05 08       	mov    %eax,0x805b13c
 804ad2d:	8b 45 08             	mov    0x8(%ebp),%eax
 804ad30:	8b 40 1c             	mov    0x1c(%eax),%eax
 804ad33:	8b 00                	mov    (%eax),%eax
 804ad35:	68 60 5e 05 08       	push   $0x8055e60
 804ad3a:	50                   	push   %eax
 804ad3b:	6a 07                	push   $0x7
 804ad3d:	68 41 5e 05 08       	push   $0x8055e41
 804ad42:	e8 99 da ff ff       	call   80487e0 <printf@plt>
 804ad47:	83 c4 10             	add    $0x10,%esp
 804ad4a:	8b 45 08             	mov    0x8(%ebp),%eax
 804ad4d:	8b 40 24             	mov    0x24(%eax),%eax
 804ad50:	83 ec 0c             	sub    $0xc,%esp
 804ad53:	50                   	push   %eax
 804ad54:	e8 9a fe ff ff       	call   804abf3 <Stmt>
 804ad59:	83 c4 10             	add    $0x10,%esp
 804ad5c:	8b 45 08             	mov    0x8(%ebp),%eax
 804ad5f:	8b 40 2c             	mov    0x2c(%eax),%eax
 804ad62:	85 c0                	test   %eax,%eax
 804ad64:	0f 84 b1 00 00 00    	je     804ae1b <Stmt+0x228>
 804ad6a:	8b 45 08             	mov    0x8(%ebp),%eax
 804ad6d:	8b 40 2c             	mov    0x2c(%eax),%eax
 804ad70:	8b 40 04             	mov    0x4(%eax),%eax
 804ad73:	83 f8 2d             	cmp    $0x2d,%eax
 804ad76:	0f 85 9f 00 00 00    	jne    804ae1b <Stmt+0x228>
 804ad7c:	8b 45 08             	mov    0x8(%ebp),%eax
 804ad7f:	8b 40 2c             	mov    0x2c(%eax),%eax
 804ad82:	83 ec 0c             	sub    $0xc,%esp
 804ad85:	50                   	push   %eax
 804ad86:	e8 68 fe ff ff       	call   804abf3 <Stmt>
 804ad8b:	83 c4 10             	add    $0x10,%esp
 804ad8e:	e9 88 00 00 00       	jmp    804ae1b <Stmt+0x228>
 804ad93:	8b 45 08             	mov    0x8(%ebp),%eax
 804ad96:	8b 40 1c             	mov    0x1c(%eax),%eax
 804ad99:	83 ec 0c             	sub    $0xc,%esp
 804ad9c:	50                   	push   %eax
 804ad9d:	e8 0a 03 00 00       	call   804b0ac <Exp>
 804ada2:	83 c4 10             	add    $0x10,%esp
 804ada5:	89 45 f4             	mov    %eax,-0xc(%ebp)
 804ada8:	83 7d f4 00          	cmpl   $0x0,-0xc(%ebp)
 804adac:	74 3d                	je     804adeb <Stmt+0x1f8>
 804adae:	8b 45 f4             	mov    -0xc(%ebp),%eax
 804adb1:	8b 00                	mov    (%eax),%eax
 804adb3:	85 c0                	test   %eax,%eax
 804adb5:	75 0a                	jne    804adc1 <Stmt+0x1ce>
 804adb7:	8b 45 f4             	mov    -0xc(%ebp),%eax
 804adba:	8b 40 04             	mov    0x4(%eax),%eax
 804adbd:	85 c0                	test   %eax,%eax
 804adbf:	74 2a                	je     804adeb <Stmt+0x1f8>
 804adc1:	a1 3c b1 05 08       	mov    0x805b13c,%eax
 804adc6:	83 c0 01             	add    $0x1,%eax
 804adc9:	a3 3c b1 05 08       	mov    %eax,0x805b13c
 804adce:	8b 45 08             	mov    0x8(%ebp),%eax
 804add1:	8b 40 1c             	mov    0x1c(%eax),%eax
 804add4:	8b 00                	mov    (%eax),%eax
 804add6:	68 60 5e 05 08       	push   $0x8055e60
 804addb:	50                   	push   %eax
 804addc:	6a 07                	push   $0x7
 804adde:	68 41 5e 05 08       	push   $0x8055e41
 804ade3:	e8 f8 d9 ff ff       	call   80487e0 <printf@plt>
 804ade8:	83 c4 10             	add    $0x10,%esp
 804adeb:	8b 45 08             	mov    0x8(%ebp),%eax
 804adee:	8b 40 24             	mov    0x24(%eax),%eax
 804adf1:	83 ec 0c             	sub    $0xc,%esp
 804adf4:	50                   	push   %eax
 804adf5:	e8 f9 fd ff ff       	call   804abf3 <Stmt>
 804adfa:	83 c4 10             	add    $0x10,%esp
 804adfd:	eb 1d                	jmp    804ae1c <Stmt+0x229>
 804adff:	68 8c 62 05 08       	push   $0x805628c
 804ae04:	68 5f 01 00 00       	push   $0x15f
 804ae09:	68 ad 5d 05 08       	push   $0x8055dad
 804ae0e:	68 b7 5d 05 08       	push   $0x8055db7
 804ae13:	e8 d8 db ff ff       	call   80489f0 <__assert_fail@plt>
 804ae18:	90                   	nop
 804ae19:	eb 01                	jmp    804ae1c <Stmt+0x229>
 804ae1b:	90                   	nop
 804ae1c:	90                   	nop
 804ae1d:	c9                   	leave  
 804ae1e:	c3                   	ret    

0804ae1f <DefList>:
 804ae1f:	55                   	push   %ebp
 804ae20:	89 e5                	mov    %esp,%ebp
 804ae22:	83 ec 18             	sub    $0x18,%esp
 804ae25:	83 7d 08 00          	cmpl   $0x0,0x8(%ebp)
 804ae29:	75 07                	jne    804ae32 <DefList+0x13>
 804ae2b:	b8 00 00 00 00       	mov    $0x0,%eax
 804ae30:	eb 59                	jmp    804ae8b <DefList+0x6c>
 804ae32:	8b 45 08             	mov    0x8(%ebp),%eax
 804ae35:	8b 40 14             	mov    0x14(%eax),%eax
 804ae38:	83 ec 04             	sub    $0x4,%esp
 804ae3b:	ff 75 10             	pushl  0x10(%ebp)
 804ae3e:	ff 75 0c             	pushl  0xc(%ebp)
 804ae41:	50                   	push   %eax
 804ae42:	e8 46 00 00 00       	call   804ae8d <Def>
 804ae47:	83 c4 10             	add    $0x10,%esp
 804ae4a:	8b 45 08             	mov    0x8(%ebp),%eax
 804ae4d:	8b 40 10             	mov    0x10(%eax),%eax
 804ae50:	83 f8 02             	cmp    $0x2,%eax
 804ae53:	75 33                	jne    804ae88 <DefList+0x69>
 804ae55:	8b 45 10             	mov    0x10(%ebp),%eax
 804ae58:	89 45 f4             	mov    %eax,-0xc(%ebp)
 804ae5b:	eb 09                	jmp    804ae66 <DefList+0x47>
 804ae5d:	8b 45 f4             	mov    -0xc(%ebp),%eax
 804ae60:	8b 40 08             	mov    0x8(%eax),%eax
 804ae63:	89 45 f4             	mov    %eax,-0xc(%ebp)
 804ae66:	8b 45 f4             	mov    -0xc(%ebp),%eax
 804ae69:	8b 40 08             	mov    0x8(%eax),%eax
 804ae6c:	85 c0                	test   %eax,%eax
 804ae6e:	75 ed                	jne    804ae5d <DefList+0x3e>
 804ae70:	8b 45 08             	mov    0x8(%ebp),%eax
 804ae73:	8b 40 18             	mov    0x18(%eax),%eax
 804ae76:	83 ec 04             	sub    $0x4,%esp
 804ae79:	ff 75 10             	pushl  0x10(%ebp)
 804ae7c:	ff 75 0c             	pushl  0xc(%ebp)
 804ae7f:	50                   	push   %eax
 804ae80:	e8 9a ff ff ff       	call   804ae1f <DefList>
 804ae85:	83 c4 10             	add    $0x10,%esp
 804ae88:	8b 45 10             	mov    0x10(%ebp),%eax
 804ae8b:	c9                   	leave  
 804ae8c:	c3                   	ret    

0804ae8d <Def>:
 804ae8d:	55                   	push   %ebp
 804ae8e:	89 e5                	mov    %esp,%ebp
 804ae90:	83 ec 18             	sub    $0x18,%esp
 804ae93:	8b 45 08             	mov    0x8(%ebp),%eax
 804ae96:	8b 40 14             	mov    0x14(%eax),%eax
 804ae99:	83 ec 0c             	sub    $0xc,%esp
 804ae9c:	50                   	push   %eax
 804ae9d:	e8 aa f7 ff ff       	call   804a64c <Specifier>
 804aea2:	83 c4 10             	add    $0x10,%esp
 804aea5:	89 45 f4             	mov    %eax,-0xc(%ebp)
 804aea8:	8b 45 08             	mov    0x8(%ebp),%eax
 804aeab:	8b 40 18             	mov    0x18(%eax),%eax
 804aeae:	ff 75 10             	pushl  0x10(%ebp)
 804aeb1:	ff 75 0c             	pushl  0xc(%ebp)
 804aeb4:	ff 75 f4             	pushl  -0xc(%ebp)
 804aeb7:	50                   	push   %eax
 804aeb8:	e8 05 00 00 00       	call   804aec2 <DecList>
 804aebd:	83 c4 10             	add    $0x10,%esp
 804aec0:	c9                   	leave  
 804aec1:	c3                   	ret    

0804aec2 <DecList>:
 804aec2:	55                   	push   %ebp
 804aec3:	89 e5                	mov    %esp,%ebp
 804aec5:	83 ec 18             	sub    $0x18,%esp
 804aec8:	8b 45 08             	mov    0x8(%ebp),%eax
 804aecb:	8b 40 14             	mov    0x14(%eax),%eax
 804aece:	ff 75 14             	pushl  0x14(%ebp)
 804aed1:	ff 75 10             	pushl  0x10(%ebp)
 804aed4:	ff 75 0c             	pushl  0xc(%ebp)
 804aed7:	50                   	push   %eax
 804aed8:	e8 2e 00 00 00       	call   804af0b <Dec>
 804aedd:	83 c4 10             	add    $0x10,%esp
 804aee0:	89 45 f4             	mov    %eax,-0xc(%ebp)
 804aee3:	8b 45 08             	mov    0x8(%ebp),%eax
 804aee6:	8b 40 10             	mov    0x10(%eax),%eax
 804aee9:	83 f8 03             	cmp    $0x3,%eax
 804aeec:	75 18                	jne    804af06 <DecList+0x44>
 804aeee:	8b 45 08             	mov    0x8(%ebp),%eax
 804aef1:	8b 40 1c             	mov    0x1c(%eax),%eax
 804aef4:	ff 75 14             	pushl  0x14(%ebp)
 804aef7:	ff 75 10             	pushl  0x10(%ebp)
 804aefa:	ff 75 0c             	pushl  0xc(%ebp)
 804aefd:	50                   	push   %eax
 804aefe:	e8 bf ff ff ff       	call   804aec2 <DecList>
 804af03:	83 c4 10             	add    $0x10,%esp
 804af06:	8b 45 14             	mov    0x14(%ebp),%eax
 804af09:	c9                   	leave  
 804af0a:	c3                   	ret    

0804af0b <Dec>:
 804af0b:	55                   	push   %ebp
 804af0c:	89 e5                	mov    %esp,%ebp
 804af0e:	83 ec 28             	sub    $0x28,%esp
 804af11:	8b 45 08             	mov    0x8(%ebp),%eax
 804af14:	8b 40 14             	mov    0x14(%eax),%eax
 804af17:	89 45 e4             	mov    %eax,-0x1c(%ebp)
 804af1a:	83 ec 08             	sub    $0x8,%esp
 804af1d:	ff 75 e4             	pushl  -0x1c(%ebp)
 804af20:	ff 75 0c             	pushl  0xc(%ebp)
 804af23:	e8 ac f9 ff ff       	call   804a8d4 <VarDec>
 804af28:	83 c4 10             	add    $0x10,%esp
 804af2b:	89 45 e8             	mov    %eax,-0x18(%ebp)
 804af2e:	83 7d 10 01          	cmpl   $0x1,0x10(%ebp)
 804af32:	75 42                	jne    804af76 <Dec+0x6b>
 804af34:	83 ec 0c             	sub    $0xc,%esp
 804af37:	ff 75 e8             	pushl  -0x18(%ebp)
 804af3a:	e8 8a 9f 00 00       	call   8054ec9 <insertTable>
 804af3f:	83 c4 10             	add    $0x10,%esp
 804af42:	89 45 ec             	mov    %eax,-0x14(%ebp)
 804af45:	83 7d ec 01          	cmpl   $0x1,-0x14(%ebp)
 804af49:	75 2b                	jne    804af76 <Dec+0x6b>
 804af4b:	a1 3c b1 05 08       	mov    0x805b13c,%eax
 804af50:	83 c0 01             	add    $0x1,%eax
 804af53:	a3 3c b1 05 08       	mov    %eax,0x805b13c
 804af58:	8b 45 e8             	mov    -0x18(%ebp),%eax
 804af5b:	8b 50 04             	mov    0x4(%eax),%edx
 804af5e:	8b 45 e8             	mov    -0x18(%ebp),%eax
 804af61:	8b 40 08             	mov    0x8(%eax),%eax
 804af64:	83 ec 04             	sub    $0x4,%esp
 804af67:	52                   	push   %edx
 804af68:	50                   	push   %eax
 804af69:	68 70 5d 05 08       	push   $0x8055d70
 804af6e:	e8 6d d8 ff ff       	call   80487e0 <printf@plt>
 804af73:	83 c4 10             	add    $0x10,%esp
 804af76:	83 ec 0c             	sub    $0xc,%esp
 804af79:	6a 0c                	push   $0xc
 804af7b:	e8 20 d9 ff ff       	call   80488a0 <malloc@plt>
 804af80:	83 c4 10             	add    $0x10,%esp
 804af83:	89 45 f0             	mov    %eax,-0x10(%ebp)
 804af86:	8b 45 e8             	mov    -0x18(%ebp),%eax
 804af89:	8b 50 04             	mov    0x4(%eax),%edx
 804af8c:	8b 45 f0             	mov    -0x10(%ebp),%eax
 804af8f:	89 10                	mov    %edx,(%eax)
 804af91:	8b 45 e8             	mov    -0x18(%ebp),%eax
 804af94:	8b 50 0c             	mov    0xc(%eax),%edx
 804af97:	8b 45 f0             	mov    -0x10(%ebp),%eax
 804af9a:	89 50 04             	mov    %edx,0x4(%eax)
 804af9d:	8b 45 f0             	mov    -0x10(%ebp),%eax
 804afa0:	c7 40 08 00 00 00 00 	movl   $0x0,0x8(%eax)
 804afa7:	8b 45 14             	mov    0x14(%ebp),%eax
 804afaa:	89 45 e0             	mov    %eax,-0x20(%ebp)
 804afad:	83 7d 10 00          	cmpl   $0x0,0x10(%ebp)
 804afb1:	75 6b                	jne    804b01e <Dec+0x113>
 804afb3:	83 7d e0 00          	cmpl   $0x0,-0x20(%ebp)
 804afb7:	74 65                	je     804b01e <Dec+0x113>
 804afb9:	eb 50                	jmp    804b00b <Dec+0x100>
 804afbb:	8b 45 e8             	mov    -0x18(%ebp),%eax
 804afbe:	8b 50 04             	mov    0x4(%eax),%edx
 804afc1:	8b 45 e0             	mov    -0x20(%ebp),%eax
 804afc4:	8b 00                	mov    (%eax),%eax
 804afc6:	83 ec 08             	sub    $0x8,%esp
 804afc9:	52                   	push   %edx
 804afca:	50                   	push   %eax
 804afcb:	e8 00 d8 ff ff       	call   80487d0 <strcmp@plt>
 804afd0:	83 c4 10             	add    $0x10,%esp
 804afd3:	85 c0                	test   %eax,%eax
 804afd5:	75 2b                	jne    804b002 <Dec+0xf7>
 804afd7:	a1 3c b1 05 08       	mov    0x805b13c,%eax
 804afdc:	83 c0 01             	add    $0x1,%eax
 804afdf:	a3 3c b1 05 08       	mov    %eax,0x805b13c
 804afe4:	8b 45 e8             	mov    -0x18(%ebp),%eax
 804afe7:	8b 50 04             	mov    0x4(%eax),%edx
 804afea:	8b 45 e8             	mov    -0x18(%ebp),%eax
 804afed:	8b 40 08             	mov    0x8(%eax),%eax
 804aff0:	83 ec 04             	sub    $0x4,%esp
 804aff3:	52                   	push   %edx
 804aff4:	50                   	push   %eax
 804aff5:	68 e0 5e 05 08       	push   $0x8055ee0
 804affa:	e8 e1 d7 ff ff       	call   80487e0 <printf@plt>
 804afff:	83 c4 10             	add    $0x10,%esp
 804b002:	8b 45 e0             	mov    -0x20(%ebp),%eax
 804b005:	8b 40 08             	mov    0x8(%eax),%eax
 804b008:	89 45 e0             	mov    %eax,-0x20(%ebp)
 804b00b:	8b 45 e0             	mov    -0x20(%ebp),%eax
 804b00e:	8b 40 08             	mov    0x8(%eax),%eax
 804b011:	85 c0                	test   %eax,%eax
 804b013:	75 a6                	jne    804afbb <Dec+0xb0>
 804b015:	8b 45 e0             	mov    -0x20(%ebp),%eax
 804b018:	8b 55 f0             	mov    -0x10(%ebp),%edx
 804b01b:	89 50 08             	mov    %edx,0x8(%eax)
 804b01e:	8b 45 08             	mov    0x8(%ebp),%eax
 804b021:	8b 40 10             	mov    0x10(%eax),%eax
 804b024:	83 f8 03             	cmp    $0x3,%eax
 804b027:	75 7e                	jne    804b0a7 <Dec+0x19c>
 804b029:	8b 45 08             	mov    0x8(%ebp),%eax
 804b02c:	8b 40 1c             	mov    0x1c(%eax),%eax
 804b02f:	83 ec 0c             	sub    $0xc,%esp
 804b032:	50                   	push   %eax
 804b033:	e8 74 00 00 00       	call   804b0ac <Exp>
 804b038:	83 c4 10             	add    $0x10,%esp
 804b03b:	89 45 f4             	mov    %eax,-0xc(%ebp)
 804b03e:	83 ec 08             	sub    $0x8,%esp
 804b041:	ff 75 f4             	pushl  -0xc(%ebp)
 804b044:	ff 75 0c             	pushl  0xc(%ebp)
 804b047:	e8 72 a1 00 00       	call   80551be <compareType>
 804b04c:	83 c4 10             	add    $0x10,%esp
 804b04f:	85 c0                	test   %eax,%eax
 804b051:	75 27                	jne    804b07a <Dec+0x16f>
 804b053:	a1 3c b1 05 08       	mov    0x805b13c,%eax
 804b058:	83 c0 01             	add    $0x1,%eax
 804b05b:	a3 3c b1 05 08       	mov    %eax,0x805b13c
 804b060:	8b 45 08             	mov    0x8(%ebp),%eax
 804b063:	8b 00                	mov    (%eax),%eax
 804b065:	68 14 5f 05 08       	push   $0x8055f14
 804b06a:	50                   	push   %eax
 804b06b:	6a 05                	push   $0x5
 804b06d:	68 41 5e 05 08       	push   $0x8055e41
 804b072:	e8 69 d7 ff ff       	call   80487e0 <printf@plt>
 804b077:	83 c4 10             	add    $0x10,%esp
 804b07a:	83 7d 10 00          	cmpl   $0x0,0x10(%ebp)
 804b07e:	75 27                	jne    804b0a7 <Dec+0x19c>
 804b080:	a1 3c b1 05 08       	mov    0x805b13c,%eax
 804b085:	83 c0 01             	add    $0x1,%eax
 804b088:	a3 3c b1 05 08       	mov    %eax,0x805b13c
 804b08d:	8b 45 08             	mov    0x8(%ebp),%eax
 804b090:	8b 00                	mov    (%eax),%eax
 804b092:	68 34 5f 05 08       	push   $0x8055f34
 804b097:	50                   	push   %eax
 804b098:	6a 0f                	push   $0xf
 804b09a:	68 41 5e 05 08       	push   $0x8055e41
 804b09f:	e8 3c d7 ff ff       	call   80487e0 <printf@plt>
 804b0a4:	83 c4 10             	add    $0x10,%esp
 804b0a7:	8b 45 14             	mov    0x14(%ebp),%eax
 804b0aa:	c9                   	leave  
 804b0ab:	c3                   	ret    

0804b0ac <Exp>:
 804b0ac:	55                   	push   %ebp
 804b0ad:	89 e5                	mov    %esp,%ebp
 804b0af:	83 ec 38             	sub    $0x38,%esp
 804b0b2:	83 7d 08 00          	cmpl   $0x0,0x8(%ebp)
 804b0b6:	75 0a                	jne    804b0c2 <Exp+0x16>
 804b0b8:	b8 00 00 00 00       	mov    $0x0,%eax
 804b0bd:	e9 48 06 00 00       	jmp    804b70a <Exp+0x65e>
 804b0c2:	8b 45 08             	mov    0x8(%ebp),%eax
 804b0c5:	8b 40 14             	mov    0x14(%eax),%eax
 804b0c8:	89 45 dc             	mov    %eax,-0x24(%ebp)
 804b0cb:	8b 45 08             	mov    0x8(%ebp),%eax
 804b0ce:	8b 40 18             	mov    0x18(%eax),%eax
 804b0d1:	89 45 e0             	mov    %eax,-0x20(%ebp)
 804b0d4:	8b 45 08             	mov    0x8(%ebp),%eax
 804b0d7:	8b 40 1c             	mov    0x1c(%eax),%eax
 804b0da:	89 45 e4             	mov    %eax,-0x1c(%ebp)
 804b0dd:	c7 45 d4 00 00 00 00 	movl   $0x0,-0x2c(%ebp)
 804b0e4:	c7 45 e8 00 00 00 00 	movl   $0x0,-0x18(%ebp)
 804b0eb:	8b 45 dc             	mov    -0x24(%ebp),%eax
 804b0ee:	8b 40 04             	mov    0x4(%eax),%eax
 804b0f1:	83 f8 32             	cmp    $0x32,%eax
 804b0f4:	0f 87 e2 05 00 00    	ja     804b6dc <Exp+0x630>
 804b0fa:	8b 04 85 78 61 05 08 	mov    0x8056178(,%eax,4),%eax
 804b101:	ff e0                	jmp    *%eax
 804b103:	83 ec 0c             	sub    $0xc,%esp
 804b106:	ff 75 dc             	pushl  -0x24(%ebp)
 804b109:	e8 9e ff ff ff       	call   804b0ac <Exp>
 804b10e:	83 c4 10             	add    $0x10,%esp
 804b111:	89 45 d4             	mov    %eax,-0x2c(%ebp)
 804b114:	8b 45 e0             	mov    -0x20(%ebp),%eax
 804b117:	8b 40 04             	mov    0x4(%eax),%eax
 804b11a:	83 f8 0a             	cmp    $0xa,%eax
 804b11d:	0f 85 bc 00 00 00    	jne    804b1df <Exp+0x133>
 804b123:	83 7d d4 00          	cmpl   $0x0,-0x2c(%ebp)
 804b127:	74 45                	je     804b16e <Exp+0xc2>
 804b129:	83 ec 0c             	sub    $0xc,%esp
 804b12c:	ff 75 dc             	pushl  -0x24(%ebp)
 804b12f:	e8 d8 05 00 00       	call   804b70c <isLeftVar>
 804b134:	83 c4 10             	add    $0x10,%esp
 804b137:	85 c0                	test   %eax,%eax
 804b139:	75 33                	jne    804b16e <Exp+0xc2>
 804b13b:	a1 3c b1 05 08       	mov    0x805b13c,%eax
 804b140:	83 c0 01             	add    $0x1,%eax
 804b143:	a3 3c b1 05 08       	mov    %eax,0x805b13c
 804b148:	8b 45 08             	mov    0x8(%ebp),%eax
 804b14b:	8b 00                	mov    (%eax),%eax
 804b14d:	68 60 5f 05 08       	push   $0x8055f60
 804b152:	50                   	push   %eax
 804b153:	6a 06                	push   $0x6
 804b155:	68 41 5e 05 08       	push   $0x8055e41
 804b15a:	e8 81 d6 ff ff       	call   80487e0 <printf@plt>
 804b15f:	83 c4 10             	add    $0x10,%esp
 804b162:	c7 45 d4 00 00 00 00 	movl   $0x0,-0x2c(%ebp)
 804b169:	e9 24 03 00 00       	jmp    804b492 <Exp+0x3e6>
 804b16e:	83 ec 0c             	sub    $0xc,%esp
 804b171:	ff 75 e4             	pushl  -0x1c(%ebp)
 804b174:	e8 33 ff ff ff       	call   804b0ac <Exp>
 804b179:	83 c4 10             	add    $0x10,%esp
 804b17c:	89 45 e8             	mov    %eax,-0x18(%ebp)
 804b17f:	83 7d d4 00          	cmpl   $0x0,-0x2c(%ebp)
 804b183:	0f 84 7a 05 00 00    	je     804b703 <Exp+0x657>
 804b189:	83 7d e8 00          	cmpl   $0x0,-0x18(%ebp)
 804b18d:	0f 84 70 05 00 00    	je     804b703 <Exp+0x657>
 804b193:	83 ec 08             	sub    $0x8,%esp
 804b196:	ff 75 e8             	pushl  -0x18(%ebp)
 804b199:	ff 75 d4             	pushl  -0x2c(%ebp)
 804b19c:	e8 1d a0 00 00       	call   80551be <compareType>
 804b1a1:	83 c4 10             	add    $0x10,%esp
 804b1a4:	85 c0                	test   %eax,%eax
 804b1a6:	0f 85 57 05 00 00    	jne    804b703 <Exp+0x657>
 804b1ac:	a1 3c b1 05 08       	mov    0x805b13c,%eax
 804b1b1:	83 c0 01             	add    $0x1,%eax
 804b1b4:	a3 3c b1 05 08       	mov    %eax,0x805b13c
 804b1b9:	8b 45 08             	mov    0x8(%ebp),%eax
 804b1bc:	8b 00                	mov    (%eax),%eax
 804b1be:	68 14 5f 05 08       	push   $0x8055f14
 804b1c3:	50                   	push   %eax
 804b1c4:	6a 05                	push   $0x5
 804b1c6:	68 41 5e 05 08       	push   $0x8055e41
 804b1cb:	e8 10 d6 ff ff       	call   80487e0 <printf@plt>
 804b1d0:	83 c4 10             	add    $0x10,%esp
 804b1d3:	c7 45 d4 00 00 00 00 	movl   $0x0,-0x2c(%ebp)
 804b1da:	e9 24 05 00 00       	jmp    804b703 <Exp+0x657>
 804b1df:	8b 45 e0             	mov    -0x20(%ebp),%eax
 804b1e2:	8b 40 04             	mov    0x4(%eax),%eax
 804b1e5:	83 f8 10             	cmp    $0x10,%eax
 804b1e8:	74 0b                	je     804b1f5 <Exp+0x149>
 804b1ea:	8b 45 e0             	mov    -0x20(%ebp),%eax
 804b1ed:	8b 40 04             	mov    0x4(%eax),%eax
 804b1f0:	83 f8 11             	cmp    $0x11,%eax
 804b1f3:	75 6a                	jne    804b25f <Exp+0x1b3>
 804b1f5:	83 ec 0c             	sub    $0xc,%esp
 804b1f8:	ff 75 e4             	pushl  -0x1c(%ebp)
 804b1fb:	e8 ac fe ff ff       	call   804b0ac <Exp>
 804b200:	83 c4 10             	add    $0x10,%esp
 804b203:	89 45 e8             	mov    %eax,-0x18(%ebp)
 804b206:	83 7d d4 00          	cmpl   $0x0,-0x2c(%ebp)
 804b20a:	74 09                	je     804b215 <Exp+0x169>
 804b20c:	8b 45 d4             	mov    -0x2c(%ebp),%eax
 804b20f:	8b 00                	mov    (%eax),%eax
 804b211:	85 c0                	test   %eax,%eax
 804b213:	75 17                	jne    804b22c <Exp+0x180>
 804b215:	83 7d e8 00          	cmpl   $0x0,-0x18(%ebp)
 804b219:	0f 84 6c 02 00 00    	je     804b48b <Exp+0x3df>
 804b21f:	8b 45 e8             	mov    -0x18(%ebp),%eax
 804b222:	8b 00                	mov    (%eax),%eax
 804b224:	85 c0                	test   %eax,%eax
 804b226:	0f 84 5f 02 00 00    	je     804b48b <Exp+0x3df>
 804b22c:	a1 3c b1 05 08       	mov    0x805b13c,%eax
 804b231:	83 c0 01             	add    $0x1,%eax
 804b234:	a3 3c b1 05 08       	mov    %eax,0x805b13c
 804b239:	8b 45 08             	mov    0x8(%ebp),%eax
 804b23c:	8b 00                	mov    (%eax),%eax
 804b23e:	68 98 5f 05 08       	push   $0x8055f98
 804b243:	50                   	push   %eax
 804b244:	6a 07                	push   $0x7
 804b246:	68 41 5e 05 08       	push   $0x8055e41
 804b24b:	e8 90 d5 ff ff       	call   80487e0 <printf@plt>
 804b250:	83 c4 10             	add    $0x10,%esp
 804b253:	c7 45 d4 00 00 00 00 	movl   $0x0,-0x2c(%ebp)
 804b25a:	e9 2c 02 00 00       	jmp    804b48b <Exp+0x3df>
 804b25f:	8b 45 e0             	mov    -0x20(%ebp),%eax
 804b262:	8b 40 04             	mov    0x4(%eax),%eax
 804b265:	83 f8 0c             	cmp    $0xc,%eax
 804b268:	74 2c                	je     804b296 <Exp+0x1ea>
 804b26a:	8b 45 e0             	mov    -0x20(%ebp),%eax
 804b26d:	8b 40 04             	mov    0x4(%eax),%eax
 804b270:	83 f8 0d             	cmp    $0xd,%eax
 804b273:	74 21                	je     804b296 <Exp+0x1ea>
 804b275:	8b 45 e0             	mov    -0x20(%ebp),%eax
 804b278:	8b 40 04             	mov    0x4(%eax),%eax
 804b27b:	83 f8 0e             	cmp    $0xe,%eax
 804b27e:	74 16                	je     804b296 <Exp+0x1ea>
 804b280:	8b 45 e0             	mov    -0x20(%ebp),%eax
 804b283:	8b 40 04             	mov    0x4(%eax),%eax
 804b286:	83 f8 0f             	cmp    $0xf,%eax
 804b289:	74 0b                	je     804b296 <Exp+0x1ea>
 804b28b:	8b 45 e0             	mov    -0x20(%ebp),%eax
 804b28e:	8b 40 04             	mov    0x4(%eax),%eax
 804b291:	83 f8 0b             	cmp    $0xb,%eax
 804b294:	75 70                	jne    804b306 <Exp+0x25a>
 804b296:	83 ec 0c             	sub    $0xc,%esp
 804b299:	ff 75 e4             	pushl  -0x1c(%ebp)
 804b29c:	e8 0b fe ff ff       	call   804b0ac <Exp>
 804b2a1:	83 c4 10             	add    $0x10,%esp
 804b2a4:	89 45 e8             	mov    %eax,-0x18(%ebp)
 804b2a7:	83 7d d4 00          	cmpl   $0x0,-0x2c(%ebp)
 804b2ab:	0f 84 e0 01 00 00    	je     804b491 <Exp+0x3e5>
 804b2b1:	8b 45 d4             	mov    -0x2c(%ebp),%eax
 804b2b4:	8b 00                	mov    (%eax),%eax
 804b2b6:	85 c0                	test   %eax,%eax
 804b2b8:	75 19                	jne    804b2d3 <Exp+0x227>
 804b2ba:	83 ec 08             	sub    $0x8,%esp
 804b2bd:	ff 75 e8             	pushl  -0x18(%ebp)
 804b2c0:	ff 75 d4             	pushl  -0x2c(%ebp)
 804b2c3:	e8 f6 9e 00 00       	call   80551be <compareType>
 804b2c8:	83 c4 10             	add    $0x10,%esp
 804b2cb:	85 c0                	test   %eax,%eax
 804b2cd:	0f 85 be 01 00 00    	jne    804b491 <Exp+0x3e5>
 804b2d3:	a1 3c b1 05 08       	mov    0x805b13c,%eax
 804b2d8:	83 c0 01             	add    $0x1,%eax
 804b2db:	a3 3c b1 05 08       	mov    %eax,0x805b13c
 804b2e0:	8b 45 08             	mov    0x8(%ebp),%eax
 804b2e3:	8b 00                	mov    (%eax),%eax
 804b2e5:	68 98 5f 05 08       	push   $0x8055f98
 804b2ea:	50                   	push   %eax
 804b2eb:	6a 07                	push   $0x7
 804b2ed:	68 41 5e 05 08       	push   $0x8055e41
 804b2f2:	e8 e9 d4 ff ff       	call   80487e0 <printf@plt>
 804b2f7:	83 c4 10             	add    $0x10,%esp
 804b2fa:	c7 45 d4 00 00 00 00 	movl   $0x0,-0x2c(%ebp)
 804b301:	e9 8b 01 00 00       	jmp    804b491 <Exp+0x3e5>
 804b306:	8b 45 e0             	mov    -0x20(%ebp),%eax
 804b309:	8b 40 04             	mov    0x4(%eax),%eax
 804b30c:	83 f8 16             	cmp    $0x16,%eax
 804b30f:	0f 85 a0 00 00 00    	jne    804b3b5 <Exp+0x309>
 804b315:	83 ec 0c             	sub    $0xc,%esp
 804b318:	ff 75 e4             	pushl  -0x1c(%ebp)
 804b31b:	e8 8c fd ff ff       	call   804b0ac <Exp>
 804b320:	83 c4 10             	add    $0x10,%esp
 804b323:	89 45 e8             	mov    %eax,-0x18(%ebp)
 804b326:	8b 45 d4             	mov    -0x2c(%ebp),%eax
 804b329:	8b 00                	mov    (%eax),%eax
 804b32b:	83 f8 01             	cmp    $0x1,%eax
 804b32e:	74 2f                	je     804b35f <Exp+0x2b3>
 804b330:	a1 3c b1 05 08       	mov    0x805b13c,%eax
 804b335:	83 c0 01             	add    $0x1,%eax
 804b338:	a3 3c b1 05 08       	mov    %eax,0x805b13c
 804b33d:	8b 45 dc             	mov    -0x24(%ebp),%eax
 804b340:	8b 00                	mov    (%eax),%eax
 804b342:	83 ec 08             	sub    $0x8,%esp
 804b345:	50                   	push   %eax
 804b346:	68 b8 5f 05 08       	push   $0x8055fb8
 804b34b:	e8 90 d4 ff ff       	call   80487e0 <printf@plt>
 804b350:	83 c4 10             	add    $0x10,%esp
 804b353:	c7 45 d4 00 00 00 00 	movl   $0x0,-0x2c(%ebp)
 804b35a:	e9 a4 03 00 00       	jmp    804b703 <Exp+0x657>
 804b35f:	83 7d e8 00          	cmpl   $0x0,-0x18(%ebp)
 804b363:	74 42                	je     804b3a7 <Exp+0x2fb>
 804b365:	8b 45 e8             	mov    -0x18(%ebp),%eax
 804b368:	8b 00                	mov    (%eax),%eax
 804b36a:	85 c0                	test   %eax,%eax
 804b36c:	75 0a                	jne    804b378 <Exp+0x2cc>
 804b36e:	8b 45 e8             	mov    -0x18(%ebp),%eax
 804b371:	8b 40 04             	mov    0x4(%eax),%eax
 804b374:	85 c0                	test   %eax,%eax
 804b376:	74 2f                	je     804b3a7 <Exp+0x2fb>
 804b378:	a1 3c b1 05 08       	mov    0x805b13c,%eax
 804b37d:	83 c0 01             	add    $0x1,%eax
 804b380:	a3 3c b1 05 08       	mov    %eax,0x805b13c
 804b385:	8b 45 e4             	mov    -0x1c(%ebp),%eax
 804b388:	8b 00                	mov    (%eax),%eax
 804b38a:	83 ec 08             	sub    $0x8,%esp
 804b38d:	50                   	push   %eax
 804b38e:	68 f0 5f 05 08       	push   $0x8055ff0
 804b393:	e8 48 d4 ff ff       	call   80487e0 <printf@plt>
 804b398:	83 c4 10             	add    $0x10,%esp
 804b39b:	c7 45 d4 00 00 00 00 	movl   $0x0,-0x2c(%ebp)
 804b3a2:	e9 eb 00 00 00       	jmp    804b492 <Exp+0x3e6>
 804b3a7:	8b 45 d4             	mov    -0x2c(%ebp),%eax
 804b3aa:	8b 40 04             	mov    0x4(%eax),%eax
 804b3ad:	89 45 d4             	mov    %eax,-0x2c(%ebp)
 804b3b0:	e9 4e 03 00 00       	jmp    804b703 <Exp+0x657>
 804b3b5:	8b 45 e0             	mov    -0x20(%ebp),%eax
 804b3b8:	8b 40 04             	mov    0x4(%eax),%eax
 804b3bb:	83 f8 12             	cmp    $0x12,%eax
 804b3be:	0f 85 ae 00 00 00    	jne    804b472 <Exp+0x3c6>
 804b3c4:	83 7d d4 00          	cmpl   $0x0,-0x2c(%ebp)
 804b3c8:	74 32                	je     804b3fc <Exp+0x350>
 804b3ca:	8b 45 d4             	mov    -0x2c(%ebp),%eax
 804b3cd:	8b 00                	mov    (%eax),%eax
 804b3cf:	83 f8 02             	cmp    $0x2,%eax
 804b3d2:	74 28                	je     804b3fc <Exp+0x350>
 804b3d4:	a1 3c b1 05 08       	mov    0x805b13c,%eax
 804b3d9:	83 c0 01             	add    $0x1,%eax
 804b3dc:	a3 3c b1 05 08       	mov    %eax,0x805b13c
 804b3e1:	8b 45 e0             	mov    -0x20(%ebp),%eax
 804b3e4:	8b 00                	mov    (%eax),%eax
 804b3e6:	83 ec 08             	sub    $0x8,%esp
 804b3e9:	50                   	push   %eax
 804b3ea:	68 2c 60 05 08       	push   $0x805602c
 804b3ef:	e8 ec d3 ff ff       	call   80487e0 <printf@plt>
 804b3f4:	83 c4 10             	add    $0x10,%esp
 804b3f7:	e9 96 00 00 00       	jmp    804b492 <Exp+0x3e6>
 804b3fc:	83 7d d4 00          	cmpl   $0x0,-0x2c(%ebp)
 804b400:	75 0c                	jne    804b40e <Exp+0x362>
 804b402:	c7 45 d4 00 00 00 00 	movl   $0x0,-0x2c(%ebp)
 804b409:	e9 f5 02 00 00       	jmp    804b703 <Exp+0x657>
 804b40e:	8b 45 e4             	mov    -0x1c(%ebp),%eax
 804b411:	8b 40 08             	mov    0x8(%eax),%eax
 804b414:	89 45 ec             	mov    %eax,-0x14(%ebp)
 804b417:	8b 45 d4             	mov    -0x2c(%ebp),%eax
 804b41a:	8b 40 04             	mov    0x4(%eax),%eax
 804b41d:	83 ec 08             	sub    $0x8,%esp
 804b420:	ff 75 ec             	pushl  -0x14(%ebp)
 804b423:	50                   	push   %eax
 804b424:	e8 57 9d 00 00       	call   8055180 <structureField>
 804b429:	83 c4 10             	add    $0x10,%esp
 804b42c:	89 45 e8             	mov    %eax,-0x18(%ebp)
 804b42f:	83 7d e8 00          	cmpl   $0x0,-0x18(%ebp)
 804b433:	75 32                	jne    804b467 <Exp+0x3bb>
 804b435:	a1 3c b1 05 08       	mov    0x805b13c,%eax
 804b43a:	83 c0 01             	add    $0x1,%eax
 804b43d:	a3 3c b1 05 08       	mov    %eax,0x805b13c
 804b442:	8b 45 e4             	mov    -0x1c(%ebp),%eax
 804b445:	8b 00                	mov    (%eax),%eax
 804b447:	83 ec 04             	sub    $0x4,%esp
 804b44a:	ff 75 ec             	pushl  -0x14(%ebp)
 804b44d:	50                   	push   %eax
 804b44e:	68 5c 60 05 08       	push   $0x805605c
 804b453:	e8 88 d3 ff ff       	call   80487e0 <printf@plt>
 804b458:	83 c4 10             	add    $0x10,%esp
 804b45b:	c7 45 d4 00 00 00 00 	movl   $0x0,-0x2c(%ebp)
 804b462:	e9 9c 02 00 00       	jmp    804b703 <Exp+0x657>
 804b467:	8b 45 e8             	mov    -0x18(%ebp),%eax
 804b46a:	89 45 d4             	mov    %eax,-0x2c(%ebp)
 804b46d:	e9 91 02 00 00       	jmp    804b703 <Exp+0x657>
 804b472:	68 94 62 05 08       	push   $0x8056294
 804b477:	68 25 02 00 00       	push   $0x225
 804b47c:	68 ad 5d 05 08       	push   $0x8055dad
 804b481:	68 b7 5d 05 08       	push   $0x8055db7
 804b486:	e8 65 d5 ff ff       	call   80489f0 <__assert_fail@plt>
 804b48b:	90                   	nop
 804b48c:	e9 72 02 00 00       	jmp    804b703 <Exp+0x657>
 804b491:	90                   	nop
 804b492:	e9 6c 02 00 00       	jmp    804b703 <Exp+0x657>
 804b497:	83 7d e0 00          	cmpl   $0x0,-0x20(%ebp)
 804b49b:	75 79                	jne    804b516 <Exp+0x46a>
 804b49d:	8b 45 dc             	mov    -0x24(%ebp),%eax
 804b4a0:	8b 40 08             	mov    0x8(%eax),%eax
 804b4a3:	83 ec 0c             	sub    $0xc,%esp
 804b4a6:	50                   	push   %eax
 804b4a7:	e8 a5 99 00 00       	call   8054e51 <searchTable>
 804b4ac:	83 c4 10             	add    $0x10,%esp
 804b4af:	89 45 f0             	mov    %eax,-0x10(%ebp)
 804b4b2:	83 7d f0 00          	cmpl   $0x0,-0x10(%ebp)
 804b4b6:	75 36                	jne    804b4ee <Exp+0x442>
 804b4b8:	a1 3c b1 05 08       	mov    0x805b13c,%eax
 804b4bd:	83 c0 01             	add    $0x1,%eax
 804b4c0:	a3 3c b1 05 08       	mov    %eax,0x805b13c
 804b4c5:	8b 45 dc             	mov    -0x24(%ebp),%eax
 804b4c8:	8b 50 08             	mov    0x8(%eax),%edx
 804b4cb:	8b 45 08             	mov    0x8(%ebp),%eax
 804b4ce:	8b 00                	mov    (%eax),%eax
 804b4d0:	83 ec 04             	sub    $0x4,%esp
 804b4d3:	52                   	push   %edx
 804b4d4:	50                   	push   %eax
 804b4d5:	68 90 60 05 08       	push   $0x8056090
 804b4da:	e8 01 d3 ff ff       	call   80487e0 <printf@plt>
 804b4df:	83 c4 10             	add    $0x10,%esp
 804b4e2:	c7 45 d4 00 00 00 00 	movl   $0x0,-0x2c(%ebp)
 804b4e9:	e9 18 02 00 00       	jmp    804b706 <Exp+0x65a>
 804b4ee:	8b 45 f0             	mov    -0x10(%ebp),%eax
 804b4f1:	8b 00                	mov    (%eax),%eax
 804b4f3:	83 f8 01             	cmp    $0x1,%eax
 804b4f6:	75 10                	jne    804b508 <Exp+0x45c>
 804b4f8:	8b 45 f0             	mov    -0x10(%ebp),%eax
 804b4fb:	8b 40 0c             	mov    0xc(%eax),%eax
 804b4fe:	8b 00                	mov    (%eax),%eax
 804b500:	89 45 d4             	mov    %eax,-0x2c(%ebp)
 804b503:	e9 fe 01 00 00       	jmp    804b706 <Exp+0x65a>
 804b508:	8b 45 f0             	mov    -0x10(%ebp),%eax
 804b50b:	8b 40 0c             	mov    0xc(%eax),%eax
 804b50e:	89 45 d4             	mov    %eax,-0x2c(%ebp)
 804b511:	e9 f0 01 00 00       	jmp    804b706 <Exp+0x65a>
 804b516:	8b 45 e0             	mov    -0x20(%ebp),%eax
 804b519:	8b 40 04             	mov    0x4(%eax),%eax
 804b51c:	83 f8 14             	cmp    $0x14,%eax
 804b51f:	0f 85 e1 01 00 00    	jne    804b706 <Exp+0x65a>
 804b525:	8b 45 dc             	mov    -0x24(%ebp),%eax
 804b528:	8b 40 08             	mov    0x8(%eax),%eax
 804b52b:	83 ec 0c             	sub    $0xc,%esp
 804b52e:	50                   	push   %eax
 804b52f:	e8 1d 99 00 00       	call   8054e51 <searchTable>
 804b534:	83 c4 10             	add    $0x10,%esp
 804b537:	89 45 f4             	mov    %eax,-0xc(%ebp)
 804b53a:	83 7d f4 00          	cmpl   $0x0,-0xc(%ebp)
 804b53e:	75 36                	jne    804b576 <Exp+0x4ca>
 804b540:	a1 3c b1 05 08       	mov    0x805b13c,%eax
 804b545:	83 c0 01             	add    $0x1,%eax
 804b548:	a3 3c b1 05 08       	mov    %eax,0x805b13c
 804b54d:	8b 45 dc             	mov    -0x24(%ebp),%eax
 804b550:	8b 50 08             	mov    0x8(%eax),%edx
 804b553:	8b 45 08             	mov    0x8(%ebp),%eax
 804b556:	8b 00                	mov    (%eax),%eax
 804b558:	83 ec 04             	sub    $0x4,%esp
 804b55b:	52                   	push   %edx
 804b55c:	50                   	push   %eax
 804b55d:	68 c4 60 05 08       	push   $0x80560c4
 804b562:	e8 79 d2 ff ff       	call   80487e0 <printf@plt>
 804b567:	83 c4 10             	add    $0x10,%esp
 804b56a:	c7 45 d4 00 00 00 00 	movl   $0x0,-0x2c(%ebp)
 804b571:	e9 90 01 00 00       	jmp    804b706 <Exp+0x65a>
 804b576:	8b 45 f4             	mov    -0xc(%ebp),%eax
 804b579:	8b 00                	mov    (%eax),%eax
 804b57b:	83 f8 01             	cmp    $0x1,%eax
 804b57e:	74 36                	je     804b5b6 <Exp+0x50a>
 804b580:	a1 3c b1 05 08       	mov    0x805b13c,%eax
 804b585:	83 c0 01             	add    $0x1,%eax
 804b588:	a3 3c b1 05 08       	mov    %eax,0x805b13c
 804b58d:	8b 45 f4             	mov    -0xc(%ebp),%eax
 804b590:	8b 50 04             	mov    0x4(%eax),%edx
 804b593:	8b 45 dc             	mov    -0x24(%ebp),%eax
 804b596:	8b 00                	mov    (%eax),%eax
 804b598:	83 ec 04             	sub    $0x4,%esp
 804b59b:	52                   	push   %edx
 804b59c:	50                   	push   %eax
 804b59d:	68 f8 60 05 08       	push   $0x80560f8
 804b5a2:	e8 39 d2 ff ff       	call   80487e0 <printf@plt>
 804b5a7:	83 c4 10             	add    $0x10,%esp
 804b5aa:	c7 45 d4 00 00 00 00 	movl   $0x0,-0x2c(%ebp)
 804b5b1:	e9 50 01 00 00       	jmp    804b706 <Exp+0x65a>
 804b5b6:	c7 45 d8 00 00 00 00 	movl   $0x0,-0x28(%ebp)
 804b5bd:	8b 45 f4             	mov    -0xc(%ebp),%eax
 804b5c0:	8b 40 0c             	mov    0xc(%eax),%eax
 804b5c3:	8b 00                	mov    (%eax),%eax
 804b5c5:	89 45 d4             	mov    %eax,-0x2c(%ebp)
 804b5c8:	8b 45 e4             	mov    -0x1c(%ebp),%eax
 804b5cb:	8b 40 04             	mov    0x4(%eax),%eax
 804b5ce:	83 f8 33             	cmp    $0x33,%eax
 804b5d1:	75 15                	jne    804b5e8 <Exp+0x53c>
 804b5d3:	8b 45 08             	mov    0x8(%ebp),%eax
 804b5d6:	8b 40 1c             	mov    0x1c(%eax),%eax
 804b5d9:	83 ec 0c             	sub    $0xc,%esp
 804b5dc:	50                   	push   %eax
 804b5dd:	e8 23 02 00 00       	call   804b805 <Args>
 804b5e2:	83 c4 10             	add    $0x10,%esp
 804b5e5:	89 45 d8             	mov    %eax,-0x28(%ebp)
 804b5e8:	8b 45 f4             	mov    -0xc(%ebp),%eax
 804b5eb:	8b 40 0c             	mov    0xc(%eax),%eax
 804b5ee:	8b 40 04             	mov    0x4(%eax),%eax
 804b5f1:	83 ec 08             	sub    $0x8,%esp
 804b5f4:	50                   	push   %eax
 804b5f5:	ff 75 d8             	pushl  -0x28(%ebp)
 804b5f8:	e8 cd 9c 00 00       	call   80552ca <compareArgs>
 804b5fd:	83 c4 10             	add    $0x10,%esp
 804b600:	85 c0                	test   %eax,%eax
 804b602:	0f 85 fe 00 00 00    	jne    804b706 <Exp+0x65a>
 804b608:	a1 3c b1 05 08       	mov    0x805b13c,%eax
 804b60d:	83 c0 01             	add    $0x1,%eax
 804b610:	a3 3c b1 05 08       	mov    %eax,0x805b13c
 804b615:	8b 45 dc             	mov    -0x24(%ebp),%eax
 804b618:	8b 00                	mov    (%eax),%eax
 804b61a:	83 ec 08             	sub    $0x8,%esp
 804b61d:	50                   	push   %eax
 804b61e:	68 2c 61 05 08       	push   $0x805612c
 804b623:	e8 b8 d1 ff ff       	call   80487e0 <printf@plt>
 804b628:	83 c4 10             	add    $0x10,%esp
 804b62b:	83 ec 0c             	sub    $0xc,%esp
 804b62e:	ff 75 f4             	pushl  -0xc(%ebp)
 804b631:	e8 03 9f 00 00       	call   8055539 <printFuncType>
 804b636:	83 c4 10             	add    $0x10,%esp
 804b639:	83 ec 0c             	sub    $0xc,%esp
 804b63c:	68 50 61 05 08       	push   $0x8056150
 804b641:	e8 9a d1 ff ff       	call   80487e0 <printf@plt>
 804b646:	83 c4 10             	add    $0x10,%esp
 804b649:	83 ec 0c             	sub    $0xc,%esp
 804b64c:	ff 75 d8             	pushl  -0x28(%ebp)
 804b64f:	e8 69 9d 00 00       	call   80553bd <printFieldList>
 804b654:	83 c4 10             	add    $0x10,%esp
 804b657:	83 ec 0c             	sub    $0xc,%esp
 804b65a:	68 74 61 05 08       	push   $0x8056174
 804b65f:	e8 4c d2 ff ff       	call   80488b0 <puts@plt>
 804b664:	83 c4 10             	add    $0x10,%esp
 804b667:	e9 9a 00 00 00       	jmp    804b706 <Exp+0x65a>
 804b66c:	83 ec 0c             	sub    $0xc,%esp
 804b66f:	6a 0c                	push   $0xc
 804b671:	e8 2a d2 ff ff       	call   80488a0 <malloc@plt>
 804b676:	83 c4 10             	add    $0x10,%esp
 804b679:	89 45 d4             	mov    %eax,-0x2c(%ebp)
 804b67c:	8b 45 d4             	mov    -0x2c(%ebp),%eax
 804b67f:	c7 00 00 00 00 00    	movl   $0x0,(%eax)
 804b685:	8b 45 d4             	mov    -0x2c(%ebp),%eax
 804b688:	c7 40 04 00 00 00 00 	movl   $0x0,0x4(%eax)
 804b68f:	eb 76                	jmp    804b707 <Exp+0x65b>
 804b691:	83 ec 0c             	sub    $0xc,%esp
 804b694:	6a 0c                	push   $0xc
 804b696:	e8 05 d2 ff ff       	call   80488a0 <malloc@plt>
 804b69b:	83 c4 10             	add    $0x10,%esp
 804b69e:	89 45 d4             	mov    %eax,-0x2c(%ebp)
 804b6a1:	8b 45 d4             	mov    -0x2c(%ebp),%eax
 804b6a4:	c7 00 00 00 00 00    	movl   $0x0,(%eax)
 804b6aa:	8b 45 d4             	mov    -0x2c(%ebp),%eax
 804b6ad:	c7 40 04 01 00 00 00 	movl   $0x1,0x4(%eax)
 804b6b4:	eb 51                	jmp    804b707 <Exp+0x65b>
 804b6b6:	83 ec 0c             	sub    $0xc,%esp
 804b6b9:	ff 75 e0             	pushl  -0x20(%ebp)
 804b6bc:	e8 eb f9 ff ff       	call   804b0ac <Exp>
 804b6c1:	83 c4 10             	add    $0x10,%esp
 804b6c4:	89 45 d4             	mov    %eax,-0x2c(%ebp)
 804b6c7:	eb 3e                	jmp    804b707 <Exp+0x65b>
 804b6c9:	83 ec 0c             	sub    $0xc,%esp
 804b6cc:	ff 75 e0             	pushl  -0x20(%ebp)
 804b6cf:	e8 d8 f9 ff ff       	call   804b0ac <Exp>
 804b6d4:	83 c4 10             	add    $0x10,%esp
 804b6d7:	89 45 d4             	mov    %eax,-0x2c(%ebp)
 804b6da:	eb 2b                	jmp    804b707 <Exp+0x65b>
 804b6dc:	83 ec 0c             	sub    $0xc,%esp
 804b6df:	ff 75 08             	pushl  0x8(%ebp)
 804b6e2:	e8 7e d6 ff ff       	call   8048d65 <printTree>
 804b6e7:	83 c4 10             	add    $0x10,%esp
 804b6ea:	68 94 62 05 08       	push   $0x8056294
 804b6ef:	68 74 02 00 00       	push   $0x274
 804b6f4:	68 ad 5d 05 08       	push   $0x8055dad
 804b6f9:	68 b7 5d 05 08       	push   $0x8055db7
 804b6fe:	e8 ed d2 ff ff       	call   80489f0 <__assert_fail@plt>
 804b703:	90                   	nop
 804b704:	eb 01                	jmp    804b707 <Exp+0x65b>
 804b706:	90                   	nop
 804b707:	8b 45 d4             	mov    -0x2c(%ebp),%eax
 804b70a:	c9                   	leave  
 804b70b:	c3                   	ret    

0804b70c <isLeftVar>:
 804b70c:	55                   	push   %ebp
 804b70d:	89 e5                	mov    %esp,%ebp
 804b70f:	83 ec 18             	sub    $0x18,%esp
 804b712:	83 7d 08 00          	cmpl   $0x0,0x8(%ebp)
 804b716:	75 0a                	jne    804b722 <isLeftVar+0x16>
 804b718:	b8 01 00 00 00       	mov    $0x1,%eax
 804b71d:	e9 e1 00 00 00       	jmp    804b803 <isLeftVar+0xf7>
 804b722:	8b 45 08             	mov    0x8(%ebp),%eax
 804b725:	8b 40 14             	mov    0x14(%eax),%eax
 804b728:	89 45 ec             	mov    %eax,-0x14(%ebp)
 804b72b:	8b 45 08             	mov    0x8(%ebp),%eax
 804b72e:	8b 40 04             	mov    0x4(%eax),%eax
 804b731:	83 f8 03             	cmp    $0x3,%eax
 804b734:	75 36                	jne    804b76c <isLeftVar+0x60>
 804b736:	8b 45 08             	mov    0x8(%ebp),%eax
 804b739:	8b 40 08             	mov    0x8(%eax),%eax
 804b73c:	83 ec 0c             	sub    $0xc,%esp
 804b73f:	50                   	push   %eax
 804b740:	e8 0c 97 00 00       	call   8054e51 <searchTable>
 804b745:	83 c4 10             	add    $0x10,%esp
 804b748:	89 45 f0             	mov    %eax,-0x10(%ebp)
 804b74b:	83 7d f0 00          	cmpl   $0x0,-0x10(%ebp)
 804b74f:	0f 84 a9 00 00 00    	je     804b7fe <isLeftVar+0xf2>
 804b755:	8b 45 f0             	mov    -0x10(%ebp),%eax
 804b758:	8b 00                	mov    (%eax),%eax
 804b75a:	85 c0                	test   %eax,%eax
 804b75c:	0f 85 9c 00 00 00    	jne    804b7fe <isLeftVar+0xf2>
 804b762:	b8 01 00 00 00       	mov    $0x1,%eax
 804b767:	e9 97 00 00 00       	jmp    804b803 <isLeftVar+0xf7>
 804b76c:	8b 45 08             	mov    0x8(%ebp),%eax
 804b76f:	8b 40 04             	mov    0x4(%eax),%eax
 804b772:	83 f8 32             	cmp    $0x32,%eax
 804b775:	75 3c                	jne    804b7b3 <isLeftVar+0xa7>
 804b777:	8b 45 08             	mov    0x8(%ebp),%eax
 804b77a:	8b 40 14             	mov    0x14(%eax),%eax
 804b77d:	8b 40 04             	mov    0x4(%eax),%eax
 804b780:	83 f8 03             	cmp    $0x3,%eax
 804b783:	75 2e                	jne    804b7b3 <isLeftVar+0xa7>
 804b785:	8b 45 08             	mov    0x8(%ebp),%eax
 804b788:	8b 40 14             	mov    0x14(%eax),%eax
 804b78b:	8b 40 08             	mov    0x8(%eax),%eax
 804b78e:	83 ec 0c             	sub    $0xc,%esp
 804b791:	50                   	push   %eax
 804b792:	e8 ba 96 00 00       	call   8054e51 <searchTable>
 804b797:	83 c4 10             	add    $0x10,%esp
 804b79a:	89 45 f4             	mov    %eax,-0xc(%ebp)
 804b79d:	83 7d f4 00          	cmpl   $0x0,-0xc(%ebp)
 804b7a1:	74 5a                	je     804b7fd <isLeftVar+0xf1>
 804b7a3:	8b 45 f4             	mov    -0xc(%ebp),%eax
 804b7a6:	8b 00                	mov    (%eax),%eax
 804b7a8:	85 c0                	test   %eax,%eax
 804b7aa:	75 51                	jne    804b7fd <isLeftVar+0xf1>
 804b7ac:	b8 01 00 00 00       	mov    $0x1,%eax
 804b7b1:	eb 50                	jmp    804b803 <isLeftVar+0xf7>
 804b7b3:	8b 45 08             	mov    0x8(%ebp),%eax
 804b7b6:	8b 40 04             	mov    0x4(%eax),%eax
 804b7b9:	83 f8 32             	cmp    $0x32,%eax
 804b7bc:	75 40                	jne    804b7fe <isLeftVar+0xf2>
 804b7be:	8b 45 08             	mov    0x8(%ebp),%eax
 804b7c1:	8b 40 14             	mov    0x14(%eax),%eax
 804b7c4:	8b 40 04             	mov    0x4(%eax),%eax
 804b7c7:	83 f8 32             	cmp    $0x32,%eax
 804b7ca:	75 32                	jne    804b7fe <isLeftVar+0xf2>
 804b7cc:	8b 45 08             	mov    0x8(%ebp),%eax
 804b7cf:	8b 40 18             	mov    0x18(%eax),%eax
 804b7d2:	8b 40 04             	mov    0x4(%eax),%eax
 804b7d5:	83 f8 16             	cmp    $0x16,%eax
 804b7d8:	74 1c                	je     804b7f6 <isLeftVar+0xea>
 804b7da:	8b 45 08             	mov    0x8(%ebp),%eax
 804b7dd:	8b 40 18             	mov    0x18(%eax),%eax
 804b7e0:	8b 40 04             	mov    0x4(%eax),%eax
 804b7e3:	83 f8 12             	cmp    $0x12,%eax
 804b7e6:	74 0e                	je     804b7f6 <isLeftVar+0xea>
 804b7e8:	8b 45 08             	mov    0x8(%ebp),%eax
 804b7eb:	8b 40 18             	mov    0x18(%eax),%eax
 804b7ee:	8b 40 04             	mov    0x4(%eax),%eax
 804b7f1:	83 f8 03             	cmp    $0x3,%eax
 804b7f4:	75 08                	jne    804b7fe <isLeftVar+0xf2>
 804b7f6:	b8 01 00 00 00       	mov    $0x1,%eax
 804b7fb:	eb 06                	jmp    804b803 <isLeftVar+0xf7>
 804b7fd:	90                   	nop
 804b7fe:	b8 00 00 00 00       	mov    $0x0,%eax
 804b803:	c9                   	leave  
 804b804:	c3                   	ret    

0804b805 <Args>:
 804b805:	55                   	push   %ebp
 804b806:	89 e5                	mov    %esp,%ebp
 804b808:	83 ec 18             	sub    $0x18,%esp
 804b80b:	83 ec 0c             	sub    $0xc,%esp
 804b80e:	6a 0c                	push   $0xc
 804b810:	e8 8b d0 ff ff       	call   80488a0 <malloc@plt>
 804b815:	83 c4 10             	add    $0x10,%esp
 804b818:	89 45 f4             	mov    %eax,-0xc(%ebp)
 804b81b:	8b 45 f4             	mov    -0xc(%ebp),%eax
 804b81e:	c7 00 00 00 00 00    	movl   $0x0,(%eax)
 804b824:	8b 45 f4             	mov    -0xc(%ebp),%eax
 804b827:	c7 40 08 00 00 00 00 	movl   $0x0,0x8(%eax)
 804b82e:	8b 45 08             	mov    0x8(%ebp),%eax
 804b831:	8b 40 10             	mov    0x10(%eax),%eax
 804b834:	83 f8 01             	cmp    $0x1,%eax
 804b837:	75 1c                	jne    804b855 <Args+0x50>
 804b839:	8b 45 08             	mov    0x8(%ebp),%eax
 804b83c:	8b 40 14             	mov    0x14(%eax),%eax
 804b83f:	83 ec 0c             	sub    $0xc,%esp
 804b842:	50                   	push   %eax
 804b843:	e8 64 f8 ff ff       	call   804b0ac <Exp>
 804b848:	83 c4 10             	add    $0x10,%esp
 804b84b:	89 c2                	mov    %eax,%edx
 804b84d:	8b 45 f4             	mov    -0xc(%ebp),%eax
 804b850:	89 50 04             	mov    %edx,0x4(%eax)
 804b853:	eb 5a                	jmp    804b8af <Args+0xaa>
 804b855:	8b 45 08             	mov    0x8(%ebp),%eax
 804b858:	8b 40 10             	mov    0x10(%eax),%eax
 804b85b:	83 f8 03             	cmp    $0x3,%eax
 804b85e:	75 36                	jne    804b896 <Args+0x91>
 804b860:	8b 45 08             	mov    0x8(%ebp),%eax
 804b863:	8b 40 14             	mov    0x14(%eax),%eax
 804b866:	83 ec 0c             	sub    $0xc,%esp
 804b869:	50                   	push   %eax
 804b86a:	e8 3d f8 ff ff       	call   804b0ac <Exp>
 804b86f:	83 c4 10             	add    $0x10,%esp
 804b872:	89 c2                	mov    %eax,%edx
 804b874:	8b 45 f4             	mov    -0xc(%ebp),%eax
 804b877:	89 50 04             	mov    %edx,0x4(%eax)
 804b87a:	8b 45 08             	mov    0x8(%ebp),%eax
 804b87d:	8b 40 1c             	mov    0x1c(%eax),%eax
 804b880:	83 ec 0c             	sub    $0xc,%esp
 804b883:	50                   	push   %eax
 804b884:	e8 7c ff ff ff       	call   804b805 <Args>
 804b889:	83 c4 10             	add    $0x10,%esp
 804b88c:	89 c2                	mov    %eax,%edx
 804b88e:	8b 45 f4             	mov    -0xc(%ebp),%eax
 804b891:	89 50 08             	mov    %edx,0x8(%eax)
 804b894:	eb 19                	jmp    804b8af <Args+0xaa>
 804b896:	68 98 62 05 08       	push   $0x8056298
 804b89b:	68 a4 02 00 00       	push   $0x2a4
 804b8a0:	68 ad 5d 05 08       	push   $0x8055dad
 804b8a5:	68 b7 5d 05 08       	push   $0x8055db7
 804b8aa:	e8 41 d1 ff ff       	call   80489f0 <__assert_fail@plt>
 804b8af:	8b 45 f4             	mov    -0xc(%ebp),%eax
 804b8b2:	c9                   	leave  
 804b8b3:	c3                   	ret    

0804b8b4 <checkStructure>:
 804b8b4:	55                   	push   %ebp
 804b8b5:	89 e5                	mov    %esp,%ebp
 804b8b7:	83 ec 18             	sub    $0x18,%esp
 804b8ba:	eb 63                	jmp    804b91f <checkStructure+0x6b>
 804b8bc:	8b 45 08             	mov    0x8(%ebp),%eax
 804b8bf:	8b 40 08             	mov    0x8(%eax),%eax
 804b8c2:	89 45 f4             	mov    %eax,-0xc(%ebp)
 804b8c5:	eb 49                	jmp    804b910 <checkStructure+0x5c>
 804b8c7:	8b 45 f4             	mov    -0xc(%ebp),%eax
 804b8ca:	8b 10                	mov    (%eax),%edx
 804b8cc:	8b 45 08             	mov    0x8(%ebp),%eax
 804b8cf:	8b 00                	mov    (%eax),%eax
 804b8d1:	83 ec 08             	sub    $0x8,%esp
 804b8d4:	52                   	push   %edx
 804b8d5:	50                   	push   %eax
 804b8d6:	e8 f5 ce ff ff       	call   80487d0 <strcmp@plt>
 804b8db:	83 c4 10             	add    $0x10,%esp
 804b8de:	85 c0                	test   %eax,%eax
 804b8e0:	75 25                	jne    804b907 <checkStructure+0x53>
 804b8e2:	a1 3c b1 05 08       	mov    0x805b13c,%eax
 804b8e7:	83 c0 01             	add    $0x1,%eax
 804b8ea:	a3 3c b1 05 08       	mov    %eax,0x805b13c
 804b8ef:	8b 45 f4             	mov    -0xc(%ebp),%eax
 804b8f2:	8b 00                	mov    (%eax),%eax
 804b8f4:	83 ec 04             	sub    $0x4,%esp
 804b8f7:	50                   	push   %eax
 804b8f8:	6a 01                	push   $0x1
 804b8fa:	68 e0 5e 05 08       	push   $0x8055ee0
 804b8ff:	e8 dc ce ff ff       	call   80487e0 <printf@plt>
 804b904:	83 c4 10             	add    $0x10,%esp
 804b907:	8b 45 f4             	mov    -0xc(%ebp),%eax
 804b90a:	8b 40 08             	mov    0x8(%eax),%eax
 804b90d:	89 45 f4             	mov    %eax,-0xc(%ebp)
 804b910:	83 7d f4 00          	cmpl   $0x0,-0xc(%ebp)
 804b914:	75 b1                	jne    804b8c7 <checkStructure+0x13>
 804b916:	8b 45 08             	mov    0x8(%ebp),%eax
 804b919:	8b 40 08             	mov    0x8(%eax),%eax
 804b91c:	89 45 08             	mov    %eax,0x8(%ebp)
 804b91f:	8b 45 08             	mov    0x8(%ebp),%eax
 804b922:	8b 40 08             	mov    0x8(%eax),%eax
 804b925:	85 c0                	test   %eax,%eax
 804b927:	75 93                	jne    804b8bc <checkStructure+0x8>
 804b929:	b8 01 00 00 00       	mov    $0x1,%eax
 804b92e:	c9                   	leave  
 804b92f:	c3                   	ret    

0804b930 <checkFunc>:
 804b930:	55                   	push   %ebp
 804b931:	89 e5                	mov    %esp,%ebp
 804b933:	83 ec 18             	sub    $0x18,%esp
 804b936:	c7 45 f4 00 00 00 00 	movl   $0x0,-0xc(%ebp)
 804b93d:	eb 70                	jmp    804b9af <checkFunc+0x7f>
 804b93f:	8b 45 f4             	mov    -0xc(%ebp),%eax
 804b942:	8b 04 85 a0 b7 05 08 	mov    0x805b7a0(,%eax,4),%eax
 804b949:	85 c0                	test   %eax,%eax
 804b94b:	74 5e                	je     804b9ab <checkFunc+0x7b>
 804b94d:	8b 45 f4             	mov    -0xc(%ebp),%eax
 804b950:	8b 04 85 a0 b7 05 08 	mov    0x805b7a0(,%eax,4),%eax
 804b957:	8b 00                	mov    (%eax),%eax
 804b959:	83 f8 01             	cmp    $0x1,%eax
 804b95c:	75 4d                	jne    804b9ab <checkFunc+0x7b>
 804b95e:	8b 45 f4             	mov    -0xc(%ebp),%eax
 804b961:	8b 04 85 a0 b7 05 08 	mov    0x805b7a0(,%eax,4),%eax
 804b968:	8b 40 0c             	mov    0xc(%eax),%eax
 804b96b:	8b 40 08             	mov    0x8(%eax),%eax
 804b96e:	85 c0                	test   %eax,%eax
 804b970:	75 39                	jne    804b9ab <checkFunc+0x7b>
 804b972:	a1 3c b1 05 08       	mov    0x805b13c,%eax
 804b977:	83 c0 01             	add    $0x1,%eax
 804b97a:	a3 3c b1 05 08       	mov    %eax,0x805b13c
 804b97f:	8b 45 f4             	mov    -0xc(%ebp),%eax
 804b982:	8b 04 85 a0 b7 05 08 	mov    0x805b7a0(,%eax,4),%eax
 804b989:	8b 50 04             	mov    0x4(%eax),%edx
 804b98c:	8b 45 f4             	mov    -0xc(%ebp),%eax
 804b98f:	8b 04 85 a0 b7 05 08 	mov    0x805b7a0(,%eax,4),%eax
 804b996:	8b 40 08             	mov    0x8(%eax),%eax
 804b999:	83 ec 04             	sub    $0x4,%esp
 804b99c:	52                   	push   %edx
 804b99d:	50                   	push   %eax
 804b99e:	68 44 62 05 08       	push   $0x8056244
 804b9a3:	e8 38 ce ff ff       	call   80487e0 <printf@plt>
 804b9a8:	83 c4 10             	add    $0x10,%esp
 804b9ab:	83 45 f4 01          	addl   $0x1,-0xc(%ebp)
 804b9af:	81 7d f4 fe 3f 00 00 	cmpl   $0x3ffe,-0xc(%ebp)
 804b9b6:	7e 87                	jle    804b93f <checkFunc+0xf>
 804b9b8:	90                   	nop
 804b9b9:	c9                   	leave  
 804b9ba:	c3                   	ret    

0804b9bb <clearMap>:
 804b9bb:	55                   	push   %ebp
 804b9bc:	89 e5                	mov    %esp,%ebp
 804b9be:	83 ec 18             	sub    $0x18,%esp
 804b9c1:	c7 45 f4 00 00 00 00 	movl   $0x0,-0xc(%ebp)
 804b9c8:	eb 28                	jmp    804b9f2 <clearMap+0x37>
 804b9ca:	8b 45 f4             	mov    -0xc(%ebp),%eax
 804b9cd:	8b 04 85 80 b3 05 08 	mov    0x805b380(,%eax,4),%eax
 804b9d4:	83 ec 0c             	sub    $0xc,%esp
 804b9d7:	50                   	push   %eax
 804b9d8:	e8 13 ce ff ff       	call   80487f0 <free@plt>
 804b9dd:	83 c4 10             	add    $0x10,%esp
 804b9e0:	8b 45 f4             	mov    -0xc(%ebp),%eax
 804b9e3:	c7 04 85 80 b3 05 08 	movl   $0x0,0x805b380(,%eax,4)
 804b9ea:	00 00 00 00 
 804b9ee:	83 45 f4 01          	addl   $0x1,-0xc(%ebp)
 804b9f2:	a1 18 b1 05 08       	mov    0x805b118,%eax
 804b9f7:	39 45 f4             	cmp    %eax,-0xc(%ebp)
 804b9fa:	7c ce                	jl     804b9ca <clearMap+0xf>
 804b9fc:	c7 05 18 b1 05 08 00 	movl   $0x0,0x805b118
 804ba03:	00 00 00 
 804ba06:	90                   	nop
 804ba07:	c9                   	leave  
 804ba08:	c3                   	ret    

0804ba09 <existSign>:
 804ba09:	55                   	push   %ebp
 804ba0a:	89 e5                	mov    %esp,%ebp
 804ba0c:	83 ec 18             	sub    $0x18,%esp
 804ba0f:	83 7d 08 00          	cmpl   $0x0,0x8(%ebp)
 804ba13:	75 07                	jne    804ba1c <existSign+0x13>
 804ba15:	b8 00 00 00 00       	mov    $0x0,%eax
 804ba1a:	eb 45                	jmp    804ba61 <existSign+0x58>
 804ba1c:	c7 45 f4 00 00 00 00 	movl   $0x0,-0xc(%ebp)
 804ba23:	eb 29                	jmp    804ba4e <existSign+0x45>
 804ba25:	8b 45 08             	mov    0x8(%ebp),%eax
 804ba28:	8b 55 f4             	mov    -0xc(%ebp),%edx
 804ba2b:	8b 44 90 08          	mov    0x8(%eax,%edx,4),%eax
 804ba2f:	83 ec 08             	sub    $0x8,%esp
 804ba32:	50                   	push   %eax
 804ba33:	ff 75 0c             	pushl  0xc(%ebp)
 804ba36:	e8 4a 1b 00 00       	call   804d585 <compareOperand>
 804ba3b:	83 c4 10             	add    $0x10,%esp
 804ba3e:	83 f8 01             	cmp    $0x1,%eax
 804ba41:	75 07                	jne    804ba4a <existSign+0x41>
 804ba43:	b8 01 00 00 00       	mov    $0x1,%eax
 804ba48:	eb 17                	jmp    804ba61 <existSign+0x58>
 804ba4a:	83 45 f4 01          	addl   $0x1,-0xc(%ebp)
 804ba4e:	8b 45 08             	mov    0x8(%ebp),%eax
 804ba51:	8b 80 88 00 00 00    	mov    0x88(%eax),%eax
 804ba57:	3b 45 f4             	cmp    -0xc(%ebp),%eax
 804ba5a:	7f c9                	jg     804ba25 <existSign+0x1c>
 804ba5c:	b8 00 00 00 00       	mov    $0x0,%eax
 804ba61:	c9                   	leave  
 804ba62:	c3                   	ret    

0804ba63 <findSign>:
 804ba63:	55                   	push   %ebp
 804ba64:	89 e5                	mov    %esp,%ebp
 804ba66:	83 ec 18             	sub    $0x18,%esp
 804ba69:	83 7d 08 00          	cmpl   $0x0,0x8(%ebp)
 804ba6d:	75 07                	jne    804ba76 <findSign+0x13>
 804ba6f:	b8 00 00 00 00       	mov    $0x0,%eax
 804ba74:	eb 74                	jmp    804baea <findSign+0x87>
 804ba76:	c7 45 ec 00 00 00 00 	movl   $0x0,-0x14(%ebp)
 804ba7d:	eb 5c                	jmp    804badb <findSign+0x78>
 804ba7f:	c7 45 f0 00 00 00 00 	movl   $0x0,-0x10(%ebp)
 804ba86:	eb 3a                	jmp    804bac2 <findSign+0x5f>
 804ba88:	8b 45 ec             	mov    -0x14(%ebp),%eax
 804ba8b:	8b 04 85 80 b3 05 08 	mov    0x805b380(,%eax,4),%eax
 804ba92:	8b 55 f0             	mov    -0x10(%ebp),%edx
 804ba95:	8b 44 90 08          	mov    0x8(%eax,%edx,4),%eax
 804ba99:	89 45 f4             	mov    %eax,-0xc(%ebp)
 804ba9c:	83 ec 08             	sub    $0x8,%esp
 804ba9f:	ff 75 f4             	pushl  -0xc(%ebp)
 804baa2:	ff 75 08             	pushl  0x8(%ebp)
 804baa5:	e8 db 1a 00 00       	call   804d585 <compareOperand>
 804baaa:	83 c4 10             	add    $0x10,%esp
 804baad:	83 f8 01             	cmp    $0x1,%eax
 804bab0:	75 0c                	jne    804babe <findSign+0x5b>
 804bab2:	8b 45 ec             	mov    -0x14(%ebp),%eax
 804bab5:	8b 04 85 80 b3 05 08 	mov    0x805b380(,%eax,4),%eax
 804babc:	eb 2c                	jmp    804baea <findSign+0x87>
 804babe:	83 45 f0 01          	addl   $0x1,-0x10(%ebp)
 804bac2:	8b 45 ec             	mov    -0x14(%ebp),%eax
 804bac5:	8b 04 85 80 b3 05 08 	mov    0x805b380(,%eax,4),%eax
 804bacc:	8b 80 88 00 00 00    	mov    0x88(%eax),%eax
 804bad2:	3b 45 f0             	cmp    -0x10(%ebp),%eax
 804bad5:	7f b1                	jg     804ba88 <findSign+0x25>
 804bad7:	83 45 ec 01          	addl   $0x1,-0x14(%ebp)
 804badb:	a1 18 b1 05 08       	mov    0x805b118,%eax
 804bae0:	39 45 ec             	cmp    %eax,-0x14(%ebp)
 804bae3:	7c 9a                	jl     804ba7f <findSign+0x1c>
 804bae5:	b8 00 00 00 00       	mov    $0x0,%eax
 804baea:	c9                   	leave  
 804baeb:	c3                   	ret    

0804baec <findLeaf>:
 804baec:	55                   	push   %ebp
 804baed:	89 e5                	mov    %esp,%ebp
 804baef:	83 ec 18             	sub    $0x18,%esp
 804baf2:	83 7d 08 00          	cmpl   $0x0,0x8(%ebp)
 804baf6:	75 07                	jne    804baff <findLeaf+0x13>
 804baf8:	b8 00 00 00 00       	mov    $0x0,%eax
 804bafd:	eb 5c                	jmp    804bb5b <findLeaf+0x6f>
 804baff:	c7 45 f4 00 00 00 00 	movl   $0x0,-0xc(%ebp)
 804bb06:	eb 44                	jmp    804bb4c <findLeaf+0x60>
 804bb08:	8b 45 f4             	mov    -0xc(%ebp),%eax
 804bb0b:	8b 04 85 80 b3 05 08 	mov    0x805b380(,%eax,4),%eax
 804bb12:	8b 00                	mov    (%eax),%eax
 804bb14:	85 c0                	test   %eax,%eax
 804bb16:	74 30                	je     804bb48 <findLeaf+0x5c>
 804bb18:	8b 45 f4             	mov    -0xc(%ebp),%eax
 804bb1b:	8b 04 85 80 b3 05 08 	mov    0x805b380(,%eax,4),%eax
 804bb22:	8b 80 8c 00 00 00    	mov    0x8c(%eax),%eax
 804bb28:	83 ec 08             	sub    $0x8,%esp
 804bb2b:	50                   	push   %eax
 804bb2c:	ff 75 08             	pushl  0x8(%ebp)
 804bb2f:	e8 51 1a 00 00       	call   804d585 <compareOperand>
 804bb34:	83 c4 10             	add    $0x10,%esp
 804bb37:	83 f8 01             	cmp    $0x1,%eax
 804bb3a:	75 0c                	jne    804bb48 <findLeaf+0x5c>
 804bb3c:	8b 45 f4             	mov    -0xc(%ebp),%eax
 804bb3f:	8b 04 85 80 b3 05 08 	mov    0x805b380(,%eax,4),%eax
 804bb46:	eb 13                	jmp    804bb5b <findLeaf+0x6f>
 804bb48:	83 45 f4 01          	addl   $0x1,-0xc(%ebp)
 804bb4c:	a1 18 b1 05 08       	mov    0x805b118,%eax
 804bb51:	39 45 f4             	cmp    %eax,-0xc(%ebp)
 804bb54:	7c b2                	jl     804bb08 <findLeaf+0x1c>
 804bb56:	b8 00 00 00 00       	mov    $0x0,%eax
 804bb5b:	c9                   	leave  
 804bb5c:	c3                   	ret    

0804bb5d <findOp>:
 804bb5d:	55                   	push   %ebp
 804bb5e:	89 e5                	mov    %esp,%ebp
 804bb60:	83 ec 18             	sub    $0x18,%esp
 804bb63:	c7 45 f0 00 00 00 00 	movl   $0x0,-0x10(%ebp)
 804bb6a:	eb 62                	jmp    804bbce <findOp+0x71>
 804bb6c:	8b 45 f0             	mov    -0x10(%ebp),%eax
 804bb6f:	8b 04 85 80 b3 05 08 	mov    0x805b380(,%eax,4),%eax
 804bb76:	89 45 f4             	mov    %eax,-0xc(%ebp)
 804bb79:	8b 45 f4             	mov    -0xc(%ebp),%eax
 804bb7c:	8b 00                	mov    (%eax),%eax
 804bb7e:	85 c0                	test   %eax,%eax
 804bb80:	75 48                	jne    804bbca <findOp+0x6d>
 804bb82:	8b 45 f4             	mov    -0xc(%ebp),%eax
 804bb85:	8b 40 04             	mov    0x4(%eax),%eax
 804bb88:	3b 45 08             	cmp    0x8(%ebp),%eax
 804bb8b:	75 3d                	jne    804bbca <findOp+0x6d>
 804bb8d:	8b 45 f4             	mov    -0xc(%ebp),%eax
 804bb90:	8b 80 90 00 00 00    	mov    0x90(%eax),%eax
 804bb96:	83 ec 08             	sub    $0x8,%esp
 804bb99:	ff 75 0c             	pushl  0xc(%ebp)
 804bb9c:	50                   	push   %eax
 804bb9d:	e8 67 fe ff ff       	call   804ba09 <existSign>
 804bba2:	83 c4 10             	add    $0x10,%esp
 804bba5:	85 c0                	test   %eax,%eax
 804bba7:	74 21                	je     804bbca <findOp+0x6d>
 804bba9:	8b 45 f4             	mov    -0xc(%ebp),%eax
 804bbac:	8b 80 94 00 00 00    	mov    0x94(%eax),%eax
 804bbb2:	83 ec 08             	sub    $0x8,%esp
 804bbb5:	ff 75 10             	pushl  0x10(%ebp)
 804bbb8:	50                   	push   %eax
 804bbb9:	e8 4b fe ff ff       	call   804ba09 <existSign>
 804bbbe:	83 c4 10             	add    $0x10,%esp
 804bbc1:	85 c0                	test   %eax,%eax
 804bbc3:	74 05                	je     804bbca <findOp+0x6d>
 804bbc5:	8b 45 f4             	mov    -0xc(%ebp),%eax
 804bbc8:	eb 13                	jmp    804bbdd <findOp+0x80>
 804bbca:	83 45 f0 01          	addl   $0x1,-0x10(%ebp)
 804bbce:	a1 18 b1 05 08       	mov    0x805b118,%eax
 804bbd3:	39 45 f0             	cmp    %eax,-0x10(%ebp)
 804bbd6:	7c 94                	jl     804bb6c <findOp+0xf>
 804bbd8:	b8 00 00 00 00       	mov    $0x0,%eax
 804bbdd:	c9                   	leave  
 804bbde:	c3                   	ret    

0804bbdf <removeSign>:
 804bbdf:	55                   	push   %ebp
 804bbe0:	89 e5                	mov    %esp,%ebp
 804bbe2:	83 ec 18             	sub    $0x18,%esp
 804bbe5:	c7 45 f0 00 00 00 00 	movl   $0x0,-0x10(%ebp)
 804bbec:	eb 6d                	jmp    804bc5b <removeSign+0x7c>
 804bbee:	8b 45 08             	mov    0x8(%ebp),%eax
 804bbf1:	8b 55 f0             	mov    -0x10(%ebp),%edx
 804bbf4:	8b 44 90 08          	mov    0x8(%eax,%edx,4),%eax
 804bbf8:	83 ec 08             	sub    $0x8,%esp
 804bbfb:	50                   	push   %eax
 804bbfc:	ff 75 0c             	pushl  0xc(%ebp)
 804bbff:	e8 81 19 00 00       	call   804d585 <compareOperand>
 804bc04:	83 c4 10             	add    $0x10,%esp
 804bc07:	83 f8 01             	cmp    $0x1,%eax
 804bc0a:	75 4b                	jne    804bc57 <removeSign+0x78>
 804bc0c:	8b 45 f0             	mov    -0x10(%ebp),%eax
 804bc0f:	89 45 f4             	mov    %eax,-0xc(%ebp)
 804bc12:	eb 1b                	jmp    804bc2f <removeSign+0x50>
 804bc14:	8b 45 f0             	mov    -0x10(%ebp),%eax
 804bc17:	8d 50 01             	lea    0x1(%eax),%edx
 804bc1a:	8b 45 08             	mov    0x8(%ebp),%eax
 804bc1d:	8b 4c 90 08          	mov    0x8(%eax,%edx,4),%ecx
 804bc21:	8b 45 08             	mov    0x8(%ebp),%eax
 804bc24:	8b 55 f4             	mov    -0xc(%ebp),%edx
 804bc27:	89 4c 90 08          	mov    %ecx,0x8(%eax,%edx,4)
 804bc2b:	83 45 f4 01          	addl   $0x1,-0xc(%ebp)
 804bc2f:	8b 45 08             	mov    0x8(%ebp),%eax
 804bc32:	8b 80 88 00 00 00    	mov    0x88(%eax),%eax
 804bc38:	83 e8 01             	sub    $0x1,%eax
 804bc3b:	3b 45 f4             	cmp    -0xc(%ebp),%eax
 804bc3e:	7f d4                	jg     804bc14 <removeSign+0x35>
 804bc40:	8b 45 08             	mov    0x8(%ebp),%eax
 804bc43:	8b 80 88 00 00 00    	mov    0x88(%eax),%eax
 804bc49:	8d 50 ff             	lea    -0x1(%eax),%edx
 804bc4c:	8b 45 08             	mov    0x8(%ebp),%eax
 804bc4f:	89 90 88 00 00 00    	mov    %edx,0x88(%eax)
 804bc55:	eb 12                	jmp    804bc69 <removeSign+0x8a>
 804bc57:	83 45 f0 01          	addl   $0x1,-0x10(%ebp)
 804bc5b:	8b 45 08             	mov    0x8(%ebp),%eax
 804bc5e:	8b 80 88 00 00 00    	mov    0x88(%eax),%eax
 804bc64:	3b 45 f0             	cmp    -0x10(%ebp),%eax
 804bc67:	7f 85                	jg     804bbee <removeSign+0xf>
 804bc69:	90                   	nop
 804bc6a:	c9                   	leave  
 804bc6b:	c3                   	ret    

0804bc6c <insertLeaf>:
 804bc6c:	55                   	push   %ebp
 804bc6d:	89 e5                	mov    %esp,%ebp
 804bc6f:	83 ec 18             	sub    $0x18,%esp
 804bc72:	83 ec 0c             	sub    $0xc,%esp
 804bc75:	68 9c 00 00 00       	push   $0x9c
 804bc7a:	e8 21 cc ff ff       	call   80488a0 <malloc@plt>
 804bc7f:	83 c4 10             	add    $0x10,%esp
 804bc82:	89 45 f4             	mov    %eax,-0xc(%ebp)
 804bc85:	83 ec 04             	sub    $0x4,%esp
 804bc88:	68 9c 00 00 00       	push   $0x9c
 804bc8d:	6a 00                	push   $0x0
 804bc8f:	ff 75 f4             	pushl  -0xc(%ebp)
 804bc92:	e8 89 cc ff ff       	call   8048920 <memset@plt>
 804bc97:	83 c4 10             	add    $0x10,%esp
 804bc9a:	8b 45 f4             	mov    -0xc(%ebp),%eax
 804bc9d:	c7 00 01 00 00 00    	movl   $0x1,(%eax)
 804bca3:	8b 45 f4             	mov    -0xc(%ebp),%eax
 804bca6:	8b 55 08             	mov    0x8(%ebp),%edx
 804bca9:	89 90 8c 00 00 00    	mov    %edx,0x8c(%eax)
 804bcaf:	a1 18 b1 05 08       	mov    0x805b118,%eax
 804bcb4:	8d 50 01             	lea    0x1(%eax),%edx
 804bcb7:	89 15 18 b1 05 08    	mov    %edx,0x805b118
 804bcbd:	8b 55 f4             	mov    -0xc(%ebp),%edx
 804bcc0:	89 14 85 80 b3 05 08 	mov    %edx,0x805b380(,%eax,4)
 804bcc7:	8b 45 f4             	mov    -0xc(%ebp),%eax
 804bcca:	c9                   	leave  
 804bccb:	c3                   	ret    

0804bccc <insertTuple>:
 804bccc:	55                   	push   %ebp
 804bccd:	89 e5                	mov    %esp,%ebp
 804bccf:	83 ec 18             	sub    $0x18,%esp
 804bcd2:	c7 45 f0 00 00 00 00 	movl   $0x0,-0x10(%ebp)
 804bcd9:	8b 45 f0             	mov    -0x10(%ebp),%eax
 804bcdc:	89 45 f4             	mov    %eax,-0xc(%ebp)
 804bcdf:	8b 45 f4             	mov    -0xc(%ebp),%eax
 804bce2:	89 45 ec             	mov    %eax,-0x14(%ebp)
 804bce5:	8b 45 ec             	mov    -0x14(%ebp),%eax
 804bce8:	89 45 e8             	mov    %eax,-0x18(%ebp)
 804bceb:	8b 45 08             	mov    0x8(%ebp),%eax
 804bcee:	8b 40 08             	mov    0x8(%eax),%eax
 804bcf1:	85 c0                	test   %eax,%eax
 804bcf3:	74 67                	je     804bd5c <insertTuple+0x90>
 804bcf5:	8b 45 08             	mov    0x8(%ebp),%eax
 804bcf8:	8b 40 08             	mov    0x8(%eax),%eax
 804bcfb:	83 ec 0c             	sub    $0xc,%esp
 804bcfe:	50                   	push   %eax
 804bcff:	e8 5f fd ff ff       	call   804ba63 <findSign>
 804bd04:	83 c4 10             	add    $0x10,%esp
 804bd07:	89 45 e8             	mov    %eax,-0x18(%ebp)
 804bd0a:	83 7d e8 00          	cmpl   $0x0,-0x18(%ebp)
 804bd0e:	75 30                	jne    804bd40 <insertTuple+0x74>
 804bd10:	8b 45 08             	mov    0x8(%ebp),%eax
 804bd13:	8b 40 08             	mov    0x8(%eax),%eax
 804bd16:	83 ec 0c             	sub    $0xc,%esp
 804bd19:	50                   	push   %eax
 804bd1a:	e8 cd fd ff ff       	call   804baec <findLeaf>
 804bd1f:	83 c4 10             	add    $0x10,%esp
 804bd22:	89 45 e8             	mov    %eax,-0x18(%ebp)
 804bd25:	83 7d e8 00          	cmpl   $0x0,-0x18(%ebp)
 804bd29:	75 15                	jne    804bd40 <insertTuple+0x74>
 804bd2b:	8b 45 08             	mov    0x8(%ebp),%eax
 804bd2e:	8b 40 08             	mov    0x8(%eax),%eax
 804bd31:	83 ec 0c             	sub    $0xc,%esp
 804bd34:	50                   	push   %eax
 804bd35:	e8 32 ff ff ff       	call   804bc6c <insertLeaf>
 804bd3a:	83 c4 10             	add    $0x10,%esp
 804bd3d:	89 45 e8             	mov    %eax,-0x18(%ebp)
 804bd40:	83 7d e8 00          	cmpl   $0x0,-0x18(%ebp)
 804bd44:	75 16                	jne    804bd5c <insertTuple+0x90>
 804bd46:	68 14 63 05 08       	push   $0x8056314
 804bd4b:	6a 73                	push   $0x73
 804bd4d:	68 a0 62 05 08       	push   $0x80562a0
 804bd52:	68 a9 62 05 08       	push   $0x80562a9
 804bd57:	e8 94 cc ff ff       	call   80489f0 <__assert_fail@plt>
 804bd5c:	8b 45 08             	mov    0x8(%ebp),%eax
 804bd5f:	8b 40 0c             	mov    0xc(%eax),%eax
 804bd62:	85 c0                	test   %eax,%eax
 804bd64:	74 4b                	je     804bdb1 <insertTuple+0xe5>
 804bd66:	8b 45 08             	mov    0x8(%ebp),%eax
 804bd69:	8b 40 0c             	mov    0xc(%eax),%eax
 804bd6c:	83 ec 0c             	sub    $0xc,%esp
 804bd6f:	50                   	push   %eax
 804bd70:	e8 ee fc ff ff       	call   804ba63 <findSign>
 804bd75:	83 c4 10             	add    $0x10,%esp
 804bd78:	89 45 ec             	mov    %eax,-0x14(%ebp)
 804bd7b:	83 7d ec 00          	cmpl   $0x0,-0x14(%ebp)
 804bd7f:	75 30                	jne    804bdb1 <insertTuple+0xe5>
 804bd81:	8b 45 08             	mov    0x8(%ebp),%eax
 804bd84:	8b 40 0c             	mov    0xc(%eax),%eax
 804bd87:	83 ec 0c             	sub    $0xc,%esp
 804bd8a:	50                   	push   %eax
 804bd8b:	e8 5c fd ff ff       	call   804baec <findLeaf>
 804bd90:	83 c4 10             	add    $0x10,%esp
 804bd93:	89 45 ec             	mov    %eax,-0x14(%ebp)
 804bd96:	83 7d ec 00          	cmpl   $0x0,-0x14(%ebp)
 804bd9a:	75 15                	jne    804bdb1 <insertTuple+0xe5>
 804bd9c:	8b 45 08             	mov    0x8(%ebp),%eax
 804bd9f:	8b 40 0c             	mov    0xc(%eax),%eax
 804bda2:	83 ec 0c             	sub    $0xc,%esp
 804bda5:	50                   	push   %eax
 804bda6:	e8 c1 fe ff ff       	call   804bc6c <insertLeaf>
 804bdab:	83 c4 10             	add    $0x10,%esp
 804bdae:	89 45 ec             	mov    %eax,-0x14(%ebp)
 804bdb1:	8b 45 08             	mov    0x8(%ebp),%eax
 804bdb4:	8b 40 04             	mov    0x4(%eax),%eax
 804bdb7:	85 c0                	test   %eax,%eax
 804bdb9:	74 30                	je     804bdeb <insertTuple+0x11f>
 804bdbb:	8b 45 08             	mov    0x8(%ebp),%eax
 804bdbe:	8b 40 04             	mov    0x4(%eax),%eax
 804bdc1:	83 ec 0c             	sub    $0xc,%esp
 804bdc4:	50                   	push   %eax
 804bdc5:	e8 99 fc ff ff       	call   804ba63 <findSign>
 804bdca:	83 c4 10             	add    $0x10,%esp
 804bdcd:	89 45 f4             	mov    %eax,-0xc(%ebp)
 804bdd0:	83 7d f4 00          	cmpl   $0x0,-0xc(%ebp)
 804bdd4:	74 15                	je     804bdeb <insertTuple+0x11f>
 804bdd6:	8b 45 08             	mov    0x8(%ebp),%eax
 804bdd9:	8b 40 04             	mov    0x4(%eax),%eax
 804bddc:	83 ec 08             	sub    $0x8,%esp
 804bddf:	50                   	push   %eax
 804bde0:	ff 75 f4             	pushl  -0xc(%ebp)
 804bde3:	e8 f7 fd ff ff       	call   804bbdf <removeSign>
 804bde8:	83 c4 10             	add    $0x10,%esp
 804bdeb:	8b 45 08             	mov    0x8(%ebp),%eax
 804bdee:	8b 00                	mov    (%eax),%eax
 804bdf0:	83 f8 01             	cmp    $0x1,%eax
 804bdf3:	75 27                	jne    804be1c <insertTuple+0x150>
 804bdf5:	8b 45 e8             	mov    -0x18(%ebp),%eax
 804bdf8:	8b 80 88 00 00 00    	mov    0x88(%eax),%eax
 804bdfe:	8d 48 01             	lea    0x1(%eax),%ecx
 804be01:	8b 55 e8             	mov    -0x18(%ebp),%edx
 804be04:	89 8a 88 00 00 00    	mov    %ecx,0x88(%edx)
 804be0a:	8b 55 08             	mov    0x8(%ebp),%edx
 804be0d:	8b 4a 04             	mov    0x4(%edx),%ecx
 804be10:	8b 55 e8             	mov    -0x18(%ebp),%edx
 804be13:	89 4c 82 08          	mov    %ecx,0x8(%edx,%eax,4)
 804be17:	e9 6e 01 00 00       	jmp    804bf8a <insertTuple+0x2be>
 804be1c:	8b 45 08             	mov    0x8(%ebp),%eax
 804be1f:	8b 00                	mov    (%eax),%eax
 804be21:	83 f8 0d             	cmp    $0xd,%eax
 804be24:	0f 86 81 00 00 00    	jbe    804beab <insertTuple+0x1df>
 804be2a:	8b 45 08             	mov    0x8(%ebp),%eax
 804be2d:	8b 00                	mov    (%eax),%eax
 804be2f:	83 f8 13             	cmp    $0x13,%eax
 804be32:	77 77                	ja     804beab <insertTuple+0x1df>
 804be34:	83 ec 0c             	sub    $0xc,%esp
 804be37:	68 9c 00 00 00       	push   $0x9c
 804be3c:	e8 5f ca ff ff       	call   80488a0 <malloc@plt>
 804be41:	83 c4 10             	add    $0x10,%esp
 804be44:	89 45 f0             	mov    %eax,-0x10(%ebp)
 804be47:	83 ec 04             	sub    $0x4,%esp
 804be4a:	68 9c 00 00 00       	push   $0x9c
 804be4f:	6a 00                	push   $0x0
 804be51:	ff 75 f0             	pushl  -0x10(%ebp)
 804be54:	e8 c7 ca ff ff       	call   8048920 <memset@plt>
 804be59:	83 c4 10             	add    $0x10,%esp
 804be5c:	8b 45 08             	mov    0x8(%ebp),%eax
 804be5f:	8b 10                	mov    (%eax),%edx
 804be61:	8b 45 f0             	mov    -0x10(%ebp),%eax
 804be64:	89 50 04             	mov    %edx,0x4(%eax)
 804be67:	8b 45 f0             	mov    -0x10(%ebp),%eax
 804be6a:	8b 55 e8             	mov    -0x18(%ebp),%edx
 804be6d:	89 90 90 00 00 00    	mov    %edx,0x90(%eax)
 804be73:	8b 45 f0             	mov    -0x10(%ebp),%eax
 804be76:	8b 55 ec             	mov    -0x14(%ebp),%edx
 804be79:	89 90 94 00 00 00    	mov    %edx,0x94(%eax)
 804be7f:	8b 45 08             	mov    0x8(%ebp),%eax
 804be82:	8b 50 04             	mov    0x4(%eax),%edx
 804be85:	8b 45 f0             	mov    -0x10(%ebp),%eax
 804be88:	89 90 98 00 00 00    	mov    %edx,0x98(%eax)
 804be8e:	a1 18 b1 05 08       	mov    0x805b118,%eax
 804be93:	8d 50 01             	lea    0x1(%eax),%edx
 804be96:	89 15 18 b1 05 08    	mov    %edx,0x805b118
 804be9c:	8b 55 f0             	mov    -0x10(%ebp),%edx
 804be9f:	89 14 85 80 b3 05 08 	mov    %edx,0x805b380(,%eax,4)
 804bea6:	e9 df 00 00 00       	jmp    804bf8a <insertTuple+0x2be>
 804beab:	8b 45 08             	mov    0x8(%ebp),%eax
 804beae:	8b 48 0c             	mov    0xc(%eax),%ecx
 804beb1:	8b 45 08             	mov    0x8(%ebp),%eax
 804beb4:	8b 50 08             	mov    0x8(%eax),%edx
 804beb7:	8b 45 08             	mov    0x8(%ebp),%eax
 804beba:	8b 00                	mov    (%eax),%eax
 804bebc:	83 ec 04             	sub    $0x4,%esp
 804bebf:	51                   	push   %ecx
 804bec0:	52                   	push   %edx
 804bec1:	50                   	push   %eax
 804bec2:	e8 96 fc ff ff       	call   804bb5d <findOp>
 804bec7:	83 c4 10             	add    $0x10,%esp
 804beca:	89 45 f0             	mov    %eax,-0x10(%ebp)
 804becd:	83 7d f0 00          	cmpl   $0x0,-0x10(%ebp)
 804bed1:	0f 85 91 00 00 00    	jne    804bf68 <insertTuple+0x29c>
 804bed7:	83 ec 0c             	sub    $0xc,%esp
 804beda:	68 9c 00 00 00       	push   $0x9c
 804bedf:	e8 bc c9 ff ff       	call   80488a0 <malloc@plt>
 804bee4:	83 c4 10             	add    $0x10,%esp
 804bee7:	89 45 f0             	mov    %eax,-0x10(%ebp)
 804beea:	83 ec 04             	sub    $0x4,%esp
 804beed:	68 9c 00 00 00       	push   $0x9c
 804bef2:	6a 00                	push   $0x0
 804bef4:	ff 75 f0             	pushl  -0x10(%ebp)
 804bef7:	e8 24 ca ff ff       	call   8048920 <memset@plt>
 804befc:	83 c4 10             	add    $0x10,%esp
 804beff:	8b 45 08             	mov    0x8(%ebp),%eax
 804bf02:	8b 10                	mov    (%eax),%edx
 804bf04:	8b 45 f0             	mov    -0x10(%ebp),%eax
 804bf07:	89 50 04             	mov    %edx,0x4(%eax)
 804bf0a:	8b 45 f0             	mov    -0x10(%ebp),%eax
 804bf0d:	8b 55 e8             	mov    -0x18(%ebp),%edx
 804bf10:	89 90 90 00 00 00    	mov    %edx,0x90(%eax)
 804bf16:	8b 45 f0             	mov    -0x10(%ebp),%eax
 804bf19:	8b 55 ec             	mov    -0x14(%ebp),%edx
 804bf1c:	89 90 94 00 00 00    	mov    %edx,0x94(%eax)
 804bf22:	a1 18 b1 05 08       	mov    0x805b118,%eax
 804bf27:	8d 50 01             	lea    0x1(%eax),%edx
 804bf2a:	89 15 18 b1 05 08    	mov    %edx,0x805b118
 804bf30:	8b 55 f0             	mov    -0x10(%ebp),%edx
 804bf33:	89 14 85 80 b3 05 08 	mov    %edx,0x805b380(,%eax,4)
 804bf3a:	8b 45 08             	mov    0x8(%ebp),%eax
 804bf3d:	8b 40 04             	mov    0x4(%eax),%eax
 804bf40:	85 c0                	test   %eax,%eax
 804bf42:	74 46                	je     804bf8a <insertTuple+0x2be>
 804bf44:	8b 45 f0             	mov    -0x10(%ebp),%eax
 804bf47:	8b 80 88 00 00 00    	mov    0x88(%eax),%eax
 804bf4d:	8d 48 01             	lea    0x1(%eax),%ecx
 804bf50:	8b 55 f0             	mov    -0x10(%ebp),%edx
 804bf53:	89 8a 88 00 00 00    	mov    %ecx,0x88(%edx)
 804bf59:	8b 55 08             	mov    0x8(%ebp),%edx
 804bf5c:	8b 4a 04             	mov    0x4(%edx),%ecx
 804bf5f:	8b 55 f0             	mov    -0x10(%ebp),%edx
 804bf62:	89 4c 82 08          	mov    %ecx,0x8(%edx,%eax,4)
 804bf66:	eb 22                	jmp    804bf8a <insertTuple+0x2be>
 804bf68:	8b 45 f0             	mov    -0x10(%ebp),%eax
 804bf6b:	8b 80 88 00 00 00    	mov    0x88(%eax),%eax
 804bf71:	8d 48 01             	lea    0x1(%eax),%ecx
 804bf74:	8b 55 f0             	mov    -0x10(%ebp),%edx
 804bf77:	89 8a 88 00 00 00    	mov    %ecx,0x88(%edx)
 804bf7d:	8b 55 08             	mov    0x8(%ebp),%edx
 804bf80:	8b 4a 04             	mov    0x4(%edx),%ecx
 804bf83:	8b 55 f0             	mov    -0x10(%ebp),%edx
 804bf86:	89 4c 82 08          	mov    %ecx,0x8(%edx,%eax,4)
 804bf8a:	90                   	nop
 804bf8b:	c9                   	leave  
 804bf8c:	c3                   	ret    

0804bf8d <fixRefAndDeref>:
 804bf8d:	55                   	push   %ebp
 804bf8e:	89 e5                	mov    %esp,%ebp
 804bf90:	83 ec 18             	sub    $0x18,%esp
 804bf93:	83 7d 08 00          	cmpl   $0x0,0x8(%ebp)
 804bf97:	74 74                	je     804c00d <fixRefAndDeref+0x80>
 804bf99:	8b 45 08             	mov    0x8(%ebp),%eax
 804bf9c:	8b 00                	mov    (%eax),%eax
 804bf9e:	83 f8 06             	cmp    $0x6,%eax
 804bfa1:	74 0a                	je     804bfad <fixRefAndDeref+0x20>
 804bfa3:	8b 45 08             	mov    0x8(%ebp),%eax
 804bfa6:	8b 00                	mov    (%eax),%eax
 804bfa8:	83 f8 05             	cmp    $0x5,%eax
 804bfab:	75 61                	jne    804c00e <fixRefAndDeref+0x81>
 804bfad:	8b 45 08             	mov    0x8(%ebp),%eax
 804bfb0:	8b 40 04             	mov    0x4(%eax),%eax
 804bfb3:	83 ec 0c             	sub    $0xc,%esp
 804bfb6:	50                   	push   %eax
 804bfb7:	e8 a7 fa ff ff       	call   804ba63 <findSign>
 804bfbc:	83 c4 10             	add    $0x10,%esp
 804bfbf:	89 45 f4             	mov    %eax,-0xc(%ebp)
 804bfc2:	83 7d f4 00          	cmpl   $0x0,-0xc(%ebp)
 804bfc6:	75 15                	jne    804bfdd <fixRefAndDeref+0x50>
 804bfc8:	8b 45 08             	mov    0x8(%ebp),%eax
 804bfcb:	8b 40 04             	mov    0x4(%eax),%eax
 804bfce:	83 ec 0c             	sub    $0xc,%esp
 804bfd1:	50                   	push   %eax
 804bfd2:	e8 15 fb ff ff       	call   804baec <findLeaf>
 804bfd7:	83 c4 10             	add    $0x10,%esp
 804bfda:	89 45 f4             	mov    %eax,-0xc(%ebp)
 804bfdd:	83 7d f4 00          	cmpl   $0x0,-0xc(%ebp)
 804bfe1:	75 19                	jne    804bffc <fixRefAndDeref+0x6f>
 804bfe3:	68 20 63 05 08       	push   $0x8056320
 804bfe8:	68 aa 00 00 00       	push   $0xaa
 804bfed:	68 a0 62 05 08       	push   $0x80562a0
 804bff2:	68 be 62 05 08       	push   $0x80562be
 804bff7:	e8 f4 c9 ff ff       	call   80489f0 <__assert_fail@plt>
 804bffc:	8b 45 f4             	mov    -0xc(%ebp),%eax
 804bfff:	8b 90 98 00 00 00    	mov    0x98(%eax),%edx
 804c005:	8b 45 08             	mov    0x8(%ebp),%eax
 804c008:	89 50 04             	mov    %edx,0x4(%eax)
 804c00b:	eb 01                	jmp    804c00e <fixRefAndDeref+0x81>
 804c00d:	90                   	nop
 804c00e:	c9                   	leave  
 804c00f:	c3                   	ret    

0804c010 <DAG2ir>:
 804c010:	55                   	push   %ebp
 804c011:	89 e5                	mov    %esp,%ebp
 804c013:	83 ec 58             	sub    $0x58,%esp
 804c016:	c7 45 b4 00 00 00 00 	movl   $0x0,-0x4c(%ebp)
 804c01d:	c7 45 b8 00 00 00 00 	movl   $0x0,-0x48(%ebp)
 804c024:	e9 25 03 00 00       	jmp    804c34e <DAG2ir+0x33e>
 804c029:	8b 45 b8             	mov    -0x48(%ebp),%eax
 804c02c:	8b 04 85 80 b3 05 08 	mov    0x805b380(,%eax,4),%eax
 804c033:	89 45 c0             	mov    %eax,-0x40(%ebp)
 804c036:	8b 45 c0             	mov    -0x40(%ebp),%eax
 804c039:	8b 00                	mov    (%eax),%eax
 804c03b:	85 c0                	test   %eax,%eax
 804c03d:	0f 84 b7 00 00 00    	je     804c0fa <DAG2ir+0xea>
 804c043:	c7 45 bc 00 00 00 00 	movl   $0x0,-0x44(%ebp)
 804c04a:	eb 63                	jmp    804c0af <DAG2ir+0x9f>
 804c04c:	8b 45 c0             	mov    -0x40(%ebp),%eax
 804c04f:	8b 55 bc             	mov    -0x44(%ebp),%edx
 804c052:	8b 44 90 08          	mov    0x8(%eax,%edx,4),%eax
 804c056:	89 45 c4             	mov    %eax,-0x3c(%ebp)
 804c059:	8b 45 c4             	mov    -0x3c(%ebp),%eax
 804c05c:	8b 00                	mov    (%eax),%eax
 804c05e:	85 c0                	test   %eax,%eax
 804c060:	75 49                	jne    804c0ab <DAG2ir+0x9b>
 804c062:	8b 45 c0             	mov    -0x40(%ebp),%eax
 804c065:	8b 80 98 00 00 00    	mov    0x98(%eax),%eax
 804c06b:	85 c0                	test   %eax,%eax
 804c06d:	75 0c                	jne    804c07b <DAG2ir+0x6b>
 804c06f:	8b 45 c0             	mov    -0x40(%ebp),%eax
 804c072:	8b 55 c4             	mov    -0x3c(%ebp),%edx
 804c075:	89 90 98 00 00 00    	mov    %edx,0x98(%eax)
 804c07b:	8b 45 c0             	mov    -0x40(%ebp),%eax
 804c07e:	8b 80 8c 00 00 00    	mov    0x8c(%eax),%eax
 804c084:	6a 00                	push   $0x0
 804c086:	50                   	push   %eax
 804c087:	ff 75 c4             	pushl  -0x3c(%ebp)
 804c08a:	6a 01                	push   $0x1
 804c08c:	e8 86 13 00 00       	call   804d417 <newIC>
 804c091:	83 c4 10             	add    $0x10,%esp
 804c094:	89 45 c8             	mov    %eax,-0x38(%ebp)
 804c097:	83 ec 08             	sub    $0x8,%esp
 804c09a:	ff 75 c8             	pushl  -0x38(%ebp)
 804c09d:	ff 75 b4             	pushl  -0x4c(%ebp)
 804c0a0:	e8 f4 07 00 00       	call   804c899 <addTail>
 804c0a5:	83 c4 10             	add    $0x10,%esp
 804c0a8:	89 45 b4             	mov    %eax,-0x4c(%ebp)
 804c0ab:	83 45 bc 01          	addl   $0x1,-0x44(%ebp)
 804c0af:	8b 45 c0             	mov    -0x40(%ebp),%eax
 804c0b2:	8b 80 88 00 00 00    	mov    0x88(%eax),%eax
 804c0b8:	3b 45 bc             	cmp    -0x44(%ebp),%eax
 804c0bb:	7f 8f                	jg     804c04c <DAG2ir+0x3c>
 804c0bd:	8b 45 c0             	mov    -0x40(%ebp),%eax
 804c0c0:	8b 80 98 00 00 00    	mov    0x98(%eax),%eax
 804c0c6:	85 c0                	test   %eax,%eax
 804c0c8:	0f 85 7c 02 00 00    	jne    804c34a <DAG2ir+0x33a>
 804c0ce:	8b 45 c0             	mov    -0x40(%ebp),%eax
 804c0d1:	8b 80 8c 00 00 00    	mov    0x8c(%eax),%eax
 804c0d7:	83 ec 0c             	sub    $0xc,%esp
 804c0da:	50                   	push   %eax
 804c0db:	e8 ad fe ff ff       	call   804bf8d <fixRefAndDeref>
 804c0e0:	83 c4 10             	add    $0x10,%esp
 804c0e3:	8b 45 c0             	mov    -0x40(%ebp),%eax
 804c0e6:	8b 90 8c 00 00 00    	mov    0x8c(%eax),%edx
 804c0ec:	8b 45 c0             	mov    -0x40(%ebp),%eax
 804c0ef:	89 90 98 00 00 00    	mov    %edx,0x98(%eax)
 804c0f5:	e9 50 02 00 00       	jmp    804c34a <DAG2ir+0x33a>
 804c0fa:	c7 45 bc 00 00 00 00 	movl   $0x0,-0x44(%ebp)
 804c101:	e9 e7 00 00 00       	jmp    804c1ed <DAG2ir+0x1dd>
 804c106:	8b 45 c0             	mov    -0x40(%ebp),%eax
 804c109:	8b 55 bc             	mov    -0x44(%ebp),%edx
 804c10c:	8b 44 90 08          	mov    0x8(%eax,%edx,4),%eax
 804c110:	89 45 cc             	mov    %eax,-0x34(%ebp)
 804c113:	8b 45 cc             	mov    -0x34(%ebp),%eax
 804c116:	8b 00                	mov    (%eax),%eax
 804c118:	85 c0                	test   %eax,%eax
 804c11a:	0f 85 c9 00 00 00    	jne    804c1e9 <DAG2ir+0x1d9>
 804c120:	8b 45 c0             	mov    -0x40(%ebp),%eax
 804c123:	8b 80 98 00 00 00    	mov    0x98(%eax),%eax
 804c129:	85 c0                	test   %eax,%eax
 804c12b:	74 35                	je     804c162 <DAG2ir+0x152>
 804c12d:	8b 45 c0             	mov    -0x40(%ebp),%eax
 804c130:	8b 80 98 00 00 00    	mov    0x98(%eax),%eax
 804c136:	6a 00                	push   $0x0
 804c138:	50                   	push   %eax
 804c139:	ff 75 cc             	pushl  -0x34(%ebp)
 804c13c:	6a 01                	push   $0x1
 804c13e:	e8 d4 12 00 00       	call   804d417 <newIC>
 804c143:	83 c4 10             	add    $0x10,%esp
 804c146:	89 45 d0             	mov    %eax,-0x30(%ebp)
 804c149:	83 ec 08             	sub    $0x8,%esp
 804c14c:	ff 75 d0             	pushl  -0x30(%ebp)
 804c14f:	ff 75 b4             	pushl  -0x4c(%ebp)
 804c152:	e8 42 07 00 00       	call   804c899 <addTail>
 804c157:	83 c4 10             	add    $0x10,%esp
 804c15a:	89 45 b4             	mov    %eax,-0x4c(%ebp)
 804c15d:	e9 87 00 00 00       	jmp    804c1e9 <DAG2ir+0x1d9>
 804c162:	8b 45 c0             	mov    -0x40(%ebp),%eax
 804c165:	8b 80 90 00 00 00    	mov    0x90(%eax),%eax
 804c16b:	85 c0                	test   %eax,%eax
 804c16d:	74 11                	je     804c180 <DAG2ir+0x170>
 804c16f:	8b 45 c0             	mov    -0x40(%ebp),%eax
 804c172:	8b 80 90 00 00 00    	mov    0x90(%eax),%eax
 804c178:	8b 80 98 00 00 00    	mov    0x98(%eax),%eax
 804c17e:	eb 05                	jmp    804c185 <DAG2ir+0x175>
 804c180:	b8 00 00 00 00       	mov    $0x0,%eax
 804c185:	89 45 d4             	mov    %eax,-0x2c(%ebp)
 804c188:	8b 45 c0             	mov    -0x40(%ebp),%eax
 804c18b:	8b 80 94 00 00 00    	mov    0x94(%eax),%eax
 804c191:	85 c0                	test   %eax,%eax
 804c193:	74 11                	je     804c1a6 <DAG2ir+0x196>
 804c195:	8b 45 c0             	mov    -0x40(%ebp),%eax
 804c198:	8b 80 94 00 00 00    	mov    0x94(%eax),%eax
 804c19e:	8b 80 98 00 00 00    	mov    0x98(%eax),%eax
 804c1a4:	eb 05                	jmp    804c1ab <DAG2ir+0x19b>
 804c1a6:	b8 00 00 00 00       	mov    $0x0,%eax
 804c1ab:	89 45 d8             	mov    %eax,-0x28(%ebp)
 804c1ae:	8b 45 c0             	mov    -0x40(%ebp),%eax
 804c1b1:	8b 40 04             	mov    0x4(%eax),%eax
 804c1b4:	ff 75 d8             	pushl  -0x28(%ebp)
 804c1b7:	ff 75 d4             	pushl  -0x2c(%ebp)
 804c1ba:	ff 75 cc             	pushl  -0x34(%ebp)
 804c1bd:	50                   	push   %eax
 804c1be:	e8 54 12 00 00       	call   804d417 <newIC>
 804c1c3:	83 c4 10             	add    $0x10,%esp
 804c1c6:	89 45 dc             	mov    %eax,-0x24(%ebp)
 804c1c9:	83 ec 08             	sub    $0x8,%esp
 804c1cc:	ff 75 dc             	pushl  -0x24(%ebp)
 804c1cf:	ff 75 b4             	pushl  -0x4c(%ebp)
 804c1d2:	e8 c2 06 00 00       	call   804c899 <addTail>
 804c1d7:	83 c4 10             	add    $0x10,%esp
 804c1da:	89 45 b4             	mov    %eax,-0x4c(%ebp)
 804c1dd:	8b 45 c0             	mov    -0x40(%ebp),%eax
 804c1e0:	8b 55 cc             	mov    -0x34(%ebp),%edx
 804c1e3:	89 90 98 00 00 00    	mov    %edx,0x98(%eax)
 804c1e9:	83 45 bc 01          	addl   $0x1,-0x44(%ebp)
 804c1ed:	8b 45 c0             	mov    -0x40(%ebp),%eax
 804c1f0:	8b 80 88 00 00 00    	mov    0x88(%eax),%eax
 804c1f6:	3b 45 bc             	cmp    -0x44(%ebp),%eax
 804c1f9:	0f 8f 07 ff ff ff    	jg     804c106 <DAG2ir+0xf6>
 804c1ff:	8b 45 c0             	mov    -0x40(%ebp),%eax
 804c202:	8b 80 98 00 00 00    	mov    0x98(%eax),%eax
 804c208:	85 c0                	test   %eax,%eax
 804c20a:	0f 85 a7 00 00 00    	jne    804c2b7 <DAG2ir+0x2a7>
 804c210:	8b 45 c0             	mov    -0x40(%ebp),%eax
 804c213:	8b 80 88 00 00 00    	mov    0x88(%eax),%eax
 804c219:	85 c0                	test   %eax,%eax
 804c21b:	0f 8e 96 00 00 00    	jle    804c2b7 <DAG2ir+0x2a7>
 804c221:	8b 45 c0             	mov    -0x40(%ebp),%eax
 804c224:	8b 80 90 00 00 00    	mov    0x90(%eax),%eax
 804c22a:	85 c0                	test   %eax,%eax
 804c22c:	74 11                	je     804c23f <DAG2ir+0x22f>
 804c22e:	8b 45 c0             	mov    -0x40(%ebp),%eax
 804c231:	8b 80 90 00 00 00    	mov    0x90(%eax),%eax
 804c237:	8b 80 98 00 00 00    	mov    0x98(%eax),%eax
 804c23d:	eb 05                	jmp    804c244 <DAG2ir+0x234>
 804c23f:	b8 00 00 00 00       	mov    $0x0,%eax
 804c244:	89 45 e0             	mov    %eax,-0x20(%ebp)
 804c247:	8b 45 c0             	mov    -0x40(%ebp),%eax
 804c24a:	8b 80 94 00 00 00    	mov    0x94(%eax),%eax
 804c250:	85 c0                	test   %eax,%eax
 804c252:	74 11                	je     804c265 <DAG2ir+0x255>
 804c254:	8b 45 c0             	mov    -0x40(%ebp),%eax
 804c257:	8b 80 94 00 00 00    	mov    0x94(%eax),%eax
 804c25d:	8b 80 98 00 00 00    	mov    0x98(%eax),%eax
 804c263:	eb 05                	jmp    804c26a <DAG2ir+0x25a>
 804c265:	b8 00 00 00 00       	mov    $0x0,%eax
 804c26a:	89 45 e4             	mov    %eax,-0x1c(%ebp)
 804c26d:	8b 45 c0             	mov    -0x40(%ebp),%eax
 804c270:	8b 50 08             	mov    0x8(%eax),%edx
 804c273:	8b 45 c0             	mov    -0x40(%ebp),%eax
 804c276:	89 90 98 00 00 00    	mov    %edx,0x98(%eax)
 804c27c:	8b 45 c0             	mov    -0x40(%ebp),%eax
 804c27f:	8b 90 98 00 00 00    	mov    0x98(%eax),%edx
 804c285:	8b 45 c0             	mov    -0x40(%ebp),%eax
 804c288:	8b 40 04             	mov    0x4(%eax),%eax
 804c28b:	ff 75 e4             	pushl  -0x1c(%ebp)
 804c28e:	ff 75 e0             	pushl  -0x20(%ebp)
 804c291:	52                   	push   %edx
 804c292:	50                   	push   %eax
 804c293:	e8 7f 11 00 00       	call   804d417 <newIC>
 804c298:	83 c4 10             	add    $0x10,%esp
 804c29b:	89 45 e8             	mov    %eax,-0x18(%ebp)
 804c29e:	83 ec 08             	sub    $0x8,%esp
 804c2a1:	ff 75 e8             	pushl  -0x18(%ebp)
 804c2a4:	ff 75 b4             	pushl  -0x4c(%ebp)
 804c2a7:	e8 ed 05 00 00       	call   804c899 <addTail>
 804c2ac:	83 c4 10             	add    $0x10,%esp
 804c2af:	89 45 b4             	mov    %eax,-0x4c(%ebp)
 804c2b2:	e9 93 00 00 00       	jmp    804c34a <DAG2ir+0x33a>
 804c2b7:	8b 45 c0             	mov    -0x40(%ebp),%eax
 804c2ba:	8b 80 88 00 00 00    	mov    0x88(%eax),%eax
 804c2c0:	85 c0                	test   %eax,%eax
 804c2c2:	0f 85 82 00 00 00    	jne    804c34a <DAG2ir+0x33a>
 804c2c8:	8b 45 c0             	mov    -0x40(%ebp),%eax
 804c2cb:	8b 80 90 00 00 00    	mov    0x90(%eax),%eax
 804c2d1:	85 c0                	test   %eax,%eax
 804c2d3:	74 11                	je     804c2e6 <DAG2ir+0x2d6>
 804c2d5:	8b 45 c0             	mov    -0x40(%ebp),%eax
 804c2d8:	8b 80 90 00 00 00    	mov    0x90(%eax),%eax
 804c2de:	8b 80 98 00 00 00    	mov    0x98(%eax),%eax
 804c2e4:	eb 05                	jmp    804c2eb <DAG2ir+0x2db>
 804c2e6:	b8 00 00 00 00       	mov    $0x0,%eax
 804c2eb:	89 45 ec             	mov    %eax,-0x14(%ebp)
 804c2ee:	8b 45 c0             	mov    -0x40(%ebp),%eax
 804c2f1:	8b 80 94 00 00 00    	mov    0x94(%eax),%eax
 804c2f7:	85 c0                	test   %eax,%eax
 804c2f9:	74 11                	je     804c30c <DAG2ir+0x2fc>
 804c2fb:	8b 45 c0             	mov    -0x40(%ebp),%eax
 804c2fe:	8b 80 94 00 00 00    	mov    0x94(%eax),%eax
 804c304:	8b 80 98 00 00 00    	mov    0x98(%eax),%eax
 804c30a:	eb 05                	jmp    804c311 <DAG2ir+0x301>
 804c30c:	b8 00 00 00 00       	mov    $0x0,%eax
 804c311:	89 45 f0             	mov    %eax,-0x10(%ebp)
 804c314:	8b 45 c0             	mov    -0x40(%ebp),%eax
 804c317:	8b 90 98 00 00 00    	mov    0x98(%eax),%edx
 804c31d:	8b 45 c0             	mov    -0x40(%ebp),%eax
 804c320:	8b 40 04             	mov    0x4(%eax),%eax
 804c323:	ff 75 f0             	pushl  -0x10(%ebp)
 804c326:	ff 75 ec             	pushl  -0x14(%ebp)
 804c329:	52                   	push   %edx
 804c32a:	50                   	push   %eax
 804c32b:	e8 e7 10 00 00       	call   804d417 <newIC>
 804c330:	83 c4 10             	add    $0x10,%esp
 804c333:	89 45 f4             	mov    %eax,-0xc(%ebp)
 804c336:	83 ec 08             	sub    $0x8,%esp
 804c339:	ff 75 f4             	pushl  -0xc(%ebp)
 804c33c:	ff 75 b4             	pushl  -0x4c(%ebp)
 804c33f:	e8 55 05 00 00       	call   804c899 <addTail>
 804c344:	83 c4 10             	add    $0x10,%esp
 804c347:	89 45 b4             	mov    %eax,-0x4c(%ebp)
 804c34a:	83 45 b8 01          	addl   $0x1,-0x48(%ebp)
 804c34e:	a1 18 b1 05 08       	mov    0x805b118,%eax
 804c353:	39 45 b8             	cmp    %eax,-0x48(%ebp)
 804c356:	0f 8c cd fc ff ff    	jl     804c029 <DAG2ir+0x19>
 804c35c:	8b 45 b4             	mov    -0x4c(%ebp),%eax
 804c35f:	c9                   	leave  
 804c360:	c3                   	ret    

0804c361 <opt_block>:
 804c361:	55                   	push   %ebp
 804c362:	89 e5                	mov    %esp,%ebp
 804c364:	83 ec 18             	sub    $0x18,%esp
 804c367:	8b 45 08             	mov    0x8(%ebp),%eax
 804c36a:	89 45 f0             	mov    %eax,-0x10(%ebp)
 804c36d:	c7 45 f4 00 00 00 00 	movl   $0x0,-0xc(%ebp)
 804c374:	e8 42 f6 ff ff       	call   804b9bb <clearMap>
